EXPORTS
	??0RCmsContact@@QAE@XZ @ 1 NONAME ; RCmsContact::RCmsContact(void)
	??0RCmsSession@@QAE@XZ @ 2 NONAME ; RCmsSession::RCmsSession(void)
	??1CCmsContactFieldInfo@@UAE@XZ @ 3 NONAME ; CCmsContactFieldInfo::~CCmsContactFieldInfo(void)
	??1CCmsPresenceData@@UAE@XZ @ 4 NONAME ; CCmsPresenceData::~CCmsPresenceData(void)
	??1RCmsContact@@QAE@XZ @ 5 NONAME ; RCmsContact::~RCmsContact(void)
	??1RCmsSession@@QAE@XZ @ 6 NONAME ; RCmsSession::~RCmsSession(void)
	?BinaryData@CCmsContactFieldItem@@QBE?AVTPtrC8@@XZ @ 7 NONAME ; class TPtrC8 CCmsContactFieldItem::BinaryData(void) const
	?Bitmap@CCmsPresenceData@@QBEPAVCFbsBitmap@@XZ @ 8 NONAME ; class CFbsBitmap * CCmsPresenceData::Bitmap(void) const
	?BrandedText@CCmsPresenceData@@QBE?AVTPtrC16@@XZ @ 9 NONAME ; class TPtrC16 CCmsPresenceData::BrandedText(void) const
	?Cancel@RCmsContact@@QAEXAAVCCmsContactBase@@@Z @ 10 NONAME ; void RCmsContact::Cancel(class CCmsContactBase &)
	?CancelExternalContactFind@RCmsContact@@QBEXXZ @ 11 NONAME ; void RCmsContact::CancelExternalContactFind(void) const
	?CancelNotifications@RCmsContact@@QAEXW4TCmsContactNotification@CCmsContactFieldItem@@@Z @ 12 NONAME ; void RCmsContact::CancelNotifications(enum CCmsContactFieldItem::TCmsContactNotification)
	?Close@RCmsContact@@QAEXXZ @ 13 NONAME ; void RCmsContact::Close(void)
	?Connect@RCmsSession@@QAEHXZ @ 14 NONAME ; int RCmsSession::Connect(void)
	?ContactStore@RCmsContact@@QBE?AW4TCmsContactStore@@XZ @ 15 NONAME ; enum TCmsContactStore RCmsContact::ContactStore(void) const
	?Data@CCmsContactFieldItem@@QBE?AVTPtrC16@@XZ @ 16 NONAME ; class TPtrC16 CCmsContactFieldItem::Data(void) const
	?EnabledFieldsL@RCmsContact@@QAEPAVCCmsContactFieldInfo@@AAVTRequestStatus@@@Z @ 17 NONAME ; class CCmsContactFieldInfo * RCmsContact::EnabledFieldsL(class TRequestStatus &)
	?FieldDataL@RCmsContact@@QAEPAVCCmsContactField@@AAVTRequestStatus@@W4TCmsContactField@CCmsContactFieldItem@@@Z @ 18 NONAME ; class CCmsContactField * RCmsContact::FieldDataL(class TRequestStatus &, enum CCmsContactFieldItem::TCmsContactField)
	?Fields@CCmsContactFieldInfo@@QBEABV?$RArray@W4TCmsContactField@CCmsContactFieldItem@@@@XZ @ 19 NONAME ; class RArray<enum CCmsContactFieldItem::TCmsContactField> const & CCmsContactFieldInfo::Fields(void) const
	?FindExternalContact@RCmsContact@@QBEXAAVTRequestStatus@@@Z @ 20 NONAME ; void RCmsContact::FindExternalContact(class TRequestStatus &) const
	?GetContactActionFieldCount@RCmsContact@@QAEHW4TVPbkContactActionTypeSelector@VPbkFieldTypeSelectorFactory@@@Z @ 21 NONAME ; int RCmsContact::GetContactActionFieldCount(enum VPbkFieldTypeSelectorFactory::TVPbkContactActionTypeSelector)
	?GetContactIdentifierL@RCmsContact@@QAEPAVHBufC8@@XZ @ 22 NONAME ; class HBufC8 * RCmsContact::GetContactIdentifierL(void)
	?GroupType@CCmsContactField@@QBE?AW4TCmsContactFieldGroup@CCmsContactFieldItem@@XZ @ 23 NONAME ; enum CCmsContactFieldItem::TCmsContactFieldGroup CCmsContactField::GroupType(void) const
	?HasDefaultAttribute@CCmsContactField@@QBEHW4TCmsDefaultAttributeTypes@CCmsContactFieldItem@@@Z @ 24 NONAME ; int CCmsContactField::HasDefaultAttribute(enum CCmsContactFieldItem::TCmsDefaultAttributeTypes) const
	?HasDefaultAttribute@CCmsContactField@@QBEHXZ @ 25 NONAME ; int CCmsContactField::HasDefaultAttribute(void) const
	?IsServiceAvailable@RCmsContact@@QBEHW4TVPbkContactActionTypeSelector@VPbkFieldTypeSelectorFactory@@@Z @ 26 NONAME ; int RCmsContact::IsServiceAvailable(enum VPbkFieldTypeSelectorFactory::TVPbkContactActionTypeSelector) const
	?ItemCount@CCmsContactField@@QBEHXZ @ 27 NONAME ; int CCmsContactField::ItemCount(void) const
	?ItemL@CCmsContactField@@QBEABVCCmsContactFieldItem@@H@Z @ 28 NONAME ; class CCmsContactFieldItem const & CCmsContactField::ItemL(int) const
	?ItemL@CCmsContactField@@QBEABVCCmsContactFieldItem@@W4TCmsDefaultAttributeTypes@2@@Z @ 29 NONAME ; class CCmsContactFieldItem const & CCmsContactField::ItemL(enum CCmsContactFieldItem::TCmsDefaultAttributeTypes) const
	?Items@CCmsContactField@@QBEABV?$RPointerArray@VCCmsContactFieldItem@@@@XZ @ 30 NONAME ; class RPointerArray<class CCmsContactFieldItem> const & CCmsContactField::Items(void) const
	?Mask@CCmsPresenceData@@QBEPAVCFbsBitmap@@XZ @ 31 NONAME ; class CFbsBitmap * CCmsPresenceData::Mask(void) const
	?Open@RCmsContact@@QAEHAAVRCmsSession@@ABVTDesC16@@@Z @ 32 NONAME ; int RCmsContact::Open(class RCmsSession &, class TDesC16 const &)
	?Open@RCmsContact@@QAEHAAVRCmsSession@@ABVTDesC8@@@Z @ 33 NONAME ; int RCmsContact::Open(class RCmsSession &, class TDesC8 const &)
	?Open@RCmsContact@@QAEHAAVRCmsSession@@J@Z @ 34 NONAME ; int RCmsContact::Open(class RCmsSession &, long)
	?OrderNotificationsL@RCmsContact@@QAEXPAVMCmsNotificationHandlerAPI@@W4TCmsContactNotification@CCmsContactFieldItem@@@Z @ 35 NONAME ; void RCmsContact::OrderNotificationsL(class MCmsNotificationHandlerAPI *, enum CCmsContactFieldItem::TCmsContactNotification)
	?PreparePresenceDataL@CCmsPresenceData@@QAEHVTSize@@@Z @ 36 NONAME ; int CCmsPresenceData::PreparePresenceDataL(class TSize)
	?ServiceType@CCmsPresenceData@@QBEKXZ @ 37 NONAME ; unsigned long CCmsPresenceData::ServiceType(void) const
	?Type@CCmsContactField@@QBE?AW4TCmsContactField@CCmsContactFieldItem@@XZ @ 38 NONAME ; enum CCmsContactFieldItem::TCmsContactField CCmsContactField::Type(void) const
	?UserIdentity@CCmsPresenceData@@QBE?AVTPtrC8@@XZ @ 39 NONAME ; class TPtrC8 CCmsPresenceData::UserIdentity(void) const
	?Version@RCmsSession@@QBE?AVTVersion@@XZ @ 40 NONAME ; class TVersion RCmsSession::Version(void) const
	?Info@CCmsContactFieldItem@@QBE?AVTPtrC16@@XZ @ 41 NONAME ; class TPtrC16 CCmsContactFieldItem::Info(void) const

