EXPORTS
	?metaObject@QVersitContactExporter@QtMobility@@UBEPBUQMetaObject@@XZ @ 1 NONAME ; struct QMetaObject const * QtMobility::QVersitContactExporter::metaObject(void) const
	?setVersionFromProperty@QVersitReaderPrivate@QtMobility@@QBE_NAAVQVersitDocument@2@ABVQVersitProperty@2@@Z @ 2 NONAME ABSENT ; bool QtMobility::QVersitReaderPrivate::setVersionFromProperty(class QtMobility::QVersitDocument &, class QtMobility::QVersitProperty const &) const
	?getStaticMetaObject@QVersitContactExporter@QtMobility@@SAABUQMetaObject@@XZ @ 3 NONAME ; struct QMetaObject const & QtMobility::QVersitContactExporter::getStaticMetaObject(void)
	?audioClipPath@QVersitContactImporter@QtMobility@@QBE?AVQString@@XZ @ 4 NONAME ; class QString QtMobility::QVersitContactImporter::audioClipPath(void) const
	?trUtf8@QVersitWriter@QtMobility@@SA?AVQString@@PBD0H@Z @ 5 NONAME ; class QString QtMobility::QVersitWriter::trUtf8(char const *, char const *, int)
	?encodeParameters@QVCard21Writer@QtMobility@@MBE?AVQByteArray@@ABV?$QMultiHash@VQString@@V1@@@@Z @ 6 NONAME ABSENT ; class QByteArray QtMobility::QVCard21Writer::encodeParameters(class QMultiHash<class QString, class QString> const &) const
	??_EQVersitReaderPrivate@QtMobility@@UAE@I@Z @ 7 NONAME ABSENT ; QtMobility::QVersitReaderPrivate::~QVersitReaderPrivate(unsigned int)
	??1QVCard21Writer@QtMobility@@UAE@XZ @ 8 NONAME ABSENT ; QtMobility::QVCard21Writer::~QVCard21Writer(void)
	?metaObject@QVersitReader@QtMobility@@UBEPBUQMetaObject@@XZ @ 9 NONAME ; struct QMetaObject const * QtMobility::QVersitReader::metaObject(void) const
	?encodeGeoLocation@QVersitContactExporterPrivate@QtMobility@@IAEXAAVQVersitProperty@2@ABVQContactDetail@2@@Z @ 10 NONAME ABSENT ; void QtMobility::QVersitContactExporterPrivate::encodeGeoLocation(class QtMobility::QVersitProperty &, class QtMobility::QContactDetail const &)
	??_EQVersitReader@QtMobility@@UAE@I@Z @ 11 NONAME ; QtMobility::QVersitReader::~QVersitReader(unsigned int)
	?staticMetaObject@QVersitWriterPrivate@QtMobility@@2UQMetaObject@@B @ 12 NONAME ABSENT ; struct QMetaObject const QtMobility::QVersitWriterPrivate::staticMetaObject
	?scale@QVersitContactExporterPrivate@QtMobility@@IAEXABVQString@@AAVQByteArray@@@Z @ 13 NONAME ABSENT ; void QtMobility::QVersitContactExporterPrivate::scale(class QString const &, class QByteArray &)
	?encodeDisplayLabel@QVersitContactExporterPrivate@QtMobility@@IAE_NAAVQVersitProperty@2@ABVQContactDetail@2@ABVQContact@2@@Z @ 14 NONAME ABSENT ; bool QtMobility::QVersitContactExporterPrivate::encodeDisplayLabel(class QtMobility::QVersitProperty &, class QtMobility::QContactDetail const &, class QtMobility::QContact const &)
	?trUtf8@QVersitReaderPrivate@QtMobility@@SA?AVQString@@PBD0@Z @ 15 NONAME ABSENT ; class QString QtMobility::QVersitReaderPrivate::trUtf8(char const *, char const *)
	?parseVCard21Property@QVersitReaderPrivate@QtMobility@@QAEXAAVQByteArray@@AAVQVersitProperty@2@@Z @ 16 NONAME ABSENT ; void QtMobility::QVersitReaderPrivate::parseVCard21Property(class QByteArray &, class QtMobility::QVersitProperty &)
	?encodeNickname@QVersitContactExporterPrivate@QtMobility@@IAEXAAVQVersitDocument@2@ABVQContactDetail@2@@Z @ 17 NONAME ABSENT ; void QtMobility::QVersitContactExporterPrivate::encodeNickname(class QtMobility::QVersitDocument &, class QtMobility::QContactDetail const &)
	??1QVersitDocument@QtMobility@@QAE@XZ @ 18 NONAME ; QtMobility::QVersitDocument::~QVersitDocument(void)
	?scale@QVersitContactExporter@QtMobility@@IAEXABVQString@@AAVQByteArray@@@Z @ 19 NONAME ; void QtMobility::QVersitContactExporter::scale(class QString const &, class QByteArray &)
	?quotedPrintableEncode@QVCard21Writer@QtMobility@@IBE_NABVQVersitProperty@2@AAVQByteArray@@@Z @ 20 NONAME ABSENT ; bool QtMobility::QVCard21Writer::quotedPrintableEncode(class QtMobility::QVersitProperty const &, class QByteArray &) const
	?encodeOrganization@QVersitContactExporterPrivate@QtMobility@@IAEXAAVQVersitDocument@2@ABVQContactDetail@2@@Z @ 21 NONAME ABSENT ; void QtMobility::QVersitContactExporterPrivate::encodeOrganization(class QtMobility::QVersitDocument &, class QtMobility::QContactDetail const &)
	?encodeAvatar@QVersitContactExporterPrivate@QtMobility@@IAE_NAAVQVersitProperty@2@ABVQContactDetail@2@@Z @ 22 NONAME ABSENT ; bool QtMobility::QVersitContactExporterPrivate::encodeAvatar(class QtMobility::QVersitProperty &, class QtMobility::QContactDetail const &)
	?setParameters@QVersitProperty@QtMobility@@QAEXABV?$QMultiHash@VQString@@V1@@@@Z @ 23 NONAME ; void QtMobility::QVersitProperty::setParameters(class QMultiHash<class QString, class QString> const &)
	?decodeQuotedPrintable@VersitUtils@QtMobility@@SAXAAVQByteArray@@@Z @ 24 NONAME ABSENT ; void QtMobility::VersitUtils::decodeQuotedPrintable(class QByteArray &)
	?qt_metacast@QVersitWriter@QtMobility@@UAEPAXPBD@Z @ 25 NONAME ; void * QtMobility::QVersitWriter::qt_metacast(char const *)
	?trUtf8@QVersitReader@QtMobility@@SA?AVQString@@PBD0H@Z @ 26 NONAME ; class QString QtMobility::QVersitReader::trUtf8(char const *, char const *, int)
	?encodeEmbeddedContent@QVersitContactExporterPrivate@QtMobility@@IAE_NABVQString@@AAVQVersitProperty@2@_N@Z @ 27 NONAME ABSENT ; bool QtMobility::QVersitContactExporterPrivate::encodeEmbeddedContent(class QString const &, class QtMobility::QVersitProperty &, bool)
	?tr@QVersitWriter@QtMobility@@SA?AVQString@@PBD0H@Z @ 28 NONAME ; class QString QtMobility::QVersitWriter::tr(char const *, char const *, int)
	??1QVersitProperty@QtMobility@@QAE@XZ @ 29 NONAME ; QtMobility::QVersitProperty::~QVersitProperty(void)
	??_EQVersitWriterPrivate@QtMobility@@UAE@I@Z @ 30 NONAME ABSENT ; QtMobility::QVersitWriterPrivate::~QVersitWriterPrivate(unsigned int)
	?setVersitDocument@QVersitWriter@QtMobility@@QAEXABVQVersitDocument@2@@Z @ 31 NONAME ; void QtMobility::QVersitWriter::setVersitDocument(class QtMobility::QVersitDocument const &)
	?getStaticMetaObject@QVersitWriterPrivate@QtMobility@@SAABUQMetaObject@@XZ @ 32 NONAME ABSENT ; struct QMetaObject const & QtMobility::QVersitWriterPrivate::getStaticMetaObject(void)
	?metaObject@QVersitWriterPrivate@QtMobility@@UBEPBUQMetaObject@@XZ @ 33 NONAME ABSENT ; struct QMetaObject const * QtMobility::QVersitWriterPrivate::metaObject(void) const
	?qt_metacast@QVersitReaderPrivate@QtMobility@@UAEPAXPBD@Z @ 34 NONAME ABSENT ; void * QtMobility::QVersitReaderPrivate::qt_metacast(char const *)
	?extractParams@VersitUtils@QtMobility@@SA?AV?$QList@VQByteArray@@@@ABVQByteArray@@@Z @ 35 NONAME ABSENT ; class QList<class QByteArray> QtMobility::VersitUtils::extractParams(class QByteArray const &)
	?qt_metacall@QVersitContactExporterPrivate@QtMobility@@UAEHW4Call@QMetaObject@@HPAPAX@Z @ 36 NONAME ABSENT ; int QtMobility::QVersitContactExporterPrivate::qt_metacall(enum QMetaObject::Call, int, void * *)
	?setDevice@QVersitWriter@QtMobility@@QAEXPAVQIODevice@@@Z @ 37 NONAME ; void QtMobility::QVersitWriter::setDevice(class QIODevice *)
	?extractVCard30PropertyParams@VersitUtils@QtMobility@@SA?AV?$QMultiHash@VQString@@V1@@@ABVQByteArray@@@Z @ 38 NONAME ABSENT ; class QMultiHash<class QString, class QString> QtMobility::VersitUtils::extractVCard30PropertyParams(class QByteArray const &)
	??0QVersitProperty@QtMobility@@QAE@ABV01@@Z @ 39 NONAME ; QtMobility::QVersitProperty::QVersitProperty(class QtMobility::QVersitProperty const &)
	?versitDocument@QVersitWriter@QtMobility@@QBE?AVQVersitDocument@2@XZ @ 40 NONAME ; class QtMobility::QVersitDocument QtMobility::QVersitWriter::versitDocument(void) const
	?result@QVersitReader@QtMobility@@QBE?AV?$QList@VQVersitDocument@QtMobility@@@@XZ @ 41 NONAME ; class QList<class QtMobility::QVersitDocument> QtMobility::QVersitReader::result(void) const
	?encodeVersitDocument@QVersitWriterPrivate@QtMobility@@IAE?AVQByteArray@@ABVQVersitDocument@2@@Z @ 42 NONAME ABSENT ; class QByteArray QtMobility::QVersitWriterPrivate::encodeVersitDocument(class QtMobility::QVersitDocument const &)
	??0QVCard21Writer@QtMobility@@QAE@XZ @ 43 NONAME ABSENT ; QtMobility::QVCard21Writer::QVCard21Writer(void)
	?unfold@VersitUtils@QtMobility@@SA?AVQByteArray@@AAV3@@Z @ 44 NONAME ABSENT ; class QByteArray QtMobility::VersitUtils::unfold(class QByteArray &)
	?tr@QVersitWriter@QtMobility@@SA?AVQString@@PBD0@Z @ 45 NONAME ; class QString QtMobility::QVersitWriter::tr(char const *, char const *)
	?getStaticMetaObject@QVersitWriter@QtMobility@@SAABUQMetaObject@@XZ @ 46 NONAME ; struct QMetaObject const & QtMobility::QVersitWriter::getStaticMetaObject(void)
	?tr@QVersitContactExporter@QtMobility@@SA?AVQString@@PBD0H@Z @ 47 NONAME ; class QString QtMobility::QVersitContactExporter::tr(char const *, char const *, int)
	?writingDone@QVersitWriter@QtMobility@@IAEXXZ @ 48 NONAME ; void QtMobility::QVersitWriter::writingDone(void)
	?trUtf8@QVersitContactExporter@QtMobility@@SA?AVQString@@PBD0H@Z @ 49 NONAME ; class QString QtMobility::QVersitContactExporter::trUtf8(char const *, char const *, int)
	?trUtf8@QVersitContactExporter@QtMobility@@SA?AVQString@@PBD0@Z @ 50 NONAME ; class QString QtMobility::QVersitContactExporter::trUtf8(char const *, char const *)
	?removeBackSlashEscaping@VersitUtils@QtMobility@@SAXAAVQByteArray@@@Z @ 51 NONAME ABSENT ; void QtMobility::VersitUtils::removeBackSlashEscaping(class QByteArray &)
	?qt_metacast@QVersitContactExporterPrivate@QtMobility@@UAEPAXPBD@Z @ 52 NONAME ABSENT ; void * QtMobility::QVersitContactExporterPrivate::qt_metacast(char const *)
	?encodeVersitProperty@QVCard30Writer@QtMobility@@MAE?AVQByteArray@@ABVQVersitProperty@2@@Z @ 53 NONAME ABSENT ; class QByteArray QtMobility::QVCard30Writer::encodeVersitProperty(class QtMobility::QVersitProperty const &)
	?metaObject@QVersitReaderPrivate@QtMobility@@UBEPBUQMetaObject@@XZ @ 54 NONAME ABSENT ; struct QMetaObject const * QtMobility::QVersitReaderPrivate::metaObject(void) const
	?device@QVersitWriter@QtMobility@@QBEPAVQIODevice@@XZ @ 55 NONAME ; class QIODevice * QtMobility::QVersitWriter::device(void) const
	?tr@QVersitReader@QtMobility@@SA?AVQString@@PBD0H@Z @ 56 NONAME ; class QString QtMobility::QVersitReader::tr(char const *, char const *, int)
	?extractPropertyGroupsAndName@VersitUtils@QtMobility@@SA?AU?$QPair@VQStringList@@VQString@@@@ABVQByteArray@@@Z @ 57 NONAME ABSENT ; struct QPair<class QStringList, class QString> QtMobility::VersitUtils::extractPropertyGroupsAndName(class QByteArray const &)
	?getStaticMetaObject@QVersitReaderPrivate@QtMobility@@SAABUQMetaObject@@XZ @ 58 NONAME ABSENT ; struct QMetaObject const & QtMobility::QVersitReaderPrivate::getStaticMetaObject(void)
	?encodeNote@QVersitContactExporterPrivate@QtMobility@@IAEXAAVQVersitProperty@2@ABVQContactDetail@2@@Z @ 59 NONAME ABSENT ; void QtMobility::QVersitContactExporterPrivate::encodeNote(class QtMobility::QVersitProperty &, class QtMobility::QContactDetail const &)
	??1QVersitContactExporter@QtMobility@@UAE@XZ @ 60 NONAME ; QtMobility::QVersitContactExporter::~QVersitContactExporter(void)
	??_EQVCard21Writer@QtMobility@@UAE@I@Z @ 61 NONAME ABSENT ; QtMobility::QVCard21Writer::~QVCard21Writer(unsigned int)
	??1QVCard30Writer@QtMobility@@UAE@XZ @ 62 NONAME ABSENT ; QtMobility::QVCard30Writer::~QVCard30Writer(void)
	?name@QVersitProperty@QtMobility@@QBE?AVQString@@XZ @ 63 NONAME ; class QString QtMobility::QVersitProperty::name(void) const
	??0QVersitWriterPrivate@QtMobility@@IAE@ABVQByteArray@@0@Z @ 64 NONAME ABSENT ; QtMobility::QVersitWriterPrivate::QVersitWriterPrivate(class QByteArray const &, class QByteArray const &)
	?qt_metacall@QVersitReader@QtMobility@@UAEHW4Call@QMetaObject@@HPAPAX@Z @ 65 NONAME ; int QtMobility::QVersitReader::qt_metacall(enum QMetaObject::Call, int, void * *)
	?imagePath@QVersitContactImporter@QtMobility@@QBE?AVQString@@XZ @ 66 NONAME ; class QString QtMobility::QVersitContactImporter::imagePath(void) const
	?encodeUid@QVersitContactExporterPrivate@QtMobility@@IAEXAAVQVersitProperty@2@ABVQContactDetail@2@@Z @ 67 NONAME ABSENT ; void QtMobility::QVersitContactExporterPrivate::encodeUid(class QtMobility::QVersitProperty &, class QtMobility::QContactDetail const &)
	??_EQVersitContactExporter@QtMobility@@UAE@I@Z @ 68 NONAME ; QtMobility::QVersitContactExporter::~QVersitContactExporter(unsigned int)
	?encodeBirthDay@QVersitContactExporterPrivate@QtMobility@@IAEXAAVQVersitProperty@2@ABVQContactDetail@2@@Z @ 69 NONAME ABSENT ; void QtMobility::QVersitContactExporterPrivate::encodeBirthDay(class QtMobility::QVersitProperty &, class QtMobility::QContactDetail const &)
	?removeProperties@QVersitDocument@QtMobility@@QAEXABVQString@@@Z @ 70 NONAME ; void QtMobility::QVersitDocument::removeProperties(class QString const &)
	?importContact@QVersitContactImporter@QtMobility@@QAE?AVQContact@2@ABVQVersitDocument@2@@Z @ 71 NONAME ; class QtMobility::QContact QtMobility::QVersitContactImporter::importContact(class QtMobility::QVersitDocument const &)
	?extractPart@VersitUtils@QtMobility@@SA?AVQByteArray@@ABV3@HH@Z @ 72 NONAME ABSENT ; class QByteArray QtMobility::VersitUtils::extractPart(class QByteArray const &, int, int)
	?trUtf8@QVersitContactExporterPrivate@QtMobility@@SA?AVQString@@PBD0@Z @ 73 NONAME ABSENT ; class QString QtMobility::QVersitContactExporterPrivate::trUtf8(char const *, char const *)
	?extractParts@VersitUtils@QtMobility@@SA?AV?$QList@VQByteArray@@@@ABVQByteArray@@D@Z @ 74 NONAME ABSENT ; class QList<class QByteArray> QtMobility::VersitUtils::extractParts(class QByteArray const &, char)
	?encodeParameters@QVersitContactExporterPrivate@QtMobility@@IAEXAAVQVersitProperty@2@ABVQStringList@@1@Z @ 75 NONAME ABSENT ; void QtMobility::QVersitContactExporterPrivate::encodeParameters(class QtMobility::QVersitProperty &, class QStringList const &, class QStringList const &)
	?removeParameter@QVersitProperty@QtMobility@@QAEXABVQString@@0@Z @ 76 NONAME ; void QtMobility::QVersitProperty::removeParameter(class QString const &, class QString const &)
	?escape@QVersitContactExporterPrivate@QtMobility@@IAE?AVQByteArray@@ABV3@@Z @ 77 NONAME ABSENT ; class QByteArray QtMobility::QVersitContactExporterPrivate::escape(class QByteArray const &)
	?unknownContactDetails@QVersitContactExporter@QtMobility@@QAE?AV?$QList@VQContactDetail@QtMobility@@@@XZ @ 78 NONAME ; class QList<class QtMobility::QContactDetail> QtMobility::QVersitContactExporter::unknownContactDetails(void)
	?exportContact@QVersitContactExporterPrivate@QtMobility@@QAEXAAVQVersitDocument@2@ABVQContact@2@@Z @ 79 NONAME ABSENT ; void QtMobility::QVersitContactExporterPrivate::exportContact(class QtMobility::QVersitDocument &, class QtMobility::QContact const &)
	?backSlashEscape@VersitUtils@QtMobility@@SA_NAAVQByteArray@@@Z @ 80 NONAME ABSENT ; bool QtMobility::VersitUtils::backSlashEscape(class QByteArray &)
	?versitType@QVersitDocument@QtMobility@@QBE?AW4VersitType@12@XZ @ 81 NONAME ; enum QtMobility::QVersitDocument::VersitType QtMobility::QVersitDocument::versitType(void) const
	?encodeOnlineAccount@QVersitContactExporterPrivate@QtMobility@@IAE_NAAVQVersitProperty@2@ABVQContactDetail@2@@Z @ 82 NONAME ABSENT ; bool QtMobility::QVersitContactExporterPrivate::encodeOnlineAccount(class QtMobility::QVersitProperty &, class QtMobility::QContactDetail const &)
	?encodeName@QVersitContactExporterPrivate@QtMobility@@IAEXAAVQVersitProperty@2@ABVQContactDetail@2@@Z @ 83 NONAME ABSENT ; void QtMobility::QVersitContactExporterPrivate::encodeName(class QtMobility::QVersitProperty &, class QtMobility::QContactDetail const &)
	??1QVersitWriterPrivate@QtMobility@@UAE@XZ @ 84 NONAME ABSENT ; QtMobility::QVersitWriterPrivate::~QVersitWriterPrivate(void)
	??1QVersitWriter@QtMobility@@UAE@XZ @ 85 NONAME ; QtMobility::QVersitWriter::~QVersitWriter(void)
	?setGroups@QVersitProperty@QtMobility@@QAEXABVQStringList@@@Z @ 86 NONAME ; void QtMobility::QVersitProperty::setGroups(class QStringList const &)
	??0QVCard30Writer@QtMobility@@QAE@XZ @ 87 NONAME ABSENT ; QtMobility::QVCard30Writer::QVCard30Writer(void)
	?setEmbeddedDocument@QVersitProperty@QtMobility@@QAEXABVQVersitDocument@2@@Z @ 88 NONAME ; void QtMobility::QVersitProperty::setEmbeddedDocument(class QtMobility::QVersitDocument const &)
	?paramValue@VersitUtils@QtMobility@@SA?AVQByteArray@@ABV3@@Z @ 89 NONAME ABSENT ; class QByteArray QtMobility::VersitUtils::paramValue(class QByteArray const &)
	?encodeRev@QVersitContactExporterPrivate@QtMobility@@IAE_NAAVQVersitProperty@2@ABVQContactDetail@2@@Z @ 90 NONAME ABSENT ; bool QtMobility::QVersitContactExporterPrivate::encodeRev(class QtMobility::QVersitProperty &, class QtMobility::QContactDetail const &)
	?setImagePath@QVersitContactImporter@QtMobility@@QAEXABVQString@@@Z @ 91 NONAME ; void QtMobility::QVersitContactImporter::setImagePath(class QString const &)
	?groups@QVersitProperty@QtMobility@@QBE?AVQStringList@@XZ @ 92 NONAME ; class QStringList QtMobility::QVersitProperty::groups(void) const
	?setValue@QVersitProperty@QtMobility@@QAEXABVQByteArray@@@Z @ 93 NONAME ; void QtMobility::QVersitProperty::setValue(class QByteArray const &)
	??0QVersitDocument@QtMobility@@QAE@ABV01@@Z @ 94 NONAME ; QtMobility::QVersitDocument::QVersitDocument(class QtMobility::QVersitDocument const &)
	?tr@QVersitContactExporterPrivate@QtMobility@@SA?AVQString@@PBD0H@Z @ 95 NONAME ABSENT ; class QString QtMobility::QVersitContactExporterPrivate::tr(char const *, char const *, int)
	?isValidRemoteUrl@QVersitContactExporterPrivate@QtMobility@@IAE_NABVQString@@@Z @ 96 NONAME ABSENT ; bool QtMobility::QVersitContactExporterPrivate::isValidRemoteUrl(class QString const &)
	?tr@QVersitWriterPrivate@QtMobility@@SA?AVQString@@PBD0@Z @ 97 NONAME ABSENT ; class QString QtMobility::QVersitWriterPrivate::tr(char const *, char const *)
	?writeAll@QVersitWriter@QtMobility@@QAE_NXZ @ 98 NONAME ; bool QtMobility::QVersitWriter::writeAll(void)
	?run@QVersitWriterPrivate@QtMobility@@MAEXXZ @ 99 NONAME ABSENT ; void QtMobility::QVersitWriterPrivate::run(void)
	?encodeAddress@QVersitContactExporterPrivate@QtMobility@@IAEXAAVQVersitProperty@2@ABVQContactDetail@2@@Z @ 100 NONAME ABSENT ; void QtMobility::QVersitContactExporterPrivate::encodeAddress(class QtMobility::QVersitProperty &, class QtMobility::QContactDetail const &)
	?tr@QVersitContactExporterPrivate@QtMobility@@SA?AVQString@@PBD0@Z @ 101 NONAME ABSENT ; class QString QtMobility::QVersitContactExporterPrivate::tr(char const *, char const *)
	?getStaticMetaObject@QVersitContactExporterPrivate@QtMobility@@SAABUQMetaObject@@XZ @ 102 NONAME ABSENT ; struct QMetaObject const & QtMobility::QVersitContactExporterPrivate::getStaticMetaObject(void)
	?trUtf8@QVersitWriter@QtMobility@@SA?AVQString@@PBD0@Z @ 103 NONAME ; class QString QtMobility::QVersitWriter::trUtf8(char const *, char const *)
	?findHardLineBreakInQuotedPrintable@VersitUtils@QtMobility@@SAHABVQByteArray@@@Z @ 104 NONAME ABSENT ; int QtMobility::VersitUtils::findHardLineBreakInQuotedPrintable(class QByteArray const &)
	??0QVersitDocument@QtMobility@@QAE@XZ @ 105 NONAME ; QtMobility::QVersitDocument::QVersitDocument(void)
	?setDevice@QVersitReader@QtMobility@@QAEXPAVQIODevice@@@Z @ 106 NONAME ; void QtMobility::QVersitReader::setDevice(class QIODevice *)
	?tr@QVersitReader@QtMobility@@SA?AVQString@@PBD0@Z @ 107 NONAME ; class QString QtMobility::QVersitReader::tr(char const *, char const *)
	?exportContact@QVersitContactExporter@QtMobility@@QAE?AVQVersitDocument@2@ABVQContact@2@W4VersitType@32@@Z @ 108 NONAME ; class QtMobility::QVersitDocument QtMobility::QVersitContactExporter::exportContact(class QtMobility::QContact const &, enum QtMobility::QVersitDocument::VersitType)
	?getStaticMetaObject@QVersitReader@QtMobility@@SAABUQMetaObject@@XZ @ 109 NONAME ; struct QMetaObject const & QtMobility::QVersitReader::getStaticMetaObject(void)
	?paramName@VersitUtils@QtMobility@@SA?AVQByteArray@@ABV3@@Z @ 110 NONAME ABSENT ; class QByteArray QtMobility::VersitUtils::paramName(class QByteArray const &)
	?parseNextVersitProperty@QVersitReaderPrivate@QtMobility@@QAE?AVQVersitProperty@2@W4VersitType@QVersitDocument@2@AAVQByteArray@@@Z @ 111 NONAME ABSENT ; class QtMobility::QVersitProperty QtMobility::QVersitReaderPrivate::parseNextVersitProperty(enum QtMobility::QVersitDocument::VersitType, class QByteArray &)
	?readAll@QVersitReader@QtMobility@@QAE_NXZ @ 112 NONAME ; bool QtMobility::QVersitReader::readAll(void)
	??4QVersitDocument@QtMobility@@QAEAAV01@ABV01@@Z @ 113 NONAME ; class QtMobility::QVersitDocument & QtMobility::QVersitDocument::operator=(class QtMobility::QVersitDocument const &)
	??0QVersitReaderPrivate@QtMobility@@QAE@XZ @ 114 NONAME ABSENT ; QtMobility::QVersitReaderPrivate::QVersitReaderPrivate(void)
	?encodeVersitProperty@QVCard21Writer@QtMobility@@MAE?AVQByteArray@@ABVQVersitProperty@2@@Z @ 115 NONAME ABSENT ; class QByteArray QtMobility::QVCard21Writer::encodeVersitProperty(class QtMobility::QVersitProperty const &)
	??1QVersitContactImporter@QtMobility@@QAE@XZ @ 116 NONAME ; QtMobility::QVersitContactImporter::~QVersitContactImporter(void)
	?encodeGender@QVersitContactExporterPrivate@QtMobility@@IAEXAAVQVersitProperty@2@ABVQContactDetail@2@@Z @ 117 NONAME ABSENT ; void QtMobility::QVersitContactExporterPrivate::encodeGender(class QtMobility::QVersitProperty &, class QtMobility::QContactDetail const &)
	??1QVersitContactExporterPrivate@QtMobility@@UAE@XZ @ 118 NONAME ABSENT ; QtMobility::QVersitContactExporterPrivate::~QVersitContactExporterPrivate(void)
	?isReady@QVersitReaderPrivate@QtMobility@@QBE_NXZ @ 119 NONAME ABSENT ; bool QtMobility::QVersitReaderPrivate::isReady(void) const
	?qt_metacall@QVersitWriterPrivate@QtMobility@@UAEHW4Call@QMetaObject@@HPAPAX@Z @ 120 NONAME ABSENT ; int QtMobility::QVersitWriterPrivate::qt_metacall(enum QMetaObject::Call, int, void * *)
	?tr@QVersitContactExporter@QtMobility@@SA?AVQString@@PBD0@Z @ 121 NONAME ; class QString QtMobility::QVersitContactExporter::tr(char const *, char const *)
	??0QVersitProperty@QtMobility@@QAE@XZ @ 122 NONAME ; QtMobility::QVersitProperty::QVersitProperty(void)
	??1QVersitReader@QtMobility@@UAE@XZ @ 123 NONAME ; QtMobility::QVersitReader::~QVersitReader(void)
	?addProperty@QVersitDocument@QtMobility@@QAEXABVQVersitProperty@2@@Z @ 124 NONAME ; void QtMobility::QVersitDocument::addProperty(class QtMobility::QVersitProperty const &)
	?extractPropertyValue@VersitUtils@QtMobility@@SA?AVQByteArray@@ABV3@@Z @ 125 NONAME ABSENT ; class QByteArray QtMobility::VersitUtils::extractPropertyValue(class QByteArray const &)
	?tr@QVersitReaderPrivate@QtMobility@@SA?AVQString@@PBD0@Z @ 126 NONAME ABSENT ; class QString QtMobility::QVersitReaderPrivate::tr(char const *, char const *)
	?encodePhoneNumber@QVersitContactExporterPrivate@QtMobility@@IAEXAAVQVersitProperty@2@ABVQContactDetail@2@@Z @ 127 NONAME ABSENT ; void QtMobility::QVersitContactExporterPrivate::encodePhoneNumber(class QtMobility::QVersitProperty &, class QtMobility::QContactDetail const &)
	?encodeUrl@QVersitContactExporterPrivate@QtMobility@@IAEXAAVQVersitProperty@2@ABVQContactDetail@2@@Z @ 128 NONAME ABSENT ; void QtMobility::QVersitContactExporterPrivate::encodeUrl(class QtMobility::QVersitProperty &, class QtMobility::QContactDetail const &)
	??_EQVersitWriter@QtMobility@@UAE@I@Z @ 129 NONAME ; QtMobility::QVersitWriter::~QVersitWriter(unsigned int)
	?encodeEmail@QVersitContactExporterPrivate@QtMobility@@IAEXAAVQVersitProperty@2@ABVQContactDetail@2@@Z @ 130 NONAME ABSENT ; void QtMobility::QVersitContactExporterPrivate::encodeEmail(class QtMobility::QVersitProperty &, class QtMobility::QContactDetail const &)
	?staticMetaObject@QVersitWriter@QtMobility@@2UQMetaObject@@B @ 131 NONAME ; struct QMetaObject const QtMobility::QVersitWriter::staticMetaObject
	?properties@QVersitDocument@QtMobility@@QBE?AV?$QList@VQVersitProperty@QtMobility@@@@XZ @ 132 NONAME ; class QList<class QtMobility::QVersitProperty> QtMobility::QVersitDocument::properties(void) const
	??_EQVCard30Writer@QtMobility@@UAE@I@Z @ 133 NONAME ABSENT ; QtMobility::QVCard30Writer::~QVCard30Writer(unsigned int)
	?countLeadingWhiteSpaces@VersitUtils@QtMobility@@SAHABVQByteArray@@H@Z @ 134 NONAME ABSENT ; int QtMobility::VersitUtils::countLeadingWhiteSpaces(class QByteArray const &, int)
	?device@QVersitReader@QtMobility@@QBEPAVQIODevice@@XZ @ 135 NONAME ; class QIODevice * QtMobility::QVersitReader::device(void) const
	?parseVCard30Property@QVersitReaderPrivate@QtMobility@@QAEXAAVQByteArray@@AAVQVersitProperty@2@@Z @ 136 NONAME ABSENT ; void QtMobility::QVersitReaderPrivate::parseVCard30Property(class QByteArray &, class QtMobility::QVersitProperty &)
	?staticMetaObject@QVersitContactExporterPrivate@QtMobility@@2UQMetaObject@@B @ 137 NONAME ABSENT ; struct QMetaObject const QtMobility::QVersitContactExporterPrivate::staticMetaObject
	?quotedPrintableEncode@VersitUtils@QtMobility@@SA_NAAVQByteArray@@@Z @ 138 NONAME ABSENT ; bool QtMobility::VersitUtils::quotedPrintableEncode(class QByteArray &)
	?staticMetaObject@QVersitContactExporter@QtMobility@@2UQMetaObject@@B @ 139 NONAME ; struct QMetaObject const QtMobility::QVersitContactExporter::staticMetaObject
	?staticMetaObject@QVersitReader@QtMobility@@2UQMetaObject@@B @ 140 NONAME ; struct QMetaObject const QtMobility::QVersitReader::staticMetaObject
	??0QVersitWriter@QtMobility@@QAE@XZ @ 141 NONAME ; QtMobility::QVersitWriter::QVersitWriter(void)
	?parseVersitDocument@QVersitReaderPrivate@QtMobility@@QAE_NAAVQByteArray@@AAVQVersitDocument@2@@Z @ 142 NONAME ABSENT ; bool QtMobility::QVersitReaderPrivate::parseVersitDocument(class QByteArray &, class QtMobility::QVersitDocument &)
	?encodeFamily@QVersitContactExporterPrivate@QtMobility@@IAE_NAAVQVersitDocument@2@ABVQContactDetail@2@@Z @ 143 NONAME ABSENT ; bool QtMobility::QVersitContactExporterPrivate::encodeFamily(class QtMobility::QVersitDocument &, class QtMobility::QContactDetail const &)
	?isReady@QVersitWriterPrivate@QtMobility@@QBE_NXZ @ 144 NONAME ABSENT ; bool QtMobility::QVersitWriterPrivate::isReady(void) const
	?encodeGroupsAndName@QVersitWriterPrivate@QtMobility@@IBE?AVQByteArray@@ABVQVersitProperty@2@@Z @ 145 NONAME ABSENT ; class QByteArray QtMobility::QVersitWriterPrivate::encodeGroupsAndName(class QtMobility::QVersitProperty const &) const
	?qt_metacall@QVersitReaderPrivate@QtMobility@@UAEHW4Call@QMetaObject@@HPAPAX@Z @ 146 NONAME ABSENT ; int QtMobility::QVersitReaderPrivate::qt_metacall(enum QMetaObject::Call, int, void * *)
	??_EQVersitContactExporterPrivate@QtMobility@@UAE@I@Z @ 147 NONAME ABSENT ; QtMobility::QVersitContactExporterPrivate::~QVersitContactExporterPrivate(unsigned int)
	??4QVersitProperty@QtMobility@@QAEAAV01@ABV01@@Z @ 148 NONAME ; class QtMobility::QVersitProperty & QtMobility::QVersitProperty::operator=(class QtMobility::QVersitProperty const &)
	?metaObject@QVersitContactExporterPrivate@QtMobility@@UBEPBUQMetaObject@@XZ @ 149 NONAME ABSENT ; struct QMetaObject const * QtMobility::QVersitContactExporterPrivate::metaObject(void) const
	??0QVersitWriterPrivate@QtMobility@@AAE@XZ @ 150 NONAME ABSENT ; QtMobility::QVersitWriterPrivate::QVersitWriterPrivate(void)
	?startReading@QVersitReader@QtMobility@@QAE_NXZ @ 151 NONAME ; bool QtMobility::QVersitReader::startReading(void)
	?shouldBeQuotedPrintableEncoded@VersitUtils@QtMobility@@SA_ND@Z @ 152 NONAME ABSENT ; bool QtMobility::VersitUtils::shouldBeQuotedPrintableEncoded(char)
	?tr@QVersitWriterPrivate@QtMobility@@SA?AVQString@@PBD0H@Z @ 153 NONAME ABSENT ; class QString QtMobility::QVersitWriterPrivate::tr(char const *, char const *, int)
	?trUtf8@QVersitContactExporterPrivate@QtMobility@@SA?AVQString@@PBD0H@Z @ 154 NONAME ABSENT ; class QString QtMobility::QVersitContactExporterPrivate::trUtf8(char const *, char const *, int)
	?parseAgentProperty@QVersitReaderPrivate@QtMobility@@QAEXAAVQByteArray@@AAVQVersitProperty@2@@Z @ 155 NONAME ABSENT ; void QtMobility::QVersitReaderPrivate::parseAgentProperty(class QByteArray &, class QtMobility::QVersitProperty &)
	??0QVersitContactImporter@QtMobility@@QAE@XZ @ 156 NONAME ; QtMobility::QVersitContactImporter::QVersitContactImporter(void)
	?qt_metacast@QVersitContactExporter@QtMobility@@UAEPAXPBD@Z @ 157 NONAME ; void * QtMobility::QVersitContactExporter::qt_metacast(char const *)
	?value@QVersitProperty@QtMobility@@QBE?AVQByteArray@@XZ @ 158 NONAME ; class QByteArray QtMobility::QVersitProperty::value(void) const
	??0QVersitContactExporterPrivate@QtMobility@@QAE@XZ @ 159 NONAME ABSENT ; QtMobility::QVersitContactExporterPrivate::QVersitContactExporterPrivate(void)
	?startWriting@QVersitWriter@QtMobility@@QAE_NXZ @ 160 NONAME ; bool QtMobility::QVersitWriter::startWriting(void)
	?staticMetaObject@QVersitReaderPrivate@QtMobility@@2UQMetaObject@@B @ 161 NONAME ABSENT ; struct QMetaObject const QtMobility::QVersitReaderPrivate::staticMetaObject
	?setName@QVersitProperty@QtMobility@@QAEXABVQString@@@Z @ 162 NONAME ; void QtMobility::QVersitProperty::setName(class QString const &)
	?embeddedDocument@QVersitProperty@QtMobility@@QBE?AVQVersitDocument@2@XZ @ 163 NONAME ; class QtMobility::QVersitDocument QtMobility::QVersitProperty::embeddedDocument(void) const
	??1QVersitReaderPrivate@QtMobility@@UAE@XZ @ 164 NONAME ABSENT ; QtMobility::QVersitReaderPrivate::~QVersitReaderPrivate(void)
	?write@QVersitWriterPrivate@QtMobility@@QAE_NXZ @ 165 NONAME ABSENT ; bool QtMobility::QVersitWriterPrivate::write(void)
	?unknownVersitProperties@QVersitContactImporter@QtMobility@@QAE?AV?$QList@VQVersitProperty@QtMobility@@@@XZ @ 166 NONAME ; class QList<class QtMobility::QVersitProperty> QtMobility::QVersitContactImporter::unknownVersitProperties(void)
	?qt_metacast@QVersitReader@QtMobility@@UAEPAXPBD@Z @ 167 NONAME ; void * QtMobility::QVersitReader::qt_metacast(char const *)
	?qt_metacall@QVersitWriter@QtMobility@@UAEHW4Call@QMetaObject@@HPAPAX@Z @ 168 NONAME ; int QtMobility::QVersitWriter::qt_metacall(enum QMetaObject::Call, int, void * *)
	?readingDone@QVersitReader@QtMobility@@IAEXXZ @ 169 NONAME ; void QtMobility::QVersitReader::readingDone(void)
	?parameters@QVersitProperty@QtMobility@@QBE?AV?$QMultiHash@VQString@@V1@@@XZ @ 170 NONAME ; class QMultiHash<class QString, class QString> QtMobility::QVersitProperty::parameters(void) const
	?trUtf8@QVersitWriterPrivate@QtMobility@@SA?AVQString@@PBD0H@Z @ 171 NONAME ABSENT ; class QString QtMobility::QVersitWriterPrivate::trUtf8(char const *, char const *, int)
	??0QVersitContactExporter@QtMobility@@QAE@XZ @ 172 NONAME ; QtMobility::QVersitContactExporter::QVersitContactExporter(void)
	?tr@QVersitReaderPrivate@QtMobility@@SA?AVQString@@PBD0H@Z @ 173 NONAME ABSENT ; class QString QtMobility::QVersitReaderPrivate::tr(char const *, char const *, int)
	?encodeParameters@QVCard30Writer@QtMobility@@MBE?AVQByteArray@@ABV?$QMultiHash@VQString@@V1@@@@Z @ 174 NONAME ABSENT ; class QByteArray QtMobility::QVCard30Writer::encodeParameters(class QMultiHash<class QString, class QString> const &) const
	?fold@VersitUtils@QtMobility@@SA?AVQByteArray@@AAV3@H@Z @ 175 NONAME ABSENT ; class QByteArray QtMobility::VersitUtils::fold(class QByteArray &, int)
	??0QVersitReader@QtMobility@@QAE@XZ @ 176 NONAME ; QtMobility::QVersitReader::QVersitReader(void)
	?addParameter@QVersitProperty@QtMobility@@QAEXABVQString@@0@Z @ 177 NONAME ; void QtMobility::QVersitProperty::addParameter(class QString const &, class QString const &)
	?setAudioClipPath@QVersitContactImporter@QtMobility@@QAEXABVQString@@@Z @ 178 NONAME ; void QtMobility::QVersitContactImporter::setAudioClipPath(class QString const &)
	?extractVCard21PropertyParams@VersitUtils@QtMobility@@SA?AV?$QMultiHash@VQString@@V1@@@ABVQByteArray@@@Z @ 179 NONAME ABSENT ; class QMultiHash<class QString, class QString> QtMobility::VersitUtils::extractVCard21PropertyParams(class QByteArray const &)
	?qt_metacast@QVersitWriterPrivate@QtMobility@@UAEPAXPBD@Z @ 180 NONAME ABSENT ; void * QtMobility::QVersitWriterPrivate::qt_metacast(char const *)
	?read@QVersitReaderPrivate@QtMobility@@QAE_NXZ @ 181 NONAME ABSENT ; bool QtMobility::QVersitReaderPrivate::read(void)
	?setVersitType@QVersitDocument@QtMobility@@QAEXW4VersitType@12@@Z @ 182 NONAME ; void QtMobility::QVersitDocument::setVersitType(enum QtMobility::QVersitDocument::VersitType)
	?run@QVersitReaderPrivate@QtMobility@@MAEXXZ @ 183 NONAME ABSENT ; void QtMobility::QVersitReaderPrivate::run(void)
	?metaObject@QVersitWriter@QtMobility@@UBEPBUQMetaObject@@XZ @ 184 NONAME ; struct QMetaObject const * QtMobility::QVersitWriter::metaObject(void) const
	?trUtf8@QVersitWriterPrivate@QtMobility@@SA?AVQString@@PBD0@Z @ 185 NONAME ABSENT ; class QString QtMobility::QVersitWriterPrivate::trUtf8(char const *, char const *)
	?trUtf8@QVersitReader@QtMobility@@SA?AVQString@@PBD0@Z @ 186 NONAME ; class QString QtMobility::QVersitReader::trUtf8(char const *, char const *)
	?setEscapedValue@QVersitContactExporterPrivate@QtMobility@@IAEXAAVQVersitProperty@2@ABVQString@@@Z @ 187 NONAME ABSENT ; void QtMobility::QVersitContactExporterPrivate::setEscapedValue(class QtMobility::QVersitProperty &, class QString const &)
	?qt_metacall@QVersitContactExporter@QtMobility@@UAEHW4Call@QMetaObject@@HPAPAX@Z @ 188 NONAME ; int QtMobility::QVersitContactExporter::qt_metacall(enum QMetaObject::Call, int, void * *)
	?trUtf8@QVersitReaderPrivate@QtMobility@@SA?AVQString@@PBD0H@Z @ 189 NONAME ABSENT ; class QString QtMobility::QVersitReaderPrivate::trUtf8(char const *, char const *, int)
	?encodeAnniversary@QVersitContactExporterPrivate@QtMobility@@IAEXAAVQVersitProperty@2@ABVQContactDetail@2@@Z @ 190 NONAME ABSENT ; void QtMobility::QVersitContactExporterPrivate::encodeAnniversary(class QtMobility::QVersitProperty &, class QtMobility::QContactDetail const &)

