EXPORTS
	_ZN10QtMobility13QVersitReader11qt_metacallEN11QMetaObject4CallEiPPv @ 1 NONAME
	_ZN10QtMobility13QVersitReader11qt_metacastEPKc @ 2 NONAME
	_ZN10QtMobility13QVersitReader12startReadingEv @ 3 NONAME
	_ZN10QtMobility13QVersitReader12stateChangedENS0_5StateE @ 4 NONAME
	_ZN10QtMobility13QVersitReader15setDefaultCodecEP10QTextCodec @ 5 NONAME
	_ZN10QtMobility13QVersitReader15waitForFinishedEi @ 6 NONAME
	_ZN10QtMobility13QVersitReader16resultsAvailableER5QListINS_15QVersitDocumentEE @ 7 NONAME
	_ZN10QtMobility13QVersitReader16resultsAvailableEv @ 8 NONAME
	_ZN10QtMobility13QVersitReader16staticMetaObjectE @ 9 NONAME DATA 16
	_ZN10QtMobility13QVersitReader19getStaticMetaObjectEv @ 10 NONAME
	_ZN10QtMobility13QVersitReader6cancelEv @ 11 NONAME
	_ZN10QtMobility13QVersitReader7readAllEv @ 12 NONAME
	_ZN10QtMobility13QVersitReader9setDeviceEP9QIODevice @ 13 NONAME
	_ZN10QtMobility13QVersitReaderC1Ev @ 14 NONAME
	_ZN10QtMobility13QVersitReaderC2Ev @ 15 NONAME
	_ZN10QtMobility13QVersitReaderD0Ev @ 16 NONAME
	_ZN10QtMobility13QVersitReaderD1Ev @ 17 NONAME
	_ZN10QtMobility13QVersitReaderD2Ev @ 18 NONAME
	_ZN10QtMobility13QVersitWriter11qt_metacallEN11QMetaObject4CallEiPPv @ 19 NONAME
	_ZN10QtMobility13QVersitWriter11qt_metacastEPKc @ 20 NONAME
	_ZN10QtMobility13QVersitWriter12startWritingERK5QListINS_15QVersitDocumentEE @ 21 NONAME
	_ZN10QtMobility13QVersitWriter12startWritingEv @ 22 NONAME
	_ZN10QtMobility13QVersitWriter12stateChangedENS0_5StateE @ 23 NONAME
	_ZN10QtMobility13QVersitWriter15setDefaultCodecEP10QTextCodec @ 24 NONAME
	_ZN10QtMobility13QVersitWriter15waitForFinishedEi @ 25 NONAME
	_ZN10QtMobility13QVersitWriter16staticMetaObjectE @ 26 NONAME DATA 16
	_ZN10QtMobility13QVersitWriter17setVersitDocumentERKNS_15QVersitDocumentE @ 27 NONAME
	_ZN10QtMobility13QVersitWriter19getStaticMetaObjectEv @ 28 NONAME
	_ZN10QtMobility13QVersitWriter6cancelEv @ 29 NONAME
	_ZN10QtMobility13QVersitWriter8writeAllEv @ 30 NONAME
	_ZN10QtMobility13QVersitWriter9setDeviceEP9QIODevice @ 31 NONAME
	_ZN10QtMobility13QVersitWriterC1Ev @ 32 NONAME
	_ZN10QtMobility13QVersitWriterC2Ev @ 33 NONAME
	_ZN10QtMobility13QVersitWriterD0Ev @ 34 NONAME
	_ZN10QtMobility13QVersitWriterD1Ev @ 35 NONAME
	_ZN10QtMobility13QVersitWriterD2Ev @ 36 NONAME
	_ZN10QtMobility15QVersitDocument11addPropertyERKNS_15QVersitPropertyE @ 37 NONAME
	_ZN10QtMobility15QVersitDocument13setVersitTypeENS0_10VersitTypeE @ 38 NONAME
	_ZN10QtMobility15QVersitDocument14removePropertyERKNS_15QVersitPropertyE @ 39 NONAME
	_ZN10QtMobility15QVersitDocument16removePropertiesERK7QString @ 40 NONAME
	_ZN10QtMobility15QVersitDocument5clearEv @ 41 NONAME
	_ZN10QtMobility15QVersitDocument7setTypeENS0_10VersitTypeE @ 42 NONAME
	_ZN10QtMobility15QVersitDocumentC1ERKS0_ @ 43 NONAME
	_ZN10QtMobility15QVersitDocumentC1Ev @ 44 NONAME
	_ZN10QtMobility15QVersitDocumentC2ERKS0_ @ 45 NONAME
	_ZN10QtMobility15QVersitDocumentC2Ev @ 46 NONAME
	_ZN10QtMobility15QVersitDocumentD1Ev @ 47 NONAME
	_ZN10QtMobility15QVersitDocumentD2Ev @ 48 NONAME
	_ZN10QtMobility15QVersitDocumentaSERKS0_ @ 49 NONAME
	_ZN10QtMobility15QVersitProperty12addParameterERK7QStringS3_ @ 50 NONAME
	_ZN10QtMobility15QVersitProperty13setParametersERK10QMultiHashI7QStringS2_E @ 51 NONAME
	_ZN10QtMobility15QVersitProperty15insertParameterERK7QStringS3_ @ 52 NONAME
	_ZN10QtMobility15QVersitProperty15removeParameterERK7QStringS3_ @ 53 NONAME
	_ZN10QtMobility15QVersitProperty16removeParametersERK7QString @ 54 NONAME
	_ZN10QtMobility15QVersitProperty19setEmbeddedDocumentERKNS_15QVersitDocumentE @ 55 NONAME
	_ZN10QtMobility15QVersitProperty5clearEv @ 56 NONAME
	_ZN10QtMobility15QVersitProperty7setNameERK7QString @ 57 NONAME
	_ZN10QtMobility15QVersitProperty8setValueERK8QVariant @ 58 NONAME
	_ZN10QtMobility15QVersitProperty9setGroupsERK11QStringList @ 59 NONAME
	_ZN10QtMobility15QVersitPropertyC1ERKS0_ @ 60 NONAME
	_ZN10QtMobility15QVersitPropertyC1Ev @ 61 NONAME
	_ZN10QtMobility15QVersitPropertyC2ERKS0_ @ 62 NONAME
	_ZN10QtMobility15QVersitPropertyC2Ev @ 63 NONAME
	_ZN10QtMobility15QVersitPropertyD1Ev @ 64 NONAME
	_ZN10QtMobility15QVersitPropertyD2Ev @ 65 NONAME
	_ZN10QtMobility15QVersitPropertyaSERKS0_ @ 66 NONAME
	_ZN10QtMobility22QVersitContactExporter13exportContactERKNS_8QContactENS_15QVersitDocument10VersitTypeE @ 67 NONAME
	_ZN10QtMobility22QVersitContactExporter14exportContactsERK5QListINS_8QContactEENS_15QVersitDocument10VersitTypeE @ 68 NONAME
	_ZN10QtMobility22QVersitContactExporter16setDetailHandlerEPNS_35QVersitContactExporterDetailHandlerE @ 69 NONAME
	_ZN10QtMobility22QVersitContactExporter18setResourceHandlerEPNS_22QVersitResourceHandlerE @ 70 NONAME
	_ZN10QtMobility22QVersitContactExporter21unknownContactDetailsEv @ 71 NONAME
	_ZN10QtMobility22QVersitContactExporterC1Ev @ 72 NONAME
	_ZN10QtMobility22QVersitContactExporterC2Ev @ 73 NONAME
	_ZN10QtMobility22QVersitContactExporterD1Ev @ 74 NONAME
	_ZN10QtMobility22QVersitContactExporterD2Ev @ 75 NONAME
	_ZN10QtMobility22QVersitContactImporter12setImagePathERK7QString @ 76 NONAME
	_ZN10QtMobility22QVersitContactImporter13importContactERKNS_15QVersitDocumentE @ 77 NONAME
	_ZN10QtMobility22QVersitContactImporter14importContactsERK5QListINS_15QVersitDocumentEE @ 78 NONAME
	_ZN10QtMobility22QVersitContactImporter16setAudioClipPathERK7QString @ 79 NONAME
	_ZN10QtMobility22QVersitContactImporter18setPropertyHandlerEPNS_37QVersitContactImporterPropertyHandlerE @ 80 NONAME
	_ZN10QtMobility22QVersitContactImporter18setResourceHandlerEPNS_22QVersitResourceHandlerE @ 81 NONAME
	_ZN10QtMobility22QVersitContactImporter23unknownVersitPropertiesEv @ 82 NONAME
	_ZN10QtMobility22QVersitContactImporterC1Ev @ 83 NONAME
	_ZN10QtMobility22QVersitContactImporterC2Ev @ 84 NONAME
	_ZN10QtMobility22QVersitContactImporterD1Ev @ 85 NONAME
	_ZN10QtMobility22QVersitContactImporterD2Ev @ 86 NONAME
	_ZN10QtMobility29QVersitDefaultResourceHandler12loadResourceERK7QStringP10QByteArrayPS1_ @ 87 NONAME
	_ZN10QtMobility29QVersitDefaultResourceHandler12saveResourceERK10QByteArrayRKNS_15QVersitPropertyEP7QString @ 88 NONAME
	_ZN10QtMobility29QVersitDefaultResourceHandlerC1Ev @ 89 NONAME
	_ZN10QtMobility29QVersitDefaultResourceHandlerC2Ev @ 90 NONAME
	_ZN10QtMobility29QVersitDefaultResourceHandlerD0Ev @ 91 NONAME
	_ZN10QtMobility29QVersitDefaultResourceHandlerD1Ev @ 92 NONAME
	_ZN10QtMobility29QVersitDefaultResourceHandlerD2Ev @ 93 NONAME
	_ZNK10QtMobility13QVersitReader10metaObjectEv @ 94 NONAME
	_ZNK10QtMobility13QVersitReader12defaultCodecEv @ 95 NONAME
	_ZNK10QtMobility13QVersitReader5errorEv @ 96 NONAME
	_ZNK10QtMobility13QVersitReader5stateEv @ 97 NONAME
	_ZNK10QtMobility13QVersitReader6deviceEv @ 98 NONAME
	_ZNK10QtMobility13QVersitReader6resultEv @ 99 NONAME
	_ZNK10QtMobility13QVersitReader7resultsEv @ 100 NONAME
	_ZNK10QtMobility13QVersitWriter10metaObjectEv @ 101 NONAME
	_ZNK10QtMobility13QVersitWriter12defaultCodecEv @ 102 NONAME
	_ZNK10QtMobility13QVersitWriter14versitDocumentEv @ 103 NONAME
	_ZNK10QtMobility13QVersitWriter5errorEv @ 104 NONAME
	_ZNK10QtMobility13QVersitWriter5stateEv @ 105 NONAME
	_ZNK10QtMobility13QVersitWriter6deviceEv @ 106 NONAME
	_ZNK10QtMobility15QVersitDocument10propertiesEv @ 107 NONAME
	_ZNK10QtMobility15QVersitDocument10versitTypeEv @ 108 NONAME
	_ZNK10QtMobility15QVersitDocument4typeEv @ 109 NONAME
	_ZNK10QtMobility15QVersitDocument7isEmptyEv @ 110 NONAME
	_ZNK10QtMobility15QVersitDocumenteqERKS0_ @ 111 NONAME
	_ZNK10QtMobility15QVersitDocumentneERKS0_ @ 112 NONAME
	_ZNK10QtMobility15QVersitProperty10parametersEv @ 113 NONAME
	_ZNK10QtMobility15QVersitProperty12variantValueEv @ 114 NONAME
	_ZNK10QtMobility15QVersitProperty16embeddedDocumentEv @ 115 NONAME
	_ZNK10QtMobility15QVersitProperty4nameEv @ 116 NONAME
	_ZNK10QtMobility15QVersitProperty5valueEv @ 117 NONAME
	_ZNK10QtMobility15QVersitProperty6groupsEv @ 118 NONAME
	_ZNK10QtMobility15QVersitProperty7isEmptyEv @ 119 NONAME
	_ZNK10QtMobility15QVersitPropertyeqERKS0_ @ 120 NONAME
	_ZNK10QtMobility15QVersitPropertyneERKS0_ @ 121 NONAME
	_ZNK10QtMobility22QVersitContactExporter13detailHandlerEv @ 122 NONAME
	_ZNK10QtMobility22QVersitContactExporter15resourceHandlerEv @ 123 NONAME
	_ZNK10QtMobility22QVersitContactImporter13audioClipPathEv @ 124 NONAME
	_ZNK10QtMobility22QVersitContactImporter15propertyHandlerEv @ 125 NONAME
	_ZNK10QtMobility22QVersitContactImporter15resourceHandlerEv @ 126 NONAME
	_ZNK10QtMobility22QVersitContactImporter9imagePathEv @ 127 NONAME
	_ZTIN10QtMobility13QVersitReaderE @ 128 NONAME
	_ZTIN10QtMobility13QVersitWriterE @ 129 NONAME
	_ZTIN10QtMobility22QVersitResourceHandlerE @ 130 NONAME
	_ZTIN10QtMobility29QVersitDefaultResourceHandlerE @ 131 NONAME
	_ZTVN10QtMobility13QVersitReaderE @ 132 NONAME
	_ZTVN10QtMobility13QVersitWriterE @ 133 NONAME
	_ZTVN10QtMobility29QVersitDefaultResourceHandlerE @ 134 NONAME

