EXPORTS
	_ZN10QtMobility10QContactId10setLocalIdERKj @ 1 NONAME
	_ZN10QtMobility10QContactId13setManagerUriERK7QString @ 2 NONAME
	_ZN10QtMobility10QContactIdC1ERKS0_ @ 3 NONAME
	_ZN10QtMobility10QContactIdC1Ev @ 4 NONAME
	_ZN10QtMobility10QContactIdC2ERKS0_ @ 5 NONAME
	_ZN10QtMobility10QContactIdC2Ev @ 6 NONAME
	_ZN10QtMobility10QContactIdD1Ev @ 7 NONAME
	_ZN10QtMobility10QContactIdD2Ev @ 8 NONAME
	_ZN10QtMobility10QContactIdaSERKS0_ @ 9 NONAME
	_ZN10QtMobility11QContactTag14DefinitionNameE @ 10 NONAME DATA 4
	_ZN10QtMobility11QContactTag8FieldTagE @ 11 NONAME DATA 4
	_ZN10QtMobility11QContactUrl12FieldSubTypeE @ 12 NONAME DATA 8
	_ZN10QtMobility11QContactUrl14DefinitionNameE @ 13 NONAME DATA 4
	_ZN10QtMobility11QContactUrl15SubTypeHomePageE @ 14 NONAME DATA 9
	_ZN10QtMobility11QContactUrl16SubTypeFavouriteE @ 15 NONAME DATA 10
	_ZN10QtMobility11QContactUrl8FieldUrlE @ 16 NONAME DATA 4
	_ZN10QtMobility12QContactGuid14DefinitionNameE @ 17 NONAME DATA 5
	_ZN10QtMobility12QContactGuid9FieldGuidE @ 18 NONAME DATA 5
	_ZN10QtMobility12QContactName10FieldFirstE @ 19 NONAME DATA 10
	_ZN10QtMobility12QContactName11FieldMiddleE @ 20 NONAME DATA 11
	_ZN10QtMobility12QContactName11FieldPrefixE @ 21 NONAME DATA 7
	_ZN10QtMobility12QContactName11FieldSuffixE @ 22 NONAME DATA 7
	_ZN10QtMobility12QContactName13FieldLastNameE @ 23 NONAME DATA 9
	_ZN10QtMobility12QContactName14DefinitionNameE @ 24 NONAME DATA 5
	_ZN10QtMobility12QContactName14FieldFirstNameE @ 25 NONAME DATA 10
	_ZN10QtMobility12QContactName15FieldMiddleNameE @ 26 NONAME DATA 11
	_ZN10QtMobility12QContactName16FieldCustomLabelE @ 27 NONAME DATA 12
	_ZN10QtMobility12QContactName5matchERK7QString @ 28 NONAME
	_ZN10QtMobility12QContactName5matchERK7QStringS3_ @ 29 NONAME
	_ZN10QtMobility12QContactName9FieldLastE @ 30 NONAME DATA 9
	_ZN10QtMobility12QContactNote14DefinitionNameE @ 31 NONAME DATA 5
	_ZN10QtMobility12QContactNote9FieldNoteE @ 32 NONAME DATA 5
	_ZN10QtMobility12QContactType11TypeContactE @ 33 NONAME DATA 8
	_ZN10QtMobility12QContactType14DefinitionNameE @ 34 NONAME DATA 5
	_ZN10QtMobility12QContactType9FieldTypeE @ 35 NONAME DATA 5
	_ZN10QtMobility12QContactType9TypeGroupE @ 36 NONAME DATA 6
	_ZN10QtMobility14QContactAction11qt_metacallEN11QMetaObject4CallEiPPv @ 37 NONAME
	_ZN10QtMobility14QContactAction11qt_metacastEPKc @ 38 NONAME
	_ZN10QtMobility14QContactAction12stateChangedENS0_5StateE @ 39 NONAME
	_ZN10QtMobility14QContactAction16availableActionsERK7QStringi @ 40 NONAME
	_ZN10QtMobility14QContactAction16resultsAvailableEv @ 41 NONAME
	_ZN10QtMobility14QContactAction16staticMetaObjectE @ 42 NONAME DATA 16
	_ZN10QtMobility14QContactAction17actionDescriptorsERK7QStringS3_i @ 43 NONAME
	_ZN10QtMobility14QContactAction19getStaticMetaObjectEv @ 44 NONAME
	_ZN10QtMobility14QContactAction6actionERKNS_24QContactActionDescriptorE @ 45 NONAME
	_ZN10QtMobility14QContactActionD0Ev @ 46 NONAME
	_ZN10QtMobility14QContactActionD1Ev @ 47 NONAME
	_ZN10QtMobility14QContactActionD2Ev @ 48 NONAME
	_ZN10QtMobility14QContactAvatar10setSubTypeERK7QString @ 49 NONAME
	_ZN10QtMobility14QContactAvatar11FieldAvatarE @ 50 NONAME DATA 7
	_ZN10QtMobility14QContactAvatar12FieldSubTypeE @ 51 NONAME DATA 8
	_ZN10QtMobility14QContactAvatar12SubTypeImageE @ 52 NONAME DATA 6
	_ZN10QtMobility14QContactAvatar12SubTypeVideoE @ 53 NONAME DATA 6
	_ZN10QtMobility14QContactAvatar13FieldImageUrlE @ 54 NONAME DATA 9
	_ZN10QtMobility14QContactAvatar13FieldVideoUrlE @ 55 NONAME DATA 9
	_ZN10QtMobility14QContactAvatar14DefinitionNameE @ 56 NONAME DATA 7
	_ZN10QtMobility14QContactAvatar17FieldAvatarPixmapE @ 57 NONAME DATA 13
	_ZN10QtMobility14QContactAvatar19SubTypeTexturedMeshE @ 58 NONAME DATA 13
	_ZN10QtMobility14QContactAvatar20SubTypeAudioRingtoneE @ 59 NONAME DATA 14
	_ZN10QtMobility14QContactAvatar20SubTypeVideoRingtoneE @ 60 NONAME DATA 14
	_ZN10QtMobility14QContactAvatar9setAvatarERK7QString @ 61 NONAME
	_ZN10QtMobility14QContactAvatar9setPixmapERK7QPixmap @ 62 NONAME
	_ZN10QtMobility14QContactDetail11ContextHomeE @ 63 NONAME DATA 5
	_ZN10QtMobility14QContactDetail11ContextWorkE @ 64 NONAME DATA 5
	_ZN10QtMobility14QContactDetail11removeValueERK7QString @ 65 NONAME
	_ZN10QtMobility14QContactDetail12ContextOtherE @ 66 NONAME DATA 6
	_ZN10QtMobility14QContactDetail12FieldContextE @ 67 NONAME DATA 8
	_ZN10QtMobility14QContactDetail14FieldDetailUriE @ 68 NONAME DATA 10
	_ZN10QtMobility14QContactDetail19setPreferredActionsERK5QListINS_24QContactActionDescriptorEE @ 69 NONAME
	_ZN10QtMobility14QContactDetail21FieldLinkedDetailUrisE @ 70 NONAME DATA 17
	_ZN10QtMobility14QContactDetail6assignERKS0_RK7QString @ 71 NONAME
	_ZN10QtMobility14QContactDetail8resetKeyEv @ 72 NONAME
	_ZN10QtMobility14QContactDetail8setValueERK7QStringRK8QVariant @ 73 NONAME
	_ZN10QtMobility14QContactDetailC1ERK7QString @ 74 NONAME
	_ZN10QtMobility14QContactDetailC1ERKS0_ @ 75 NONAME
	_ZN10QtMobility14QContactDetailC1ERKS0_RK7QString @ 76 NONAME
	_ZN10QtMobility14QContactDetailC1Ev @ 77 NONAME
	_ZN10QtMobility14QContactDetailC2ERK7QString @ 78 NONAME
	_ZN10QtMobility14QContactDetailC2ERKS0_ @ 79 NONAME
	_ZN10QtMobility14QContactDetailC2ERKS0_RK7QString @ 80 NONAME
	_ZN10QtMobility14QContactDetailC2Ev @ 81 NONAME
	_ZN10QtMobility14QContactDetailD0Ev @ 82 NONAME
	_ZN10QtMobility14QContactDetailD1Ev @ 83 NONAME
	_ZN10QtMobility14QContactDetailD2Ev @ 84 NONAME
	_ZN10QtMobility14QContactDetailaSERKS0_ @ 85 NONAME
	_ZN10QtMobility14QContactFamily11FieldSpouseE @ 86 NONAME DATA 7
	_ZN10QtMobility14QContactFamily13FieldChildrenE @ 87 NONAME DATA 9
	_ZN10QtMobility14QContactFamily14DefinitionNameE @ 88 NONAME DATA 7
	_ZN10QtMobility14QContactFilterC1EPNS_21QContactFilterPrivateE @ 89 NONAME
	_ZN10QtMobility14QContactFilterC1ERKS0_ @ 90 NONAME
	_ZN10QtMobility14QContactFilterC1Ev @ 91 NONAME
	_ZN10QtMobility14QContactFilterC2EPNS_21QContactFilterPrivateE @ 92 NONAME
	_ZN10QtMobility14QContactFilterC2ERKS0_ @ 93 NONAME
	_ZN10QtMobility14QContactFilterC2Ev @ 94 NONAME
	_ZN10QtMobility14QContactFilterD0Ev @ 95 NONAME
	_ZN10QtMobility14QContactFilterD1Ev @ 96 NONAME
	_ZN10QtMobility14QContactFilterD2Ev @ 97 NONAME
	_ZN10QtMobility14QContactFilteraSERKS0_ @ 98 NONAME
	_ZN10QtMobility14QContactGender10GenderMaleE @ 99 NONAME DATA 5
	_ZN10QtMobility14QContactGender11FieldGenderE @ 100 NONAME DATA 7
	_ZN10QtMobility14QContactGender12GenderFemaleE @ 101 NONAME DATA 7
	_ZN10QtMobility14QContactGender14DefinitionNameE @ 102 NONAME DATA 7
	_ZN10QtMobility14QContactGender17GenderUnspecifiedE @ 103 NONAME DATA 12
	_ZN10QtMobility15QContactAddress11FieldRegionE @ 104 NONAME DATA 7
	_ZN10QtMobility15QContactAddress11FieldStreetE @ 105 NONAME DATA 7
	_ZN10QtMobility15QContactAddress12FieldCountryE @ 106 NONAME DATA 8
	_ZN10QtMobility15QContactAddress13FieldLocalityE @ 107 NONAME DATA 9
	_ZN10QtMobility15QContactAddress13FieldPostcodeE @ 108 NONAME DATA 9
	_ZN10QtMobility15QContactAddress13FieldSubTypesE @ 109 NONAME DATA 9
	_ZN10QtMobility15QContactAddress13SubTypeParcelE @ 110 NONAME DATA 7
	_ZN10QtMobility15QContactAddress13SubTypePostalE @ 111 NONAME DATA 7
	_ZN10QtMobility15QContactAddress14DefinitionNameE @ 112 NONAME DATA 8
	_ZN10QtMobility15QContactAddress15SubTypeDomesticE @ 113 NONAME DATA 9
	_ZN10QtMobility15QContactAddress18FieldPostOfficeBoxE @ 114 NONAME DATA 14
	_ZN10QtMobility15QContactAddress20SubTypeInternationalE @ 115 NONAME DATA 14
	_ZN10QtMobility15QContactManager11dataChangedEv @ 116 NONAME
	_ZN10QtMobility15QContactManager11qt_metacallEN11QMetaObject4CallEiPPv @ 117 NONAME
	_ZN10QtMobility15QContactManager11qt_metacastEPKc @ 118 NONAME
	_ZN10QtMobility15QContactManager11saveContactEPNS_8QContactE @ 119 NONAME
	_ZN10QtMobility15QContactManager12createEngineERK7QStringRK4QMapIS1_S1_E @ 120 NONAME
	_ZN10QtMobility15QContactManager12saveContactsEP5QListINS_8QContactEE @ 121 NONAME
	_ZN10QtMobility15QContactManager12saveContactsEP5QListINS_8QContactEEP4QMapIiNS0_5ErrorEE @ 122 NONAME
	_ZN10QtMobility15QContactManager13contactsAddedERK5QListIjE @ 123 NONAME
	_ZN10QtMobility15QContactManager13removeContactERKj @ 124 NONAME
	_ZN10QtMobility15QContactManager14removeContactsEP5QListIjE @ 125 NONAME
	_ZN10QtMobility15QContactManager14removeContactsEP5QListIjEP4QMapIiNS0_5ErrorEE @ 126 NONAME
	_ZN10QtMobility15QContactManager14removeContactsERK5QListIjEP4QMapIiNS0_5ErrorEE @ 127 NONAME
	_ZN10QtMobility15QContactManager15contactsChangedERK5QListIjE @ 128 NONAME
	_ZN10QtMobility15QContactManager15contactsRemovedERK5QListIjE @ 129 NONAME
	_ZN10QtMobility15QContactManager16saveRelationshipEPNS_20QContactRelationshipE @ 130 NONAME
	_ZN10QtMobility15QContactManager16setSelfContactIdERKj @ 131 NONAME
	_ZN10QtMobility15QContactManager16staticMetaObjectE @ 132 NONAME DATA 16
	_ZN10QtMobility15QContactManager17availableManagersEv @ 133 NONAME
	_ZN10QtMobility15QContactManager17compatibleContactERKNS_8QContactE @ 134 NONAME
	_ZN10QtMobility15QContactManager17saveRelationshipsEP5QListINS_20QContactRelationshipEE @ 135 NONAME
	_ZN10QtMobility15QContactManager17saveRelationshipsEP5QListINS_20QContactRelationshipEEP4QMapIiNS0_5ErrorEE @ 136 NONAME
	_ZN10QtMobility15QContactManager18relationshipsAddedERK5QListIjE @ 137 NONAME
	_ZN10QtMobility15QContactManager18removeRelationshipERKNS_20QContactRelationshipE @ 138 NONAME
	_ZN10QtMobility15QContactManager19getStaticMetaObjectEv @ 139 NONAME
	_ZN10QtMobility15QContactManager19removeRelationshipsERK5QListINS_20QContactRelationshipEE @ 140 NONAME
	_ZN10QtMobility15QContactManager19removeRelationshipsERK5QListINS_20QContactRelationshipEEP4QMapIiNS0_5ErrorEE @ 141 NONAME
	_ZN10QtMobility15QContactManager20relationshipsRemovedERK5QListIjE @ 142 NONAME
	_ZN10QtMobility15QContactManager20saveDetailDefinitionERKNS_24QContactDetailDefinitionERK7QString @ 143 NONAME
	_ZN10QtMobility15QContactManager20selfContactIdChangedERKjS2_ @ 144 NONAME
	_ZN10QtMobility15QContactManager22removeDetailDefinitionERK7QStringS3_ @ 145 NONAME
	_ZN10QtMobility15QContactManager7fromUriERK7QStringP7QObject @ 146 NONAME
	_ZN10QtMobility15QContactManager8buildUriERK7QStringRK4QMapIS1_S1_Ei @ 147 NONAME
	_ZN10QtMobility15QContactManager8parseUriERK7QStringPS1_P4QMapIS1_S1_E @ 148 NONAME
	_ZN10QtMobility15QContactManagerC1EP7QObject @ 149 NONAME
	_ZN10QtMobility15QContactManagerC1ERK7QStringRK4QMapIS1_S1_EP7QObject @ 150 NONAME
	_ZN10QtMobility15QContactManagerC1ERK7QStringiRK4QMapIS1_S1_EP7QObject @ 151 NONAME
	_ZN10QtMobility15QContactManagerC2EP7QObject @ 152 NONAME
	_ZN10QtMobility15QContactManagerC2ERK7QStringRK4QMapIS1_S1_EP7QObject @ 153 NONAME
	_ZN10QtMobility15QContactManagerC2ERK7QStringiRK4QMapIS1_S1_EP7QObject @ 154 NONAME
	_ZN10QtMobility15QContactManagerD0Ev @ 155 NONAME
	_ZN10QtMobility15QContactManagerD1Ev @ 156 NONAME
	_ZN10QtMobility15QContactManagerD2Ev @ 157 NONAME
	_ZN10QtMobility16QContactBirthday13FieldBirthdayE @ 158 NONAME DATA 9
	_ZN10QtMobility16QContactBirthday14DefinitionNameE @ 159 NONAME DATA 9
	_ZN10QtMobility16QContactNickname13FieldNicknameE @ 160 NONAME DATA 9
	_ZN10QtMobility16QContactNickname14DefinitionNameE @ 161 NONAME DATA 9
	_ZN10QtMobility16QContactPresence13FieldNicknameE @ 162 NONAME DATA 9
	_ZN10QtMobility16QContactPresence14DefinitionNameE @ 163 NONAME DATA 9
	_ZN10QtMobility16QContactPresence14FieldTimestampE @ 164 NONAME DATA 10
	_ZN10QtMobility16QContactPresence18FieldCustomMessageE @ 165 NONAME DATA 14
	_ZN10QtMobility16QContactPresence18FieldPresenceStateE @ 166 NONAME DATA 14
	_ZN10QtMobility16QContactPresence22FieldPresenceStateTextE @ 167 NONAME DATA 18
	_ZN10QtMobility16QContactPresence26FieldPresenceStateImageUrlE @ 168 NONAME DATA 22
	_ZN10QtMobility16QContactRingtone14DefinitionNameE @ 169 NONAME DATA 9
	_ZN10QtMobility16QContactRingtone21FieldAudioRingtoneUrlE @ 170 NONAME DATA 17
	_ZN10QtMobility16QContactRingtone21FieldVideoRingtoneUrlE @ 171 NONAME DATA 17
	_ZN10QtMobility16QContactRingtone25FieldVibrationRingtoneUrlE @ 172 NONAME DATA 21
	_ZN10QtMobility17QContactChangeSet11dataChangedEv @ 173 NONAME
	_ZN10QtMobility17QContactChangeSet11emitSignalsEPNS_21QContactManagerEngineE @ 174 NONAME
	_ZN10QtMobility17QContactChangeSet13addedContactsEv @ 175 NONAME
	_ZN10QtMobility17QContactChangeSet14setDataChangedEb @ 176 NONAME
	_ZN10QtMobility17QContactChangeSet15changedContactsEv @ 177 NONAME
	_ZN10QtMobility17QContactChangeSet15removedContactsEv @ 178 NONAME
	_ZN10QtMobility17QContactChangeSet18clearAddedContactsEv @ 179 NONAME
	_ZN10QtMobility17QContactChangeSet18insertAddedContactEj @ 180 NONAME
	_ZN10QtMobility17QContactChangeSet19insertAddedContactsERK5QListIjE @ 181 NONAME
	_ZN10QtMobility17QContactChangeSet20clearChangedContactsEv @ 182 NONAME
	_ZN10QtMobility17QContactChangeSet20clearRemovedContactsEv @ 183 NONAME
	_ZN10QtMobility17QContactChangeSet20insertChangedContactEj @ 184 NONAME
	_ZN10QtMobility17QContactChangeSet20insertRemovedContactEj @ 185 NONAME
	_ZN10QtMobility17QContactChangeSet21insertChangedContactsERK5QListIjE @ 186 NONAME
	_ZN10QtMobility17QContactChangeSet21insertRemovedContactsERK5QListIjE @ 187 NONAME
	_ZN10QtMobility17QContactChangeSet22oldAndNewSelfContactIdEv @ 188 NONAME
	_ZN10QtMobility17QContactChangeSet25setOldAndNewSelfContactIdERK5QPairIjjE @ 189 NONAME
	_ZN10QtMobility17QContactChangeSet26addedRelationshipsContactsEv @ 190 NONAME
	_ZN10QtMobility17QContactChangeSet28removedRelationshipsContactsEv @ 191 NONAME
	_ZN10QtMobility17QContactChangeSet31clearAddedRelationshipsContactsEv @ 192 NONAME
	_ZN10QtMobility17QContactChangeSet31insertAddedRelationshipsContactEj @ 193 NONAME
	_ZN10QtMobility17QContactChangeSet32insertAddedRelationshipsContactsERK5QListIjE @ 194 NONAME
	_ZN10QtMobility17QContactChangeSet33clearRemovedRelationshipsContactsEv @ 195 NONAME
	_ZN10QtMobility17QContactChangeSet33insertRemovedRelationshipsContactEj @ 196 NONAME
	_ZN10QtMobility17QContactChangeSet34insertRemovedRelationshipsContactsERK5QListIjE @ 197 NONAME
	_ZN10QtMobility17QContactChangeSet5clearEv @ 198 NONAME
	_ZN10QtMobility17QContactChangeSet8clearAllEv @ 199 NONAME
	_ZN10QtMobility17QContactChangeSetC1ERKS0_ @ 200 NONAME
	_ZN10QtMobility17QContactChangeSetC1Ev @ 201 NONAME
	_ZN10QtMobility17QContactChangeSetC2ERKS0_ @ 202 NONAME
	_ZN10QtMobility17QContactChangeSetC2Ev @ 203 NONAME
	_ZN10QtMobility17QContactChangeSetD1Ev @ 204 NONAME
	_ZN10QtMobility17QContactChangeSetD2Ev @ 205 NONAME
	_ZN10QtMobility17QContactChangeSetaSERKS0_ @ 206 NONAME
	_ZN10QtMobility17QContactFetchHint20setOptimizationHintsE6QFlagsINS0_16OptimizationHintEE @ 207 NONAME
	_ZN10QtMobility17QContactFetchHint24setDetailDefinitionsHintERK11QStringList @ 208 NONAME
	_ZN10QtMobility17QContactFetchHint24setRelationshipTypesHintERK11QStringList @ 209 NONAME
	_ZN10QtMobility17QContactFetchHintC1ERKS0_ @ 210 NONAME
	_ZN10QtMobility17QContactFetchHintC1Ev @ 211 NONAME
	_ZN10QtMobility17QContactFetchHintC2ERKS0_ @ 212 NONAME
	_ZN10QtMobility17QContactFetchHintC2Ev @ 213 NONAME
	_ZN10QtMobility17QContactFetchHintD1Ev @ 214 NONAME
	_ZN10QtMobility17QContactFetchHintD2Ev @ 215 NONAME
	_ZN10QtMobility17QContactFetchHintaSERKS0_ @ 216 NONAME
	_ZN10QtMobility17QContactSortOrder12setDirectionEN2Qt9SortOrderE @ 217 NONAME
	_ZN10QtMobility17QContactSortOrder14setBlankPolicyENS0_11BlankPolicyE @ 218 NONAME
	_ZN10QtMobility17QContactSortOrder18setCaseSensitivityEN2Qt15CaseSensitivityE @ 219 NONAME
	_ZN10QtMobility17QContactSortOrder23setDetailDefinitionNameERK7QStringS3_ @ 220 NONAME
	_ZN10QtMobility17QContactSortOrderC1ERKS0_ @ 221 NONAME
	_ZN10QtMobility17QContactSortOrderC1Ev @ 222 NONAME
	_ZN10QtMobility17QContactSortOrderC2ERKS0_ @ 223 NONAME
	_ZN10QtMobility17QContactSortOrderC2Ev @ 224 NONAME
	_ZN10QtMobility17QContactSortOrderD1Ev @ 225 NONAME
	_ZN10QtMobility17QContactSortOrderD2Ev @ 226 NONAME
	_ZN10QtMobility17QContactSortOrderaSERKS0_ @ 227 NONAME
	_ZN10QtMobility17QContactThumbnail14DefinitionNameE @ 228 NONAME DATA 10
	_ZN10QtMobility17QContactThumbnail14FieldThumbnailE @ 229 NONAME DATA 10
	_ZN10QtMobility17QContactTimestamp14DefinitionNameE @ 230 NONAME DATA 10
	_ZN10QtMobility17QContactTimestamp22FieldCreationTimestampE @ 231 NONAME DATA 18
	_ZN10QtMobility17QContactTimestamp26FieldModificationTimestampE @ 232 NONAME DATA 22
	_ZN10QtMobility18QContactSyncTarget14DefinitionNameE @ 233 NONAME DATA 11
	_ZN10QtMobility18QContactSyncTarget15FieldSyncTargetE @ 234 NONAME DATA 11
	_ZN10QtMobility19QContactAnniversary10FieldEventE @ 235 NONAME DATA 6
	_ZN10QtMobility19QContactAnniversary12FieldSubTypeE @ 236 NONAME DATA 8
	_ZN10QtMobility19QContactAnniversary12SubTypeHouseE @ 237 NONAME DATA 6
	_ZN10QtMobility19QContactAnniversary14DefinitionNameE @ 238 NONAME DATA 12
	_ZN10QtMobility19QContactAnniversary14SubTypeWeddingE @ 239 NONAME DATA 8
	_ZN10QtMobility19QContactAnniversary15FieldCalendarIdE @ 240 NONAME DATA 11
	_ZN10QtMobility19QContactAnniversary15SubTypeMemorialE @ 241 NONAME DATA 9
	_ZN10QtMobility19QContactAnniversary17FieldOriginalDateE @ 242 NONAME DATA 13
	_ZN10QtMobility19QContactAnniversary17SubTypeEmploymentE @ 243 NONAME DATA 11
	_ZN10QtMobility19QContactAnniversary17SubTypeEngagementE @ 244 NONAME DATA 11
	_ZN10QtMobility19QContactGeoLocation10FieldLabelE @ 245 NONAME DATA 6
	_ZN10QtMobility19QContactGeoLocation10FieldSpeedE @ 246 NONAME DATA 6
	_ZN10QtMobility19QContactGeoLocation12FieldHeadingE @ 247 NONAME DATA 8
	_ZN10QtMobility19QContactGeoLocation13FieldAccuracyE @ 248 NONAME DATA 9
	_ZN10QtMobility19QContactGeoLocation13FieldAltitudeE @ 249 NONAME DATA 9
	_ZN10QtMobility19QContactGeoLocation13FieldLatitudeE @ 250 NONAME DATA 9
	_ZN10QtMobility19QContactGeoLocation14DefinitionNameE @ 251 NONAME DATA 12
	_ZN10QtMobility19QContactGeoLocation14FieldLongitudeE @ 252 NONAME DATA 10
	_ZN10QtMobility19QContactGeoLocation14FieldTimestampE @ 253 NONAME DATA 10
	_ZN10QtMobility19QContactGeoLocation21FieldAltitudeAccuracyE @ 254 NONAME DATA 17
	_ZN10QtMobility19QContactPhoneNumber10SubTypeCarE @ 255 NONAME DATA 4
	_ZN10QtMobility19QContactPhoneNumber10SubTypeFaxE @ 256 NONAME DATA 4
	_ZN10QtMobility19QContactPhoneNumber11FieldNumberE @ 257 NONAME DATA 12
	_ZN10QtMobility19QContactPhoneNumber12SubTypeModemE @ 258 NONAME DATA 6
	_ZN10QtMobility19QContactPhoneNumber12SubTypePagerE @ 259 NONAME DATA 6
	_ZN10QtMobility19QContactPhoneNumber12SubTypeVideoE @ 260 NONAME DATA 6
	_ZN10QtMobility19QContactPhoneNumber12SubTypeVoiceE @ 261 NONAME DATA 6
	_ZN10QtMobility19QContactPhoneNumber13FieldSubTypesE @ 262 NONAME DATA 9
	_ZN10QtMobility19QContactPhoneNumber13SubTypeMobileE @ 263 NONAME DATA 7
	_ZN10QtMobility19QContactPhoneNumber14DefinitionNameE @ 264 NONAME DATA 12
	_ZN10QtMobility19QContactPhoneNumber15SubTypeDtmfMenuE @ 265 NONAME DATA 9
	_ZN10QtMobility19QContactPhoneNumber15SubTypeLandlineE @ 266 NONAME DATA 9
	_ZN10QtMobility19QContactPhoneNumber16SubTypeAssistantE @ 267 NONAME DATA 10
	_ZN10QtMobility19QContactPhoneNumber16SubTypeFacsimileE @ 268 NONAME DATA 4
	_ZN10QtMobility19QContactPhoneNumber23SubTypeMessagingCapableE @ 269 NONAME DATA 17
	_ZN10QtMobility19QContactPhoneNumber26SubTypeBulletinBoardSystemE @ 270 NONAME DATA 20
	_ZN10QtMobility19QContactPhoneNumber5matchERK7QString @ 271 NONAME
	_ZN10QtMobility19QContactSaveRequest11qt_metacallEN11QMetaObject4CallEiPPv @ 272 NONAME
	_ZN10QtMobility19QContactSaveRequest11qt_metacastEPKc @ 273 NONAME
	_ZN10QtMobility19QContactSaveRequest11setContactsERK5QListINS_8QContactEE @ 274 NONAME
	_ZN10QtMobility19QContactSaveRequest16staticMetaObjectE @ 275 NONAME DATA 16
	_ZN10QtMobility19QContactSaveRequest19getStaticMetaObjectEv @ 276 NONAME
	_ZN10QtMobility19QContactSaveRequestC1Ev @ 277 NONAME
	_ZN10QtMobility19QContactSaveRequestC2Ev @ 278 NONAME
	_ZN10QtMobility19QContactSaveRequestD0Ev @ 279 NONAME
	_ZN10QtMobility19QContactSaveRequestD1Ev @ 280 NONAME
	_ZN10QtMobility19QContactSaveRequestD2Ev @ 281 NONAME
	_ZN10QtMobility19QContactUnionFilter10setFiltersERK5QListINS_14QContactFilterEE @ 282 NONAME
	_ZN10QtMobility19QContactUnionFilter6appendERKNS_14QContactFilterE @ 283 NONAME
	_ZN10QtMobility19QContactUnionFilter6removeERKNS_14QContactFilterE @ 284 NONAME
	_ZN10QtMobility19QContactUnionFilter7prependERKNS_14QContactFilterE @ 285 NONAME
	_ZN10QtMobility19QContactUnionFilterC1ERKNS_14QContactFilterE @ 286 NONAME
	_ZN10QtMobility19QContactUnionFilterC1Ev @ 287 NONAME
	_ZN10QtMobility19QContactUnionFilterC2ERKNS_14QContactFilterE @ 288 NONAME
	_ZN10QtMobility19QContactUnionFilterC2Ev @ 289 NONAME
	_ZN10QtMobility19QContactUnionFilterlsERKNS_14QContactFilterE @ 290 NONAME
	_ZN10QtMobility20QContactActionFilter13setActionNameERK7QString @ 291 NONAME
	_ZN10QtMobility20QContactActionFilter8setValueERK8QVariant @ 292 NONAME
	_ZN10QtMobility20QContactActionFilter9setVendorERK7QStringi @ 293 NONAME
	_ZN10QtMobility20QContactActionFilterC1ERKNS_14QContactFilterE @ 294 NONAME
	_ZN10QtMobility20QContactActionFilterC1Ev @ 295 NONAME
	_ZN10QtMobility20QContactActionFilterC2ERKNS_14QContactFilterE @ 296 NONAME
	_ZN10QtMobility20QContactActionFilterC2Ev @ 297 NONAME
	_ZN10QtMobility20QContactDetailFilter13setMatchFlagsE6QFlagsINS_14QContactFilter9MatchFlagEE @ 298 NONAME
	_ZN10QtMobility20QContactDetailFilter23setDetailDefinitionNameERK7QStringS3_ @ 299 NONAME
	_ZN10QtMobility20QContactDetailFilter8setValueERK8QVariant @ 300 NONAME
	_ZN10QtMobility20QContactDetailFilterC1ERKNS_14QContactFilterE @ 301 NONAME
	_ZN10QtMobility20QContactDetailFilterC1Ev @ 302 NONAME
	_ZN10QtMobility20QContactDetailFilterC2ERKNS_14QContactFilterE @ 303 NONAME
	_ZN10QtMobility20QContactDetailFilterC2Ev @ 304 NONAME
	_ZN10QtMobility20QContactDisplayLabel10FieldLabelE @ 305 NONAME DATA 6
	_ZN10QtMobility20QContactDisplayLabel14DefinitionNameE @ 306 NONAME DATA 13
	_ZN10QtMobility20QContactDisplayLabel5matchERK7QString @ 307 NONAME
	_ZN10QtMobility20QContactEmailAddress14DefinitionNameE @ 308 NONAME DATA 13
	_ZN10QtMobility20QContactEmailAddress17FieldEmailAddressE @ 309 NONAME DATA 13
	_ZN10QtMobility20QContactEmailAddress5matchERK7QString @ 310 NONAME
	_ZN10QtMobility20QContactFetchRequest10setSortingERK5QListINS_17QContactSortOrderEE @ 311 NONAME
	_ZN10QtMobility20QContactFetchRequest11qt_metacallEN11QMetaObject4CallEiPPv @ 312 NONAME
	_ZN10QtMobility20QContactFetchRequest11qt_metacastEPKc @ 313 NONAME
	_ZN10QtMobility20QContactFetchRequest12setFetchHintERKNS_17QContactFetchHintE @ 314 NONAME
	_ZN10QtMobility20QContactFetchRequest16staticMetaObjectE @ 315 NONAME DATA 16
	_ZN10QtMobility20QContactFetchRequest19getStaticMetaObjectEv @ 316 NONAME
	_ZN10QtMobility20QContactFetchRequest25setDefinitionRestrictionsERK11QStringList @ 317 NONAME
	_ZN10QtMobility20QContactFetchRequest9setFilterERKNS_14QContactFilterE @ 318 NONAME
	_ZN10QtMobility20QContactFetchRequestC1Ev @ 319 NONAME
	_ZN10QtMobility20QContactFetchRequestC2Ev @ 320 NONAME
	_ZN10QtMobility20QContactFetchRequestD0Ev @ 321 NONAME
	_ZN10QtMobility20QContactFetchRequestD1Ev @ 322 NONAME
	_ZN10QtMobility20QContactFetchRequestD2Ev @ 323 NONAME
	_ZN10QtMobility20QContactOrganization10FieldTitleE @ 324 NONAME DATA 6
	_ZN10QtMobility20QContactOrganization12FieldLogoUrlE @ 325 NONAME DATA 8
	_ZN10QtMobility20QContactOrganization13FieldLocationE @ 326 NONAME DATA 9
	_ZN10QtMobility20QContactOrganization14DefinitionNameE @ 327 NONAME DATA 13
	_ZN10QtMobility20QContactOrganization15FieldDepartmentE @ 328 NONAME DATA 11
	_ZN10QtMobility20QContactOrganization18FieldAssistantNameE @ 329 NONAME DATA 14
	_ZN10QtMobility20QContactOrganization9FieldLogoE @ 330 NONAME DATA 5
	_ZN10QtMobility20QContactOrganization9FieldNameE @ 331 NONAME DATA 5
	_ZN10QtMobility20QContactOrganization9FieldRoleE @ 332 NONAME DATA 5
	_ZN10QtMobility20QContactRelationship10AggregatesE @ 333 NONAME DATA 11
	_ZN10QtMobility20QContactRelationship10HasManagerE @ 334 NONAME DATA 11
	_ZN10QtMobility20QContactRelationship12HasAssistantE @ 335 NONAME DATA 13
	_ZN10QtMobility20QContactRelationship19setRelationshipTypeERK7QString @ 336 NONAME
	_ZN10QtMobility20QContactRelationship2IsE @ 337 NONAME DATA 9
	_ZN10QtMobility20QContactRelationship8IsSameAsE @ 338 NONAME DATA 9
	_ZN10QtMobility20QContactRelationship8setFirstERKNS_10QContactIdE @ 339 NONAME
	_ZN10QtMobility20QContactRelationship9HasMemberE @ 340 NONAME DATA 10
	_ZN10QtMobility20QContactRelationship9HasSpouseE @ 341 NONAME DATA 10
	_ZN10QtMobility20QContactRelationship9setSecondERKNS_10QContactIdE @ 342 NONAME
	_ZN10QtMobility20QContactRelationshipC1ERKS0_ @ 343 NONAME
	_ZN10QtMobility20QContactRelationshipC1Ev @ 344 NONAME
	_ZN10QtMobility20QContactRelationshipC2ERKS0_ @ 345 NONAME
	_ZN10QtMobility20QContactRelationshipC2Ev @ 346 NONAME
	_ZN10QtMobility20QContactRelationshipD1Ev @ 347 NONAME
	_ZN10QtMobility20QContactRelationshipD2Ev @ 348 NONAME
	_ZN10QtMobility20QContactRelationshipaSERKS0_ @ 349 NONAME
	_ZN10QtMobility21QContactActionFactory11qt_metacallEN11QMetaObject4CallEiPPv @ 350 NONAME
	_ZN10QtMobility21QContactActionFactory11qt_metacastEPKc @ 351 NONAME
	_ZN10QtMobility21QContactActionFactory16staticMetaObjectE @ 352 NONAME DATA 16
	_ZN10QtMobility21QContactActionFactory19getStaticMetaObjectEv @ 353 NONAME
	_ZN10QtMobility21QContactActionFactoryD0Ev @ 354 NONAME
	_ZN10QtMobility21QContactActionFactoryD1Ev @ 355 NONAME
	_ZN10QtMobility21QContactActionFactoryD2Ev @ 356 NONAME
	_ZN10QtMobility21QContactInvalidFilterC1ERKNS_14QContactFilterE @ 357 NONAME
	_ZN10QtMobility21QContactInvalidFilterC1Ev @ 358 NONAME
	_ZN10QtMobility21QContactInvalidFilterC2ERKNS_14QContactFilterE @ 359 NONAME
	_ZN10QtMobility21QContactInvalidFilterC2Ev @ 360 NONAME
	_ZN10QtMobility21QContactLocalIdFilter6setIdsERK5QListIjE @ 361 NONAME
	_ZN10QtMobility21QContactLocalIdFilterC1ERKNS_14QContactFilterE @ 362 NONAME
	_ZN10QtMobility21QContactLocalIdFilterC1Ev @ 363 NONAME
	_ZN10QtMobility21QContactLocalIdFilterC2ERKNS_14QContactFilterE @ 364 NONAME
	_ZN10QtMobility21QContactLocalIdFilterC2Ev @ 365 NONAME
	_ZN10QtMobility21QContactManagerEngine10testFilterERKNS_14QContactFilterERKNS_8QContactE @ 366 NONAME
	_ZN10QtMobility21QContactManagerEngine11dataChangedEv @ 367 NONAME
	_ZN10QtMobility21QContactManagerEngine11qt_metacallEN11QMetaObject4CallEiPPv @ 368 NONAME
	_ZN10QtMobility21QContactManagerEngine11qt_metacastEPKc @ 369 NONAME
	_ZN10QtMobility21QContactManagerEngine11saveContactEPNS_8QContactEPNS_15QContactManager5ErrorE @ 370 NONAME
	_ZN10QtMobility21QContactManagerEngine12saveContactsEP5QListINS_8QContactEEP4QMapIiNS_15QContactManager5ErrorEEPS7_ @ 371 NONAME
	_ZN10QtMobility21QContactManagerEngine12sortContactsERK5QListINS_8QContactEERKS1_INS_17QContactSortOrderEE @ 372 NONAME
	_ZN10QtMobility21QContactManagerEngine12startRequestEPNS_23QContactAbstractRequestE @ 373 NONAME
	_ZN10QtMobility21QContactManagerEngine13cancelRequestEPNS_23QContactAbstractRequestE @ 374 NONAME
	_ZN10QtMobility21QContactManagerEngine13contactsAddedERK5QListIjE @ 375 NONAME
	_ZN10QtMobility21QContactManagerEngine13removeContactERKjPNS_15QContactManager5ErrorE @ 376 NONAME
	_ZN10QtMobility21QContactManagerEngine14compareContactERKNS_8QContactES3_RK5QListINS_17QContactSortOrderEE @ 377 NONAME
	_ZN10QtMobility21QContactManagerEngine14compareVariantERK8QVariantS3_N2Qt15CaseSensitivityE @ 378 NONAME
	_ZN10QtMobility21QContactManagerEngine14removeContactsERK5QListIjEP4QMapIiNS_15QContactManager5ErrorEEPS7_ @ 379 NONAME
	_ZN10QtMobility21QContactManagerEngine15contactsChangedERK5QListIjE @ 380 NONAME
	_ZN10QtMobility21QContactManagerEngine15contactsRemovedERK5QListIjE @ 381 NONAME
	_ZN10QtMobility21QContactManagerEngine16requestDestroyedEPNS_23QContactAbstractRequestE @ 382 NONAME
	_ZN10QtMobility21QContactManagerEngine16saveRelationshipEPNS_20QContactRelationshipEPNS_15QContactManager5ErrorE @ 383 NONAME
	_ZN10QtMobility21QContactManagerEngine16setSelfContactIdERKjPNS_15QContactManager5ErrorE @ 384 NONAME
	_ZN10QtMobility21QContactManagerEngine16staticMetaObjectE @ 385 NONAME DATA 16
	_ZN10QtMobility21QContactManagerEngine17saveRelationshipsEP5QListINS_20QContactRelationshipEEP4QMapIiNS_15QContactManager5ErrorEEPS7_ @ 386 NONAME
	_ZN10QtMobility21QContactManagerEngine17schemaDefinitionsEv @ 387 NONAME
	_ZN10QtMobility21QContactManagerEngine18relationshipsAddedERK5QListIjE @ 388 NONAME
	_ZN10QtMobility21QContactManagerEngine18removeRelationshipERKNS_20QContactRelationshipEPNS_15QContactManager5ErrorE @ 389 NONAME
	_ZN10QtMobility21QContactManagerEngine18updateRequestStateEPNS_23QContactAbstractRequestENS1_5StateE @ 390 NONAME
	_ZN10QtMobility21QContactManagerEngine19canonicalizedFilterERKNS_14QContactFilterE @ 391 NONAME
	_ZN10QtMobility21QContactManagerEngine19getStaticMetaObjectEv @ 392 NONAME
	_ZN10QtMobility21QContactManagerEngine19removeRelationshipsERK5QListINS_20QContactRelationshipEEP4QMapIiNS_15QContactManager5ErrorEEPS8_ @ 393 NONAME
	_ZN10QtMobility21QContactManagerEngine20relationshipsRemovedERK5QListIjE @ 394 NONAME
	_ZN10QtMobility21QContactManagerEngine20saveDetailDefinitionERKNS_24QContactDetailDefinitionERK7QStringPNS_15QContactManager5ErrorE @ 395 NONAME
	_ZN10QtMobility21QContactManagerEngine20selfContactIdChangedERKjS2_ @ 396 NONAME
	_ZN10QtMobility21QContactManagerEngine20validateActionFilterERKNS_14QContactFilterE @ 397 NONAME
	_ZN10QtMobility21QContactManagerEngine22removeDetailDefinitionERK7QStringS3_PNS_15QContactManager5ErrorE @ 398 NONAME
	_ZN10QtMobility21QContactManagerEngine22setContactDisplayLabelEPNS_8QContactERK7QString @ 399 NONAME
	_ZN10QtMobility21QContactManagerEngine22waitForRequestFinishedEPNS_23QContactAbstractRequestEi @ 400 NONAME
	_ZN10QtMobility21QContactManagerEngine23setContactRelationshipsEPNS_8QContactERK5QListINS_20QContactRelationshipEE @ 401 NONAME
	_ZN10QtMobility21QContactManagerEngine24updateContactSaveRequestEPNS_19QContactSaveRequestERK5QListINS_8QContactEENS_15QContactManager5ErrorERK4QMapIiS9_E @ 402 NONAME
	_ZN10QtMobility21QContactManagerEngine24updateContactSaveRequestEPNS_19QContactSaveRequestERK5QListINS_8QContactEENS_15QContactManager5ErrorERK4QMapIiS9_ENS_23QContactAbstractRequest5StateE @ 403 NONAME
	_ZN10QtMobility21QContactManagerEngine25updateContactFetchRequestEPNS_20QContactFetchRequestERK5QListINS_8QContactEENS_15QContactManager5ErrorE @ 404 NONAME
	_ZN10QtMobility21QContactManagerEngine25updateContactFetchRequestEPNS_20QContactFetchRequestERK5QListINS_8QContactEENS_15QContactManager5ErrorENS_23QContactAbstractRequest5StateE @ 405 NONAME
	_ZN10QtMobility21QContactManagerEngine26setDetailAccessConstraintsEPNS_14QContactDetailE6QFlagsINS1_16AccessConstraintEE @ 406 NONAME
	_ZN10QtMobility21QContactManagerEngine26updateContactRemoveRequestEPNS_21QContactRemoveRequestENS_15QContactManager5ErrorERK4QMapIiS4_E @ 407 NONAME
	_ZN10QtMobility21QContactManagerEngine26updateContactRemoveRequestEPNS_21QContactRemoveRequestENS_15QContactManager5ErrorERK4QMapIiS4_ENS_23QContactAbstractRequest5StateE @ 408 NONAME
	_ZN10QtMobility21QContactManagerEngine27updateDefinitionSaveRequestEPNS_35QContactDetailDefinitionSaveRequestERK5QListINS_24QContactDetailDefinitionEENS_15QContactManager5ErrorERK4QMapIiS9_E @ 409 NONAME
	_ZN10QtMobility21QContactManagerEngine27updateDefinitionSaveRequestEPNS_35QContactDetailDefinitionSaveRequestERK5QListINS_24QContactDetailDefinitionEENS_15QContactManager5ErrorERK4QMapIiS9_ENS_23QContactAbstractRequest5StateE @ 410 NONAME
	_ZN10QtMobility21QContactManagerEngine28updateDefinitionFetchRequestEPNS_36QContactDetailDefinitionFetchRequestERK4QMapI7QStringNS_24QContactDetailDefinitionEENS_15QContactManager5ErrorERKS3_IiSA_E @ 411 NONAME
	_ZN10QtMobility21QContactManagerEngine28updateDefinitionFetchRequestEPNS_36QContactDetailDefinitionFetchRequestERK4QMapI7QStringNS_24QContactDetailDefinitionEENS_15QContactManager5ErrorERKS3_IiSA_ENS_23QContactAbstractRequest5StateE @ 412 NONAME
	_ZN10QtMobility21QContactManagerEngine29updateDefinitionRemoveRequestEPNS_37QContactDetailDefinitionRemoveRequestENS_15QContactManager5ErrorERK4QMapIiS4_E @ 413 NONAME
	_ZN10QtMobility21QContactManagerEngine29updateDefinitionRemoveRequestEPNS_37QContactDetailDefinitionRemoveRequestENS_15QContactManager5ErrorERK4QMapIiS4_ENS_23QContactAbstractRequest5StateE @ 414 NONAME
	_ZN10QtMobility21QContactManagerEngine29updateRelationshipSaveRequestEPNS_31QContactRelationshipSaveRequestERK5QListINS_20QContactRelationshipEENS_15QContactManager5ErrorERK4QMapIiS9_E @ 415 NONAME
	_ZN10QtMobility21QContactManagerEngine29updateRelationshipSaveRequestEPNS_31QContactRelationshipSaveRequestERK5QListINS_20QContactRelationshipEENS_15QContactManager5ErrorERK4QMapIiS9_ENS_23QContactAbstractRequest5StateE @ 416 NONAME
	_ZN10QtMobility21QContactManagerEngine30updateRelationshipFetchRequestEPNS_32QContactRelationshipFetchRequestERK5QListINS_20QContactRelationshipEENS_15QContactManager5ErrorE @ 417 NONAME
	_ZN10QtMobility21QContactManagerEngine30updateRelationshipFetchRequestEPNS_32QContactRelationshipFetchRequestERK5QListINS_20QContactRelationshipEENS_15QContactManager5ErrorENS_23QContactAbstractRequest5StateE @ 418 NONAME
	_ZN10QtMobility21QContactManagerEngine31updateRelationshipRemoveRequestEPNS_33QContactRelationshipRemoveRequestENS_15QContactManager5ErrorERK4QMapIiS4_E @ 419 NONAME
	_ZN10QtMobility21QContactManagerEngine31updateRelationshipRemoveRequestEPNS_33QContactRelationshipRemoveRequestENS_15QContactManager5ErrorERK4QMapIiS4_ENS_23QContactAbstractRequest5StateE @ 420 NONAME
	_ZN10QtMobility21QContactManagerEngine32updateContactLocalIdFetchRequestEPNS_27QContactLocalIdFetchRequestERK5QListIjENS_15QContactManager5ErrorE @ 421 NONAME
	_ZN10QtMobility21QContactManagerEngine32updateContactLocalIdFetchRequestEPNS_27QContactLocalIdFetchRequestERK5QListIjENS_15QContactManager5ErrorENS_23QContactAbstractRequest5StateE @ 422 NONAME
	_ZN10QtMobility21QContactManagerEngine9addSortedEP5QListINS_8QContactEERKS2_RKS1_INS_17QContactSortOrderEE @ 423 NONAME
	_ZN10QtMobility21QContactOnlineAccount10SubTypeSipE @ 424 NONAME DATA 4
	_ZN10QtMobility21QContactOnlineAccount11SubTypeImppE @ 425 NONAME DATA 5
	_ZN10QtMobility21QContactOnlineAccount11setNicknameERK7QString @ 426 NONAME
	_ZN10QtMobility21QContactOnlineAccount11setPresenceERK7QString @ 427 NONAME
	_ZN10QtMobility21QContactOnlineAccount12PresenceAwayE @ 428 NONAME DATA 5
	_ZN10QtMobility21QContactOnlineAccount12PresenceBusyE @ 429 NONAME DATA 5
	_ZN10QtMobility21QContactOnlineAccount13FieldNicknameE @ 430 NONAME DATA 9
	_ZN10QtMobility21QContactOnlineAccount13FieldPresenceE @ 431 NONAME DATA 9
	_ZN10QtMobility21QContactOnlineAccount13FieldSubTypesE @ 432 NONAME DATA 9
	_ZN10QtMobility21QContactOnlineAccount14DefinitionNameE @ 433 NONAME DATA 14
	_ZN10QtMobility21QContactOnlineAccount14PresenceHiddenE @ 434 NONAME DATA 7
	_ZN10QtMobility21QContactOnlineAccount14SubTypeSipVoipE @ 435 NONAME DATA 8
	_ZN10QtMobility21QContactOnlineAccount15FieldAccountUriE @ 436 NONAME DATA 11
	_ZN10QtMobility21QContactOnlineAccount15PresenceOfflineE @ 437 NONAME DATA 8
	_ZN10QtMobility21QContactOnlineAccount15PresenceUnknownE @ 438 NONAME DATA 8
	_ZN10QtMobility21QContactOnlineAccount16setStatusMessageERK7QString @ 439 NONAME
	_ZN10QtMobility21QContactOnlineAccount17FieldCapabilitiesE @ 440 NONAME DATA 13
	_ZN10QtMobility21QContactOnlineAccount17PresenceAvailableE @ 441 NONAME DATA 10
	_ZN10QtMobility21QContactOnlineAccount17SubTypeVideoShareE @ 442 NONAME DATA 11
	_ZN10QtMobility21QContactOnlineAccount18FieldStatusMessageE @ 443 NONAME DATA 14
	_ZN10QtMobility21QContactOnlineAccount20FieldServiceProviderE @ 444 NONAME DATA 16
	_ZN10QtMobility21QContactOnlineAccount20PresenceExtendedAwayE @ 445 NONAME DATA 13
	_ZN10QtMobility21QContactRemoveRequest11qt_metacallEN11QMetaObject4CallEiPPv @ 446 NONAME
	_ZN10QtMobility21QContactRemoveRequest11qt_metacastEPKc @ 447 NONAME
	_ZN10QtMobility21QContactRemoveRequest13setContactIdsERK5QListIjE @ 448 NONAME
	_ZN10QtMobility21QContactRemoveRequest16staticMetaObjectE @ 449 NONAME DATA 16
	_ZN10QtMobility21QContactRemoveRequest19getStaticMetaObjectEv @ 450 NONAME
	_ZN10QtMobility21QContactRemoveRequest9setFilterERKNS_14QContactFilterE @ 451 NONAME
	_ZN10QtMobility21QContactRemoveRequestC1Ev @ 452 NONAME
	_ZN10QtMobility21QContactRemoveRequestC2Ev @ 453 NONAME
	_ZN10QtMobility21QContactRemoveRequestD0Ev @ 454 NONAME
	_ZN10QtMobility21QContactRemoveRequestD1Ev @ 455 NONAME
	_ZN10QtMobility21QContactRemoveRequestD2Ev @ 456 NONAME
	_ZN10QtMobility22QContactGlobalPresence13FieldNicknameE @ 457 NONAME DATA 9
	_ZN10QtMobility22QContactGlobalPresence14DefinitionNameE @ 458 NONAME DATA 15
	_ZN10QtMobility22QContactGlobalPresence14FieldTimestampE @ 459 NONAME DATA 10
	_ZN10QtMobility22QContactGlobalPresence18FieldCustomMessageE @ 460 NONAME DATA 14
	_ZN10QtMobility22QContactGlobalPresence18FieldPresenceStateE @ 461 NONAME DATA 14
	_ZN10QtMobility22QContactGlobalPresence22FieldPresenceStateTextE @ 462 NONAME DATA 18
	_ZN10QtMobility22QContactGlobalPresence26FieldPresenceStateImageUrlE @ 463 NONAME DATA 22
	_ZN10QtMobility23QContactAbstractRequest10setManagerEPNS_15QContactManagerE @ 464 NONAME
	_ZN10QtMobility23QContactAbstractRequest11qt_metacallEN11QMetaObject4CallEiPPv @ 465 NONAME
	_ZN10QtMobility23QContactAbstractRequest11qt_metacastEPKc @ 466 NONAME
	_ZN10QtMobility23QContactAbstractRequest12stateChangedENS0_5StateE @ 467 NONAME
	_ZN10QtMobility23QContactAbstractRequest15waitForFinishedEi @ 468 NONAME
	_ZN10QtMobility23QContactAbstractRequest16resultsAvailableEv @ 469 NONAME
	_ZN10QtMobility23QContactAbstractRequest16staticMetaObjectE @ 470 NONAME DATA 16
	_ZN10QtMobility23QContactAbstractRequest19getStaticMetaObjectEv @ 471 NONAME
	_ZN10QtMobility23QContactAbstractRequest5startEv @ 472 NONAME
	_ZN10QtMobility23QContactAbstractRequest6cancelEv @ 473 NONAME
	_ZN10QtMobility23QContactAbstractRequestC1EPNS_30QContactAbstractRequestPrivateE @ 474 NONAME
	_ZN10QtMobility23QContactAbstractRequestC2EPNS_30QContactAbstractRequestPrivateE @ 475 NONAME
	_ZN10QtMobility23QContactAbstractRequestD0Ev @ 476 NONAME
	_ZN10QtMobility23QContactAbstractRequestD1Ev @ 477 NONAME
	_ZN10QtMobility23QContactAbstractRequestD2Ev @ 478 NONAME
	_ZN10QtMobility23QContactChangeLogFilter12setEventTypeENS0_9EventTypeE @ 479 NONAME
	_ZN10QtMobility23QContactChangeLogFilter8setSinceERK9QDateTime @ 480 NONAME
	_ZN10QtMobility23QContactChangeLogFilterC1ENS0_9EventTypeE @ 481 NONAME
	_ZN10QtMobility23QContactChangeLogFilterC1ERKNS_14QContactFilterE @ 482 NONAME
	_ZN10QtMobility23QContactChangeLogFilterC2ENS0_9EventTypeE @ 483 NONAME
	_ZN10QtMobility23QContactChangeLogFilterC2ERKNS_14QContactFilterE @ 484 NONAME
	_ZN10QtMobility24QContactActionDescriptor13setActionNameERK7QString @ 485 NONAME
	_ZN10QtMobility24QContactActionDescriptor13setVendorNameERK7QString @ 486 NONAME
	_ZN10QtMobility24QContactActionDescriptor24setImplementationVersionEi @ 487 NONAME
	_ZN10QtMobility24QContactActionDescriptorC1ERK7QStringS3_i @ 488 NONAME
	_ZN10QtMobility24QContactActionDescriptorC1ERKS0_ @ 489 NONAME
	_ZN10QtMobility24QContactActionDescriptorC2ERK7QStringS3_i @ 490 NONAME
	_ZN10QtMobility24QContactActionDescriptorC2ERKS0_ @ 491 NONAME
	_ZN10QtMobility24QContactActionDescriptorD1Ev @ 492 NONAME
	_ZN10QtMobility24QContactActionDescriptorD2Ev @ 493 NONAME
	_ZN10QtMobility24QContactActionDescriptoraSERKS0_ @ 494 NONAME
	_ZN10QtMobility24QContactDetailDefinition11insertFieldERK7QStringRKNS_29QContactDetailFieldDefinitionE @ 495 NONAME
	_ZN10QtMobility24QContactDetailDefinition11removeFieldERK7QString @ 496 NONAME
	_ZN10QtMobility24QContactDetailDefinition7setNameERK7QString @ 497 NONAME
	_ZN10QtMobility24QContactDetailDefinition9setFieldsERK4QMapI7QStringNS_29QContactDetailFieldDefinitionEE @ 498 NONAME
	_ZN10QtMobility24QContactDetailDefinition9setUniqueEb @ 499 NONAME
	_ZN10QtMobility24QContactDetailDefinitionC1ERKS0_ @ 500 NONAME
	_ZN10QtMobility24QContactDetailDefinitionC1Ev @ 501 NONAME
	_ZN10QtMobility24QContactDetailDefinitionC2ERKS0_ @ 502 NONAME
	_ZN10QtMobility24QContactDetailDefinitionC2Ev @ 503 NONAME
	_ZN10QtMobility24QContactDetailDefinitionD1Ev @ 504 NONAME
	_ZN10QtMobility24QContactDetailDefinitionD2Ev @ 505 NONAME
	_ZN10QtMobility24QContactDetailDefinitionaSERKS0_ @ 506 NONAME
	_ZN10QtMobility25QContactDetailRangeFilter13setMatchFlagsE6QFlagsINS_14QContactFilter9MatchFlagEE @ 507 NONAME
	_ZN10QtMobility25QContactDetailRangeFilter23setDetailDefinitionNameERK7QStringS3_ @ 508 NONAME
	_ZN10QtMobility25QContactDetailRangeFilter8setRangeERK8QVariantS3_6QFlagsINS0_9RangeFlagEE @ 509 NONAME
	_ZN10QtMobility25QContactDetailRangeFilterC1ERKNS_14QContactFilterE @ 510 NONAME
	_ZN10QtMobility25QContactDetailRangeFilterC1Ev @ 511 NONAME
	_ZN10QtMobility25QContactDetailRangeFilterC2ERKNS_14QContactFilterE @ 512 NONAME
	_ZN10QtMobility25QContactDetailRangeFilterC2Ev @ 513 NONAME
	_ZN10QtMobility26QContactIntersectionFilter10setFiltersERK5QListINS_14QContactFilterEE @ 514 NONAME
	_ZN10QtMobility26QContactIntersectionFilter6appendERKNS_14QContactFilterE @ 515 NONAME
	_ZN10QtMobility26QContactIntersectionFilter6removeERKNS_14QContactFilterE @ 516 NONAME
	_ZN10QtMobility26QContactIntersectionFilter7prependERKNS_14QContactFilterE @ 517 NONAME
	_ZN10QtMobility26QContactIntersectionFilterC1ERKNS_14QContactFilterE @ 518 NONAME
	_ZN10QtMobility26QContactIntersectionFilterC1Ev @ 519 NONAME
	_ZN10QtMobility26QContactIntersectionFilterC2ERKNS_14QContactFilterE @ 520 NONAME
	_ZN10QtMobility26QContactIntersectionFilterC2Ev @ 521 NONAME
	_ZN10QtMobility26QContactIntersectionFilterlsERKNS_14QContactFilterE @ 522 NONAME
	_ZN10QtMobility26QContactRelationshipFilter19setRelatedContactIdERKNS_10QContactIdE @ 523 NONAME
	_ZN10QtMobility26QContactRelationshipFilter19setRelationshipTypeERK7QString @ 524 NONAME
	_ZN10QtMobility26QContactRelationshipFilter21setOtherParticipantIdERKNS_10QContactIdE @ 525 NONAME
	_ZN10QtMobility26QContactRelationshipFilter21setRelatedContactRoleENS0_4RoleE @ 526 NONAME
	_ZN10QtMobility26QContactRelationshipFilter21setRelatedContactRoleENS_20QContactRelationship4RoleE @ 527 NONAME
	_ZN10QtMobility26QContactRelationshipFilter7setRoleENS0_4RoleE @ 528 NONAME
	_ZN10QtMobility26QContactRelationshipFilterC1ERKNS_14QContactFilterE @ 529 NONAME
	_ZN10QtMobility26QContactRelationshipFilterC1Ev @ 530 NONAME
	_ZN10QtMobility26QContactRelationshipFilterC2ERKNS_14QContactFilterE @ 531 NONAME
	_ZN10QtMobility26QContactRelationshipFilterC2Ev @ 532 NONAME
	_ZN10QtMobility27QContactLocalIdFetchRequest10setSortingERK5QListINS_17QContactSortOrderEE @ 533 NONAME
	_ZN10QtMobility27QContactLocalIdFetchRequest11qt_metacallEN11QMetaObject4CallEiPPv @ 534 NONAME
	_ZN10QtMobility27QContactLocalIdFetchRequest11qt_metacastEPKc @ 535 NONAME
	_ZN10QtMobility27QContactLocalIdFetchRequest16staticMetaObjectE @ 536 NONAME DATA 16
	_ZN10QtMobility27QContactLocalIdFetchRequest19getStaticMetaObjectEv @ 537 NONAME
	_ZN10QtMobility27QContactLocalIdFetchRequest9setFilterERKNS_14QContactFilterE @ 538 NONAME
	_ZN10QtMobility27QContactLocalIdFetchRequestC1Ev @ 539 NONAME
	_ZN10QtMobility27QContactLocalIdFetchRequestC2Ev @ 540 NONAME
	_ZN10QtMobility27QContactLocalIdFetchRequestD0Ev @ 541 NONAME
	_ZN10QtMobility27QContactLocalIdFetchRequestD1Ev @ 542 NONAME
	_ZN10QtMobility27QContactLocalIdFetchRequestD2Ev @ 543 NONAME
	_ZN10QtMobility28QContactManagerEngineFactoryD0Ev @ 544 NONAME
	_ZN10QtMobility28QContactManagerEngineFactoryD1Ev @ 545 NONAME
	_ZN10QtMobility28QContactManagerEngineFactoryD2Ev @ 546 NONAME
	_ZN10QtMobility29QContactDetailFieldDefinition11setDataTypeEN8QVariant4TypeE @ 547 NONAME
	_ZN10QtMobility29QContactDetailFieldDefinition18setAllowableValuesE5QListI8QVariantE @ 548 NONAME
	_ZN10QtMobility29QContactDetailFieldDefinitionC1ERKS0_ @ 549 NONAME
	_ZN10QtMobility29QContactDetailFieldDefinitionC1Ev @ 550 NONAME
	_ZN10QtMobility29QContactDetailFieldDefinitionC2ERKS0_ @ 551 NONAME
	_ZN10QtMobility29QContactDetailFieldDefinitionC2Ev @ 552 NONAME
	_ZN10QtMobility29QContactDetailFieldDefinitionD1Ev @ 553 NONAME
	_ZN10QtMobility29QContactDetailFieldDefinitionD2Ev @ 554 NONAME
	_ZN10QtMobility29QContactDetailFieldDefinitionaSERKS0_ @ 555 NONAME
	_ZN10QtMobility31QContactRelationshipSaveRequest11qt_metacallEN11QMetaObject4CallEiPPv @ 556 NONAME
	_ZN10QtMobility31QContactRelationshipSaveRequest11qt_metacastEPKc @ 557 NONAME
	_ZN10QtMobility31QContactRelationshipSaveRequest16setRelationshipsERK5QListINS_20QContactRelationshipEE @ 558 NONAME
	_ZN10QtMobility31QContactRelationshipSaveRequest16staticMetaObjectE @ 559 NONAME DATA 16
	_ZN10QtMobility31QContactRelationshipSaveRequest19getStaticMetaObjectEv @ 560 NONAME
	_ZN10QtMobility31QContactRelationshipSaveRequestC1Ev @ 561 NONAME
	_ZN10QtMobility31QContactRelationshipSaveRequestC2Ev @ 562 NONAME
	_ZN10QtMobility31QContactRelationshipSaveRequestD0Ev @ 563 NONAME
	_ZN10QtMobility31QContactRelationshipSaveRequestD1Ev @ 564 NONAME
	_ZN10QtMobility31QContactRelationshipSaveRequestD2Ev @ 565 NONAME
	_ZN10QtMobility32QContactRelationshipFetchRequest11qt_metacallEN11QMetaObject4CallEiPPv @ 566 NONAME
	_ZN10QtMobility32QContactRelationshipFetchRequest11qt_metacastEPKc @ 567 NONAME
	_ZN10QtMobility32QContactRelationshipFetchRequest16staticMetaObjectE @ 568 NONAME DATA 16
	_ZN10QtMobility32QContactRelationshipFetchRequest19getStaticMetaObjectEv @ 569 NONAME
	_ZN10QtMobility32QContactRelationshipFetchRequest19setRelationshipTypeERK7QString @ 570 NONAME
	_ZN10QtMobility32QContactRelationshipFetchRequest8setFirstERKNS_10QContactIdE @ 571 NONAME
	_ZN10QtMobility32QContactRelationshipFetchRequest9setSecondERKNS_10QContactIdE @ 572 NONAME
	_ZN10QtMobility32QContactRelationshipFetchRequestC1Ev @ 573 NONAME
	_ZN10QtMobility32QContactRelationshipFetchRequestC2Ev @ 574 NONAME
	_ZN10QtMobility32QContactRelationshipFetchRequestD0Ev @ 575 NONAME
	_ZN10QtMobility32QContactRelationshipFetchRequestD1Ev @ 576 NONAME
	_ZN10QtMobility32QContactRelationshipFetchRequestD2Ev @ 577 NONAME
	_ZN10QtMobility33QContactRelationshipRemoveRequest11qt_metacallEN11QMetaObject4CallEiPPv @ 578 NONAME
	_ZN10QtMobility33QContactRelationshipRemoveRequest11qt_metacastEPKc @ 579 NONAME
	_ZN10QtMobility33QContactRelationshipRemoveRequest16setRelationshipsERK5QListINS_20QContactRelationshipEE @ 580 NONAME
	_ZN10QtMobility33QContactRelationshipRemoveRequest16staticMetaObjectE @ 581 NONAME DATA 16
	_ZN10QtMobility33QContactRelationshipRemoveRequest19getStaticMetaObjectEv @ 582 NONAME
	_ZN10QtMobility33QContactRelationshipRemoveRequest19setRelationshipTypeERK7QString @ 583 NONAME
	_ZN10QtMobility33QContactRelationshipRemoveRequest8setFirstERKNS_10QContactIdE @ 584 NONAME
	_ZN10QtMobility33QContactRelationshipRemoveRequest9setSecondERKNS_10QContactIdE @ 585 NONAME
	_ZN10QtMobility33QContactRelationshipRemoveRequestC1Ev @ 586 NONAME
	_ZN10QtMobility33QContactRelationshipRemoveRequestC2Ev @ 587 NONAME
	_ZN10QtMobility33QContactRelationshipRemoveRequestD0Ev @ 588 NONAME
	_ZN10QtMobility33QContactRelationshipRemoveRequestD1Ev @ 589 NONAME
	_ZN10QtMobility33QContactRelationshipRemoveRequestD2Ev @ 590 NONAME
	_ZN10QtMobility35QContactDetailDefinitionSaveRequest11qt_metacallEN11QMetaObject4CallEiPPv @ 591 NONAME
	_ZN10QtMobility35QContactDetailDefinitionSaveRequest11qt_metacastEPKc @ 592 NONAME
	_ZN10QtMobility35QContactDetailDefinitionSaveRequest14setContactTypeERK7QString @ 593 NONAME
	_ZN10QtMobility35QContactDetailDefinitionSaveRequest14setDefinitionsERK5QListINS_24QContactDetailDefinitionEE @ 594 NONAME
	_ZN10QtMobility35QContactDetailDefinitionSaveRequest16staticMetaObjectE @ 595 NONAME DATA 16
	_ZN10QtMobility35QContactDetailDefinitionSaveRequest19getStaticMetaObjectEv @ 596 NONAME
	_ZN10QtMobility35QContactDetailDefinitionSaveRequestC1Ev @ 597 NONAME
	_ZN10QtMobility35QContactDetailDefinitionSaveRequestC2Ev @ 598 NONAME
	_ZN10QtMobility35QContactDetailDefinitionSaveRequestD0Ev @ 599 NONAME
	_ZN10QtMobility35QContactDetailDefinitionSaveRequestD1Ev @ 600 NONAME
	_ZN10QtMobility35QContactDetailDefinitionSaveRequestD2Ev @ 601 NONAME
	_ZN10QtMobility36QContactDetailDefinitionFetchRequest11qt_metacallEN11QMetaObject4CallEiPPv @ 602 NONAME
	_ZN10QtMobility36QContactDetailDefinitionFetchRequest11qt_metacastEPKc @ 603 NONAME
	_ZN10QtMobility36QContactDetailDefinitionFetchRequest14setContactTypeERK7QString @ 604 NONAME
	_ZN10QtMobility36QContactDetailDefinitionFetchRequest16staticMetaObjectE @ 605 NONAME DATA 16
	_ZN10QtMobility36QContactDetailDefinitionFetchRequest18setDefinitionNamesERK11QStringList @ 606 NONAME
	_ZN10QtMobility36QContactDetailDefinitionFetchRequest19getStaticMetaObjectEv @ 607 NONAME
	_ZN10QtMobility36QContactDetailDefinitionFetchRequestC1Ev @ 608 NONAME
	_ZN10QtMobility36QContactDetailDefinitionFetchRequestC2Ev @ 609 NONAME
	_ZN10QtMobility36QContactDetailDefinitionFetchRequestD0Ev @ 610 NONAME
	_ZN10QtMobility36QContactDetailDefinitionFetchRequestD1Ev @ 611 NONAME
	_ZN10QtMobility36QContactDetailDefinitionFetchRequestD2Ev @ 612 NONAME
	_ZN10QtMobility37QContactDetailDefinitionRemoveRequest11qt_metacallEN11QMetaObject4CallEiPPv @ 613 NONAME
	_ZN10QtMobility37QContactDetailDefinitionRemoveRequest11qt_metacastEPKc @ 614 NONAME
	_ZN10QtMobility37QContactDetailDefinitionRemoveRequest16staticMetaObjectE @ 615 NONAME DATA 16
	_ZN10QtMobility37QContactDetailDefinitionRemoveRequest18setDefinitionNamesERK7QStringRK11QStringList @ 616 NONAME
	_ZN10QtMobility37QContactDetailDefinitionRemoveRequest19getStaticMetaObjectEv @ 617 NONAME
	_ZN10QtMobility37QContactDetailDefinitionRemoveRequestC1Ev @ 618 NONAME
	_ZN10QtMobility37QContactDetailDefinitionRemoveRequestC2Ev @ 619 NONAME
	_ZN10QtMobility37QContactDetailDefinitionRemoveRequestD0Ev @ 620 NONAME
	_ZN10QtMobility37QContactDetailDefinitionRemoveRequestD1Ev @ 621 NONAME
	_ZN10QtMobility37QContactDetailDefinitionRemoveRequestD2Ev @ 622 NONAME
	_ZN10QtMobility5qHashERKNS_10QContactIdE @ 623 NONAME
	_ZN10QtMobility5qHashERKNS_14QContactDetailE @ 624 NONAME
	_ZN10QtMobility5qHashERKNS_20QContactRelationshipE @ 625 NONAME
	_ZN10QtMobility5qHashERKNS_24QContactActionDescriptorE @ 626 NONAME
	_ZN10QtMobility5qHashERKNS_8QContactE @ 627 NONAME
	_ZN10QtMobility8QContact10saveDetailEPNS_14QContactDetailE @ 628 NONAME
	_ZN10QtMobility8QContact12clearDetailsEv @ 629 NONAME
	_ZN10QtMobility8QContact12removeDetailEPNS_14QContactDetailE @ 630 NONAME
	_ZN10QtMobility8QContact18setPreferredDetailERK7QStringRKNS_14QContactDetailE @ 631 NONAME
	_ZN10QtMobility8QContact20setRelationshipOrderERK5QListINS_20QContactRelationshipEE @ 632 NONAME
	_ZN10QtMobility8QContact5setIdERKNS_10QContactIdE @ 633 NONAME
	_ZN10QtMobility8QContact7setTypeERK7QString @ 634 NONAME
	_ZN10QtMobility8QContact7setTypeERKNS_12QContactTypeE @ 635 NONAME
	_ZN10QtMobility8QContactC1ERKS0_ @ 636 NONAME
	_ZN10QtMobility8QContactC1Ev @ 637 NONAME
	_ZN10QtMobility8QContactC2ERKS0_ @ 638 NONAME
	_ZN10QtMobility8QContactC2Ev @ 639 NONAME
	_ZN10QtMobility8QContactD1Ev @ 640 NONAME
	_ZN10QtMobility8QContactD2Ev @ 641 NONAME
	_ZN10QtMobility8QContactaSERKS0_ @ 642 NONAME
	_ZN10QtMobilityanERKNS_14QContactFilterES2_ @ 643 NONAME
	_ZN10QtMobilitylsE6QDebugRKNS_10QContactIdE @ 644 NONAME
	_ZN10QtMobilitylsE6QDebugRKNS_14QContactDetailE @ 645 NONAME
	_ZN10QtMobilitylsE6QDebugRKNS_20QContactRelationshipE @ 646 NONAME
	_ZN10QtMobilitylsE6QDebugRKNS_8QContactE @ 647 NONAME
	_ZN10QtMobilityorERKNS_14QContactFilterES2_ @ 648 NONAME
	_ZNK10QtMobility10QContactId10managerUriEv @ 649 NONAME
	_ZNK10QtMobility10QContactId7localIdEv @ 650 NONAME
	_ZNK10QtMobility10QContactIdeqERKS0_ @ 651 NONAME
	_ZNK10QtMobility10QContactIdltERKS0_ @ 652 NONAME
	_ZNK10QtMobility10QContactIdneERKS0_ @ 653 NONAME
	_ZNK10QtMobility14QContactAction10metaObjectEv @ 654 NONAME
	_ZNK10QtMobility14QContactAction16supportedDetailsERKNS_8QContactE @ 655 NONAME
	_ZNK10QtMobility14QContactAvatar6avatarEv @ 656 NONAME
	_ZNK10QtMobility14QContactAvatar6pixmapEv @ 657 NONAME
	_ZNK10QtMobility14QContactAvatar7subTypeEv @ 658 NONAME
	_ZNK10QtMobility14QContactDetail12variantValueERK7QString @ 659 NONAME
	_ZNK10QtMobility14QContactDetail13variantValuesEv @ 660 NONAME
	_ZNK10QtMobility14QContactDetail14definitionNameEv @ 661 NONAME
	_ZNK10QtMobility14QContactDetail16preferredActionsEv @ 662 NONAME
	_ZNK10QtMobility14QContactDetail17accessConstraintsEv @ 663 NONAME
	_ZNK10QtMobility14QContactDetail3keyEv @ 664 NONAME
	_ZNK10QtMobility14QContactDetail5valueERK7QString @ 665 NONAME
	_ZNK10QtMobility14QContactDetail7isEmptyEv @ 666 NONAME
	_ZNK10QtMobility14QContactDetail8hasValueERK7QString @ 667 NONAME
	_ZNK10QtMobility14QContactDetaileqERKS0_ @ 668 NONAME
	_ZNK10QtMobility14QContactFilter4typeEv @ 669 NONAME
	_ZNK10QtMobility14QContactFiltereqERKS0_ @ 670 NONAME
	_ZNK10QtMobility15QContactManager10contactIdsERK5QListINS_17QContactSortOrderEE @ 671 NONAME
	_ZNK10QtMobility15QContactManager10contactIdsERKNS_14QContactFilterERK5QListINS_17QContactSortOrderEE @ 672 NONAME
	_ZNK10QtMobility15QContactManager10hasFeatureENS0_14ManagerFeatureERK7QString @ 673 NONAME
	_ZNK10QtMobility15QContactManager10managerUriEv @ 674 NONAME
	_ZNK10QtMobility15QContactManager10metaObjectEv @ 675 NONAME
	_ZNK10QtMobility15QContactManager11managerNameEv @ 676 NONAME
	_ZNK10QtMobility15QContactManager13relationshipsERK7QStringRKNS_10QContactIdENS_20QContactRelationship4RoleE @ 677 NONAME
	_ZNK10QtMobility15QContactManager13relationshipsERK7QStringRKNS_10QContactIdENS_26QContactRelationshipFilter4RoleE @ 678 NONAME
	_ZNK10QtMobility15QContactManager13relationshipsERKNS_10QContactIdENS_20QContactRelationship4RoleE @ 679 NONAME
	_ZNK10QtMobility15QContactManager13relationshipsERKNS_10QContactIdENS_26QContactRelationshipFilter4RoleE @ 680 NONAME
	_ZNK10QtMobility15QContactManager13selfContactIdEv @ 681 NONAME
	_ZNK10QtMobility15QContactManager14managerVersionEv @ 682 NONAME
	_ZNK10QtMobility15QContactManager16detailDefinitionERK7QStringS3_ @ 683 NONAME
	_ZNK10QtMobility15QContactManager17detailDefinitionsERK7QString @ 684 NONAME
	_ZNK10QtMobility15QContactManager17isFilterSupportedERKNS_14QContactFilterE @ 685 NONAME
	_ZNK10QtMobility15QContactManager17managerParametersEv @ 686 NONAME
	_ZNK10QtMobility15QContactManager18supportedDataTypesEv @ 687 NONAME
	_ZNK10QtMobility15QContactManager21supportedContactTypesEv @ 688 NONAME
	_ZNK10QtMobility15QContactManager23synthesizedDisplayLabelERKNS_8QContactE @ 689 NONAME
	_ZNK10QtMobility15QContactManager26supportedRelationshipTypesERK7QString @ 690 NONAME
	_ZNK10QtMobility15QContactManager27isRelationshipTypeSupportedERK7QStringS3_ @ 691 NONAME
	_ZNK10QtMobility15QContactManager5errorEv @ 692 NONAME
	_ZNK10QtMobility15QContactManager7contactERKjRK11QStringList @ 693 NONAME
	_ZNK10QtMobility15QContactManager7contactERKjRKNS_17QContactFetchHintE @ 694 NONAME
	_ZNK10QtMobility15QContactManager8contactsERK5QListINS_17QContactSortOrderEERK11QStringList @ 695 NONAME
	_ZNK10QtMobility15QContactManager8contactsERK5QListINS_17QContactSortOrderEERKNS_17QContactFetchHintE @ 696 NONAME
	_ZNK10QtMobility15QContactManager8contactsERKNS_14QContactFilterERK5QListINS_17QContactSortOrderEERK11QStringList @ 697 NONAME
	_ZNK10QtMobility15QContactManager8contactsERKNS_14QContactFilterERK5QListINS_17QContactSortOrderEERKNS_17QContactFetchHintE @ 698 NONAME
	_ZNK10QtMobility17QContactChangeSet13addedContactsEv @ 699 NONAME
	_ZNK10QtMobility17QContactChangeSet15changedContactsEv @ 700 NONAME
	_ZNK10QtMobility17QContactChangeSet15removedContactsEv @ 701 NONAME
	_ZNK10QtMobility17QContactChangeSet22oldAndNewSelfContactIdEv @ 702 NONAME
	_ZNK10QtMobility17QContactChangeSet26addedRelationshipsContactsEv @ 703 NONAME
	_ZNK10QtMobility17QContactChangeSet28removedRelationshipsContactsEv @ 704 NONAME
	_ZNK10QtMobility17QContactFetchHint17optimizationHintsEv @ 705 NONAME
	_ZNK10QtMobility17QContactFetchHint21detailDefinitionsHintEv @ 706 NONAME
	_ZNK10QtMobility17QContactFetchHint21relationshipTypesHintEv @ 707 NONAME
	_ZNK10QtMobility17QContactSortOrder11blankPolicyEv @ 708 NONAME
	_ZNK10QtMobility17QContactSortOrder15caseSensitivityEv @ 709 NONAME
	_ZNK10QtMobility17QContactSortOrder15detailFieldNameEv @ 710 NONAME
	_ZNK10QtMobility17QContactSortOrder20detailDefinitionNameEv @ 711 NONAME
	_ZNK10QtMobility17QContactSortOrder7isValidEv @ 712 NONAME
	_ZNK10QtMobility17QContactSortOrder9directionEv @ 713 NONAME
	_ZNK10QtMobility17QContactSortOrdereqERKS0_ @ 714 NONAME
	_ZNK10QtMobility19QContactSaveRequest10metaObjectEv @ 715 NONAME
	_ZNK10QtMobility19QContactSaveRequest8contactsEv @ 716 NONAME
	_ZNK10QtMobility19QContactSaveRequest8errorMapEv @ 717 NONAME
	_ZNK10QtMobility19QContactUnionFilter7filtersEv @ 718 NONAME
	_ZNK10QtMobility20QContactActionFilter10actionNameEv @ 719 NONAME
	_ZNK10QtMobility20QContactActionFilter10vendorNameEv @ 720 NONAME
	_ZNK10QtMobility20QContactActionFilter21implementationVersionEv @ 721 NONAME
	_ZNK10QtMobility20QContactActionFilter5valueEv @ 722 NONAME
	_ZNK10QtMobility20QContactDetailFilter10matchFlagsEv @ 723 NONAME
	_ZNK10QtMobility20QContactDetailFilter15detailFieldNameEv @ 724 NONAME
	_ZNK10QtMobility20QContactDetailFilter20detailDefinitionNameEv @ 725 NONAME
	_ZNK10QtMobility20QContactDetailFilter5valueEv @ 726 NONAME
	_ZNK10QtMobility20QContactFetchRequest10metaObjectEv @ 727 NONAME
	_ZNK10QtMobility20QContactFetchRequest22definitionRestrictionsEv @ 728 NONAME
	_ZNK10QtMobility20QContactFetchRequest6filterEv @ 729 NONAME
	_ZNK10QtMobility20QContactFetchRequest7sortingEv @ 730 NONAME
	_ZNK10QtMobility20QContactFetchRequest8contactsEv @ 731 NONAME
	_ZNK10QtMobility20QContactFetchRequest9fetchHintEv @ 732 NONAME
	_ZNK10QtMobility20QContactRelationship16relationshipTypeEv @ 733 NONAME
	_ZNK10QtMobility20QContactRelationship5firstEv @ 734 NONAME
	_ZNK10QtMobility20QContactRelationship6secondEv @ 735 NONAME
	_ZNK10QtMobility20QContactRelationshipeqERKS0_ @ 736 NONAME
	_ZNK10QtMobility21QContactActionFactory10metaObjectEv @ 737 NONAME
	_ZNK10QtMobility21QContactLocalIdFilter3idsEv @ 738 NONAME
	_ZNK10QtMobility21QContactManagerEngine10contactIdsERKNS_14QContactFilterERK5QListINS_17QContactSortOrderEEPNS_15QContactManager5ErrorE @ 739 NONAME
	_ZNK10QtMobility21QContactManagerEngine10hasFeatureENS_15QContactManager14ManagerFeatureERK7QString @ 740 NONAME
	_ZNK10QtMobility21QContactManagerEngine10managerUriEv @ 741 NONAME
	_ZNK10QtMobility21QContactManagerEngine10metaObjectEv @ 742 NONAME
	_ZNK10QtMobility21QContactManagerEngine11managerNameEv @ 743 NONAME
	_ZNK10QtMobility21QContactManagerEngine13relationshipsERK7QStringRKNS_10QContactIdENS_20QContactRelationship4RoleEPNS_15QContactManager5ErrorE @ 744 NONAME
	_ZNK10QtMobility21QContactManagerEngine13selfContactIdEPNS_15QContactManager5ErrorE @ 745 NONAME
	_ZNK10QtMobility21QContactManagerEngine15validateContactERKNS_8QContactEPNS_15QContactManager5ErrorE @ 746 NONAME
	_ZNK10QtMobility21QContactManagerEngine16detailDefinitionERK7QStringS3_PNS_15QContactManager5ErrorE @ 747 NONAME
	_ZNK10QtMobility21QContactManagerEngine17compatibleContactERKNS_8QContactEPNS_15QContactManager5ErrorE @ 748 NONAME
	_ZNK10QtMobility21QContactManagerEngine17detailDefinitionsERK7QStringPNS_15QContactManager5ErrorE @ 749 NONAME
	_ZNK10QtMobility21QContactManagerEngine17isFilterSupportedERKNS_14QContactFilterE @ 750 NONAME
	_ZNK10QtMobility21QContactManagerEngine17managerParametersEv @ 751 NONAME
	_ZNK10QtMobility21QContactManagerEngine18supportedDataTypesEv @ 752 NONAME
	_ZNK10QtMobility21QContactManagerEngine18validateDefinitionERKNS_24QContactDetailDefinitionEPNS_15QContactManager5ErrorE @ 753 NONAME
	_ZNK10QtMobility21QContactManagerEngine21supportedContactTypesEv @ 754 NONAME
	_ZNK10QtMobility21QContactManagerEngine23synthesizedDisplayLabelERKNS_8QContactEPNS_15QContactManager5ErrorE @ 755 NONAME
	_ZNK10QtMobility21QContactManagerEngine27isRelationshipTypeSupportedERK7QStringS3_ @ 756 NONAME
	_ZNK10QtMobility21QContactManagerEngine7contactERKjRKNS_17QContactFetchHintEPNS_15QContactManager5ErrorE @ 757 NONAME
	_ZNK10QtMobility21QContactManagerEngine8contactsERKNS_14QContactFilterERK5QListINS_17QContactSortOrderEERKNS_17QContactFetchHintEPNS_15QContactManager5ErrorE @ 758 NONAME
	_ZNK10QtMobility21QContactOnlineAccount13statusMessageEv @ 759 NONAME
	_ZNK10QtMobility21QContactOnlineAccount8nicknameEv @ 760 NONAME
	_ZNK10QtMobility21QContactOnlineAccount8presenceEv @ 761 NONAME
	_ZNK10QtMobility21QContactRemoveRequest10contactIdsEv @ 762 NONAME
	_ZNK10QtMobility21QContactRemoveRequest10metaObjectEv @ 763 NONAME
	_ZNK10QtMobility21QContactRemoveRequest6filterEv @ 764 NONAME
	_ZNK10QtMobility21QContactRemoveRequest8errorMapEv @ 765 NONAME
	_ZNK10QtMobility23QContactAbstractRequest10isCanceledEv @ 766 NONAME
	_ZNK10QtMobility23QContactAbstractRequest10isFinishedEv @ 767 NONAME
	_ZNK10QtMobility23QContactAbstractRequest10isInactiveEv @ 768 NONAME
	_ZNK10QtMobility23QContactAbstractRequest10metaObjectEv @ 769 NONAME
	_ZNK10QtMobility23QContactAbstractRequest4typeEv @ 770 NONAME
	_ZNK10QtMobility23QContactAbstractRequest5errorEv @ 771 NONAME
	_ZNK10QtMobility23QContactAbstractRequest5stateEv @ 772 NONAME
	_ZNK10QtMobility23QContactAbstractRequest6errorsEv @ 773 NONAME
	_ZNK10QtMobility23QContactAbstractRequest7managerEv @ 774 NONAME
	_ZNK10QtMobility23QContactAbstractRequest8isActiveEv @ 775 NONAME
	_ZNK10QtMobility23QContactChangeLogFilter5sinceEv @ 776 NONAME
	_ZNK10QtMobility23QContactChangeLogFilter9eventTypeEv @ 777 NONAME
	_ZNK10QtMobility24QContactActionDescriptor10actionNameEv @ 778 NONAME
	_ZNK10QtMobility24QContactActionDescriptor10vendorNameEv @ 779 NONAME
	_ZNK10QtMobility24QContactActionDescriptor21implementationVersionEv @ 780 NONAME
	_ZNK10QtMobility24QContactActionDescriptor7isEmptyEv @ 781 NONAME
	_ZNK10QtMobility24QContactActionDescriptoreqERKS0_ @ 782 NONAME
	_ZNK10QtMobility24QContactActionDescriptorltERKS0_ @ 783 NONAME
	_ZNK10QtMobility24QContactActionDescriptorneERKS0_ @ 784 NONAME
	_ZNK10QtMobility24QContactDetailDefinition4nameEv @ 785 NONAME
	_ZNK10QtMobility24QContactDetailDefinition6fieldsEv @ 786 NONAME
	_ZNK10QtMobility24QContactDetailDefinition7isEmptyEv @ 787 NONAME
	_ZNK10QtMobility24QContactDetailDefinition8isUniqueEv @ 788 NONAME
	_ZNK10QtMobility24QContactDetailDefinitioneqERKS0_ @ 789 NONAME
	_ZNK10QtMobility25QContactDetailRangeFilter10matchFlagsEv @ 790 NONAME
	_ZNK10QtMobility25QContactDetailRangeFilter10rangeFlagsEv @ 791 NONAME
	_ZNK10QtMobility25QContactDetailRangeFilter15detailFieldNameEv @ 792 NONAME
	_ZNK10QtMobility25QContactDetailRangeFilter20detailDefinitionNameEv @ 793 NONAME
	_ZNK10QtMobility25QContactDetailRangeFilter8maxValueEv @ 794 NONAME
	_ZNK10QtMobility25QContactDetailRangeFilter8minValueEv @ 795 NONAME
	_ZNK10QtMobility26QContactIntersectionFilter7filtersEv @ 796 NONAME
	_ZNK10QtMobility26QContactRelationshipFilter16relatedContactIdEv @ 797 NONAME
	_ZNK10QtMobility26QContactRelationshipFilter16relationshipTypeEv @ 798 NONAME
	_ZNK10QtMobility26QContactRelationshipFilter18otherParticipantIdEv @ 799 NONAME
	_ZNK10QtMobility26QContactRelationshipFilter18relatedContactRoleEv @ 800 NONAME
	_ZNK10QtMobility26QContactRelationshipFilter4roleEv @ 801 NONAME
	_ZNK10QtMobility27QContactLocalIdFetchRequest10metaObjectEv @ 802 NONAME
	_ZNK10QtMobility27QContactLocalIdFetchRequest3idsEv @ 803 NONAME
	_ZNK10QtMobility27QContactLocalIdFetchRequest6filterEv @ 804 NONAME
	_ZNK10QtMobility27QContactLocalIdFetchRequest7sortingEv @ 805 NONAME
	_ZNK10QtMobility28QContactManagerEngineFactory31supportedImplementationVersionsEv @ 806 NONAME
	_ZNK10QtMobility29QContactDetailFieldDefinition15allowableValuesEv @ 807 NONAME
	_ZNK10QtMobility29QContactDetailFieldDefinition8dataTypeEv @ 808 NONAME
	_ZNK10QtMobility29QContactDetailFieldDefinitioneqERKS0_ @ 809 NONAME
	_ZNK10QtMobility29QContactDetailFieldDefinitionneERKS0_ @ 810 NONAME
	_ZNK10QtMobility31QContactRelationshipSaveRequest10metaObjectEv @ 811 NONAME
	_ZNK10QtMobility31QContactRelationshipSaveRequest13relationshipsEv @ 812 NONAME
	_ZNK10QtMobility31QContactRelationshipSaveRequest8errorMapEv @ 813 NONAME
	_ZNK10QtMobility32QContactRelationshipFetchRequest10metaObjectEv @ 814 NONAME
	_ZNK10QtMobility32QContactRelationshipFetchRequest13relationshipsEv @ 815 NONAME
	_ZNK10QtMobility32QContactRelationshipFetchRequest16relationshipTypeEv @ 816 NONAME
	_ZNK10QtMobility32QContactRelationshipFetchRequest5firstEv @ 817 NONAME
	_ZNK10QtMobility32QContactRelationshipFetchRequest6secondEv @ 818 NONAME
	_ZNK10QtMobility33QContactRelationshipRemoveRequest10metaObjectEv @ 819 NONAME
	_ZNK10QtMobility33QContactRelationshipRemoveRequest13relationshipsEv @ 820 NONAME
	_ZNK10QtMobility33QContactRelationshipRemoveRequest16relationshipTypeEv @ 821 NONAME
	_ZNK10QtMobility33QContactRelationshipRemoveRequest5firstEv @ 822 NONAME
	_ZNK10QtMobility33QContactRelationshipRemoveRequest6secondEv @ 823 NONAME
	_ZNK10QtMobility33QContactRelationshipRemoveRequest8errorMapEv @ 824 NONAME
	_ZNK10QtMobility35QContactDetailDefinitionSaveRequest10metaObjectEv @ 825 NONAME
	_ZNK10QtMobility35QContactDetailDefinitionSaveRequest11contactTypeEv @ 826 NONAME
	_ZNK10QtMobility35QContactDetailDefinitionSaveRequest11definitionsEv @ 827 NONAME
	_ZNK10QtMobility35QContactDetailDefinitionSaveRequest8errorMapEv @ 828 NONAME
	_ZNK10QtMobility36QContactDetailDefinitionFetchRequest10metaObjectEv @ 829 NONAME
	_ZNK10QtMobility36QContactDetailDefinitionFetchRequest11contactTypeEv @ 830 NONAME
	_ZNK10QtMobility36QContactDetailDefinitionFetchRequest11definitionsEv @ 831 NONAME
	_ZNK10QtMobility36QContactDetailDefinitionFetchRequest15definitionNamesEv @ 832 NONAME
	_ZNK10QtMobility36QContactDetailDefinitionFetchRequest8errorMapEv @ 833 NONAME
	_ZNK10QtMobility37QContactDetailDefinitionRemoveRequest10metaObjectEv @ 834 NONAME
	_ZNK10QtMobility37QContactDetailDefinitionRemoveRequest11contactTypeEv @ 835 NONAME
	_ZNK10QtMobility37QContactDetailDefinitionRemoveRequest15definitionNamesEv @ 836 NONAME
	_ZNK10QtMobility37QContactDetailDefinitionRemoveRequest8errorMapEv @ 837 NONAME
	_ZNK10QtMobility8QContact12displayLabelEv @ 838 NONAME
	_ZNK10QtMobility8QContact13relationshipsERK7QString @ 839 NONAME
	_ZNK10QtMobility8QContact15preferredDetailERK7QString @ 840 NONAME
	_ZNK10QtMobility8QContact15relatedContactsERK7QStringNS_20QContactRelationship4RoleE @ 841 NONAME
	_ZNK10QtMobility8QContact15relatedContactsERK7QStringNS_26QContactRelationshipFilter4RoleE @ 842 NONAME
	_ZNK10QtMobility8QContact16availableActionsERK7QStringi @ 843 NONAME
	_ZNK10QtMobility8QContact16detailWithActionERK7QString @ 844 NONAME
	_ZNK10QtMobility8QContact16preferredDetailsEv @ 845 NONAME
	_ZNK10QtMobility8QContact17detailsWithActionERK7QString @ 846 NONAME
	_ZNK10QtMobility8QContact17isPreferredDetailERK7QStringRKNS_14QContactDetailE @ 847 NONAME
	_ZNK10QtMobility8QContact17relationshipOrderEv @ 848 NONAME
	_ZNK10QtMobility8QContact2idEv @ 849 NONAME
	_ZNK10QtMobility8QContact4typeEv @ 850 NONAME
	_ZNK10QtMobility8QContact6detailERK7QString @ 851 NONAME
	_ZNK10QtMobility8QContact7detailsERK7QString @ 852 NONAME
	_ZNK10QtMobility8QContact7detailsERK7QStringS3_S3_ @ 853 NONAME
	_ZNK10QtMobility8QContact7isEmptyEv @ 854 NONAME
	_ZNK10QtMobility8QContact7localIdEv @ 855 NONAME
	_ZNK10QtMobility8QContacteqERKS0_ @ 856 NONAME
	_ZTIN10QtMobility12QContactNameE @ 857 NONAME ABSENT
	_ZTIN10QtMobility12QContactTypeE @ 858 NONAME ABSENT
	_ZTIN10QtMobility14QContactActionE @ 859 NONAME
	_ZTIN10QtMobility14QContactDetailE @ 860 NONAME
	_ZTIN10QtMobility14QContactFilterE @ 861 NONAME
	_ZTIN10QtMobility15QContactManagerE @ 862 NONAME
	_ZTIN10QtMobility17QContactTimestampE @ 863 NONAME ABSENT
	_ZTIN10QtMobility19QContactSaveRequestE @ 864 NONAME
	_ZTIN10QtMobility19QContactUnionFilterE @ 865 NONAME ABSENT
	_ZTIN10QtMobility20QContactActionFilterE @ 866 NONAME ABSENT
	_ZTIN10QtMobility20QContactDetailFilterE @ 867 NONAME ABSENT
	_ZTIN10QtMobility20QContactDisplayLabelE @ 868 NONAME ABSENT
	_ZTIN10QtMobility20QContactFetchRequestE @ 869 NONAME
	_ZTIN10QtMobility20QContactOrganizationE @ 870 NONAME ABSENT
	_ZTIN10QtMobility21QContactActionFactoryE @ 871 NONAME
	_ZTIN10QtMobility21QContactInvalidFilterE @ 872 NONAME ABSENT
	_ZTIN10QtMobility21QContactLocalIdFilterE @ 873 NONAME ABSENT
	_ZTIN10QtMobility21QContactManagerEngineE @ 874 NONAME
	_ZTIN10QtMobility21QContactRemoveRequestE @ 875 NONAME
	_ZTIN10QtMobility23QContactAbstractRequestE @ 876 NONAME
	_ZTIN10QtMobility23QContactChangeLogFilterE @ 877 NONAME ABSENT
	_ZTIN10QtMobility25QContactDetailRangeFilterE @ 878 NONAME ABSENT
	_ZTIN10QtMobility26QContactIntersectionFilterE @ 879 NONAME ABSENT
	_ZTIN10QtMobility26QContactRelationshipFilterE @ 880 NONAME ABSENT
	_ZTIN10QtMobility27QContactLocalIdFetchRequestE @ 881 NONAME
	_ZTIN10QtMobility28QContactManagerEngineFactoryE @ 882 NONAME
	_ZTIN10QtMobility31QContactRelationshipSaveRequestE @ 883 NONAME
	_ZTIN10QtMobility32QContactRelationshipFetchRequestE @ 884 NONAME
	_ZTIN10QtMobility33QContactRelationshipRemoveRequestE @ 885 NONAME
	_ZTIN10QtMobility35QContactDetailDefinitionSaveRequestE @ 886 NONAME
	_ZTIN10QtMobility36QContactDetailDefinitionFetchRequestE @ 887 NONAME
	_ZTIN10QtMobility37QContactDetailDefinitionRemoveRequestE @ 888 NONAME
	_ZTVN10QtMobility12QContactNameE @ 889 NONAME ABSENT
	_ZTVN10QtMobility12QContactTypeE @ 890 NONAME ABSENT
	_ZTVN10QtMobility14QContactActionE @ 891 NONAME
	_ZTVN10QtMobility14QContactDetailE @ 892 NONAME
	_ZTVN10QtMobility14QContactFilterE @ 893 NONAME
	_ZTVN10QtMobility15QContactManagerE @ 894 NONAME
	_ZTVN10QtMobility17QContactTimestampE @ 895 NONAME ABSENT
	_ZTVN10QtMobility19QContactSaveRequestE @ 896 NONAME
	_ZTVN10QtMobility19QContactUnionFilterE @ 897 NONAME ABSENT
	_ZTVN10QtMobility20QContactActionFilterE @ 898 NONAME ABSENT
	_ZTVN10QtMobility20QContactDetailFilterE @ 899 NONAME ABSENT
	_ZTVN10QtMobility20QContactDisplayLabelE @ 900 NONAME ABSENT
	_ZTVN10QtMobility20QContactFetchRequestE @ 901 NONAME
	_ZTVN10QtMobility20QContactOrganizationE @ 902 NONAME ABSENT
	_ZTVN10QtMobility21QContactActionFactoryE @ 903 NONAME
	_ZTVN10QtMobility21QContactInvalidFilterE @ 904 NONAME ABSENT
	_ZTVN10QtMobility21QContactLocalIdFilterE @ 905 NONAME ABSENT
	_ZTVN10QtMobility21QContactManagerEngineE @ 906 NONAME
	_ZTVN10QtMobility21QContactRemoveRequestE @ 907 NONAME
	_ZTVN10QtMobility23QContactAbstractRequestE @ 908 NONAME
	_ZTVN10QtMobility23QContactChangeLogFilterE @ 909 NONAME ABSENT
	_ZTVN10QtMobility25QContactDetailRangeFilterE @ 910 NONAME ABSENT
	_ZTVN10QtMobility26QContactIntersectionFilterE @ 911 NONAME ABSENT
	_ZTVN10QtMobility26QContactRelationshipFilterE @ 912 NONAME ABSENT
	_ZTVN10QtMobility27QContactLocalIdFetchRequestE @ 913 NONAME
	_ZTVN10QtMobility28QContactManagerEngineFactoryE @ 914 NONAME
	_ZTVN10QtMobility31QContactRelationshipSaveRequestE @ 915 NONAME
	_ZTVN10QtMobility32QContactRelationshipFetchRequestE @ 916 NONAME
	_ZTVN10QtMobility33QContactRelationshipRemoveRequestE @ 917 NONAME
	_ZTVN10QtMobility35QContactDetailDefinitionSaveRequestE @ 918 NONAME
	_ZTVN10QtMobility36QContactDetailDefinitionFetchRequestE @ 919 NONAME
	_ZTVN10QtMobility37QContactDetailDefinitionRemoveRequestE @ 920 NONAME

