EXPORTS
	??1CPsClientData@@UAE@XZ @ 1 NONAME ; CPsClientData::~CPsClientData(void)
	??1CPsData@@UAE@XZ @ 2 NONAME ; CPsData::~CPsData(void)
	??1CPsPattern@@UAE@XZ @ 3 NONAME ; CPsPattern::~CPsPattern(void)
	??1CPsQuery@@UAE@XZ @ 4 NONAME ; CPsQuery::~CPsQuery(void)
	??1CPsQueryItem@@UAE@XZ @ 5 NONAME ; CPsQueryItem::~CPsQueryItem(void)
	??1CPsSettings@@UAE@XZ @ 6 NONAME ; CPsSettings::~CPsSettings(void)
	??1CWords@@UAE@XZ @ 7 NONAME ; CWords::~CWords(void)
	?AddIntDataExtL@CPsData@@QAEXH@Z @ 8 NONAME ; void CPsData::AddIntDataExtL(int)
	?AppendL@CPsQuery@@QAEXABVCPsQueryItem@@@Z @ 9 NONAME ; void CPsQuery::AppendL(class CPsQueryItem const &)
	?Character@CPsQueryItem@@QBE?AVTChar@@XZ @ 10 NONAME ; class TChar CPsQueryItem::Character(void) const
	?ClearDataMatches@CPsData@@QAEXXZ @ 11 NONAME ; void CPsData::ClearDataMatches(void)
	?CloneL@CPsClientData@@QBEPAV1@XZ @ 12 NONAME ; class CPsClientData * CPsClientData::CloneL(void) const
	?CloneL@CPsSettings@@QBEPAV1@XZ @ 13 NONAME ; class CPsSettings * CPsSettings::CloneL(void) const
	?CompareByData@CPsData@@SAHABV1@0@Z @ 14 NONAME ; int CPsData::CompareByData(class CPsData const &, class CPsData const &)
	?CompareById@CPsData@@SAHABV1@0@Z @ 15 NONAME ; int CPsData::CompareById(class CPsData const &, class CPsData const &)
	?Count@CPsQuery@@QAEHXZ @ 16 NONAME ; int CPsQuery::Count(void)
	?Data@CPsClientData@@QBEPAVHBufC16@@H@Z @ 17 NONAME ; class HBufC16 * CPsClientData::Data(int) const
	?Data@CPsData@@QBEPAVHBufC16@@H@Z @ 18 NONAME ; class HBufC16 * CPsData::Data(int) const
	?DataElementCount@CPsClientData@@QBEHXZ @ 19 NONAME ; int CPsClientData::DataElementCount(void) const
	?DataElementCount@CPsData@@QBEHXZ @ 20 NONAME ; int CPsData::DataElementCount(void) const
	?DataExtension@CPsClientData@@QBEPAXXZ @ 21 NONAME ; void * CPsClientData::DataExtension(void) const
	?DataExtension@CPsData@@QBEPAXXZ @ 22 NONAME ; void * CPsData::DataExtension(void) const
	?DataMatch@CPsData@@QAEEXZ @ 23 NONAME ; unsigned char CPsData::DataMatch(void)
	?DisplayFieldsL@CPsSettings@@QBEXAAV?$RArray@H@@@Z @ 24 NONAME ; void CPsSettings::DisplayFieldsL(class RArray<int> &) const
	?ExternalizeL@CPsClientData@@UBEXAAVRWriteStream@@@Z @ 25 NONAME ; void CPsClientData::ExternalizeL(class RWriteStream &) const
	?ExternalizeL@CPsData@@UBEXAAVRWriteStream@@@Z @ 26 NONAME ; void CPsData::ExternalizeL(class RWriteStream &) const
	?ExternalizeL@CPsPattern@@UAEXAAVRWriteStream@@@Z @ 27 NONAME ; void CPsPattern::ExternalizeL(class RWriteStream &)
	?ExternalizeL@CPsQuery@@UBEXAAVRWriteStream@@@Z @ 28 NONAME ; void CPsQuery::ExternalizeL(class RWriteStream &) const
	?ExternalizeL@CPsQueryItem@@UBEXAAVRWriteStream@@@Z @ 29 NONAME ; void CPsQueryItem::ExternalizeL(class RWriteStream &) const
	?ExternalizeL@CPsSettings@@UBEXAAVRWriteStream@@@Z @ 30 NONAME ; void CPsSettings::ExternalizeL(class RWriteStream &) const
	?FieldMatch@CPsClientData@@QBEEXZ @ 31 NONAME ; unsigned char CPsClientData::FieldMatch(void) const
	?FirstIndex@CPsPattern@@QAEHXZ @ 32 NONAME ; int CPsPattern::FirstIndex(void)
	?GetGroupIdsL@CPsSettings@@QAEXAAV?$RArray@H@@@Z @ 33 NONAME ; void CPsSettings::GetGroupIdsL(class RArray<int> &)
	?GetItemAtL@CPsQuery@@QAEAAVCPsQueryItem@@H@Z @ 34 NONAME ; class CPsQueryItem & CPsQuery::GetItemAtL(int)
	?GetSortType@CPsSettings@@QBE?AW4TSortType@@XZ @ 35 NONAME ; enum TSortType CPsSettings::GetSortType(void) const
	?Id@CPsClientData@@QBEHXZ @ 36 NONAME ; int CPsClientData::Id(void) const
	?Id@CPsData@@QBEHXZ @ 37 NONAME ; int CPsData::Id(void) const
	?InsertL@CPsQuery@@QAEXABVCPsQueryItem@@H@Z @ 38 NONAME ; void CPsQuery::InsertL(class CPsQueryItem const &, int)
	?IntDataExt@CPsData@@QAEXAAV?$RArray@H@@@Z @ 39 NONAME ; void CPsData::IntDataExt(class RArray<int> &)
	?InternalizeL@CPsClientData@@UAEXAAVRReadStream@@@Z @ 40 NONAME ; void CPsClientData::InternalizeL(class RReadStream &)
	?InternalizeL@CPsData@@UAEXAAVRReadStream@@@Z @ 41 NONAME ; void CPsData::InternalizeL(class RReadStream &)
	?InternalizeL@CPsPattern@@UAEXAAVRReadStream@@@Z @ 42 NONAME ; void CPsPattern::InternalizeL(class RReadStream &)
	?InternalizeL@CPsQuery@@UAEXAAVRReadStream@@@Z @ 43 NONAME ; void CPsQuery::InternalizeL(class RReadStream &)
	?InternalizeL@CPsQueryItem@@UAEXAAVRReadStream@@@Z @ 44 NONAME ; void CPsQueryItem::InternalizeL(class RReadStream &)
	?InternalizeL@CPsSettings@@UAEXAAVRReadStream@@@Z @ 45 NONAME ; void CPsSettings::InternalizeL(class RReadStream &)
	?IsDataMatch@CPsData@@QAEHH@Z @ 46 NONAME ; int CPsData::IsDataMatch(int)
	?IsEmpty@CPcsDebugArr@@QAEHXZ @ 47 NONAME ; int CPcsDebugArr::IsEmpty(void)
	?IsMarked@CPsClientData@@QBEHXZ @ 48 NONAME ; int CPsClientData::IsMarked(void) const
	?KeyboardModeL@CPsQuery@@QAE?AW4TKeyboardModes@@XZ @ 49 NONAME ; enum TKeyboardModes CPsQuery::KeyboardModeL(void)
	?Mark@CPcsDebug@@QAAXV?$TRefByValue@$$CBVTDesC16@@@@ZZ @ 50 NONAME ; void CPcsDebug::Mark(class TRefByValue<class TDesC16 const >, ...)
	?MaxResults@CPsSettings@@QBEHXZ @ 51 NONAME ; int CPsSettings::MaxResults(void) const
	?MdcaCount@CWords@@UBEHXZ @ 52 NONAME ; int CWords::MdcaCount(void) const
	?MdcaPoint@CWords@@UBE?AVTPtrC16@@H@Z @ 53 NONAME ; class TPtrC16 CWords::MdcaPoint(int) const
	?Mode@CPsQueryItem@@QBE?AW4TKeyboardModes@@XZ @ 54 NONAME ; enum TKeyboardModes CPsQueryItem::Mode(void) const
	?NewL@CPcsDebug@@SAPAV1@XZ @ 55 NONAME ; class CPcsDebug * CPcsDebug::NewL(void)
	?NewL@CPcsDebugArr@@SAPAV1@XZ @ 56 NONAME ; class CPcsDebugArr * CPcsDebugArr::NewL(void)
	?NewL@CPsClientData@@SAPAV1@XZ @ 57 NONAME ; class CPsClientData * CPsClientData::NewL(void)
	?NewL@CPsData@@SAPAV1@XZ @ 58 NONAME ; class CPsData * CPsData::NewL(void)
	?NewL@CPsPattern@@SAPAV1@XZ @ 59 NONAME ; class CPsPattern * CPsPattern::NewL(void)
	?NewL@CPsQuery@@SAPAV1@XZ @ 60 NONAME ; class CPsQuery * CPsQuery::NewL(void)
	?NewL@CPsQueryItem@@SAPAV1@XZ @ 61 NONAME ; class CPsQueryItem * CPsQueryItem::NewL(void)
	?NewL@CPsSettings@@SAPAV1@XZ @ 62 NONAME ; class CPsSettings * CPsSettings::NewL(void)
	?NewLC@CWords@@SAPAV1@ABVTDesC16@@@Z @ 63 NONAME ; class CWords * CWords::NewLC(class TDesC16 const &)
	?Pattern@CPsPattern@@QAEAAVTDesC16@@XZ @ 64 NONAME ; class TDesC16 & CPsPattern::Pattern(void)
	?Pop@CPcsDebugArr@@QAEPAVCPcsDebug@@XZ @ 65 NONAME ; class CPcsDebug * CPcsDebugArr::Pop(void)
	?PrintQuery@CPsQuery@@QAEXXZ @ 66 NONAME ; void CPsQuery::PrintQuery(void)
	?Push@CPcsDebugArr@@QAEXAAVCPcsDebug@@@Z @ 67 NONAME ; void CPcsDebugArr::Push(class CPcsDebug &)
	?QueryAsStringLC@CPsQuery@@QAEAAVTDesC16@@XZ @ 68 NONAME ; class TDesC16 & CPsQuery::QueryAsStringLC(void)
	?Remove@CPsQuery@@QAEXH@Z @ 69 NONAME ; void CPsQuery::Remove(int)
	?RemoveIntDataExt@CPsData@@QAEXH@Z @ 70 NONAME ; void CPsData::RemoveIntDataExt(int)
	?Reset@CPsQuery@@QAEXXZ @ 71 NONAME ; void CPsQuery::Reset(void)
	?SearchUrisL@CPsSettings@@QBEXAAV?$RPointerArray@VTDesC16@@@@@Z @ 72 NONAME ; void CPsSettings::SearchUrisL(class RPointerArray<class TDesC16> &) const
	?SetCharacter@CPsQueryItem@@QAEXVTChar@@@Z @ 73 NONAME ; void CPsQueryItem::SetCharacter(class TChar)
	?SetDataExtension@CPsData@@QAEXPAX@Z @ 74 NONAME ; void CPsData::SetDataExtension(void *)
	?SetDataExtensionL@CPsClientData@@QAEXPAX@Z @ 75 NONAME ; void CPsClientData::SetDataExtensionL(void *)
	?SetDataL@CPsClientData@@QAEXHABVTDesC16@@@Z @ 76 NONAME ; void CPsClientData::SetDataL(int, class TDesC16 const &)
	?SetDataL@CPsData@@QAEXHABVTDesC16@@@Z @ 77 NONAME ; void CPsData::SetDataL(int, class TDesC16 const &)
	?SetDataMatch@CPsData@@QAEXH@Z @ 78 NONAME ; void CPsData::SetDataMatch(int)
	?SetDisplayFieldsL@CPsSettings@@QAEXABV?$RArray@H@@@Z @ 79 NONAME ; void CPsSettings::SetDisplayFieldsL(class RArray<int> const &)
	?SetFieldMatch@CPsClientData@@QAEXE@Z @ 80 NONAME ; void CPsClientData::SetFieldMatch(unsigned char)
	?SetFirstIndex@CPsPattern@@QAEXH@Z @ 81 NONAME ; void CPsPattern::SetFirstIndex(int)
	?SetId@CPsClientData@@QAEXH@Z @ 82 NONAME ; void CPsClientData::SetId(int)
	?SetId@CPsData@@QAEXH@Z @ 83 NONAME ; void CPsData::SetId(int)
	?SetMark@CPsClientData@@QAEXXZ @ 84 NONAME ; void CPsClientData::SetMark(void)
	?SetMaxResults@CPsSettings@@QAEXH@Z @ 85 NONAME ; void CPsSettings::SetMaxResults(int)
	?SetMode@CPsQueryItem@@QAEXW4TKeyboardModes@@@Z @ 86 NONAME ; void CPsQueryItem::SetMode(enum TKeyboardModes)
	?SetPatternL@CPsPattern@@QAEXAAVTDesC16@@@Z @ 87 NONAME ; void CPsPattern::SetPatternL(class TDesC16 &)
	?SetSearchUrisL@CPsSettings@@QAEXABV?$RPointerArray@VTDesC16@@@@@Z @ 88 NONAME ; void CPsSettings::SetSearchUrisL(class RPointerArray<class TDesC16> const &)
	?SetSortType@CPsSettings@@QAEXW4TSortType@@@Z @ 89 NONAME ; void CPsSettings::SetSortType(enum TSortType)
	?SetUriId@CPsData@@QAEXE@Z @ 90 NONAME ; void CPsData::SetUriId(unsigned char)
	?SetUriL@CPsClientData@@QAEXABVTDesC16@@@Z @ 91 NONAME ; void CPsClientData::SetUriL(class TDesC16 const &)
	?UnMark@CPcsDebug@@QAAXV?$TRefByValue@$$CBVTDesC16@@@@ZZ @ 92 NONAME ; void CPcsDebug::UnMark(class TRefByValue<class TDesC16 const >, ...)
	?Uri@CPsClientData@@QBEPAVHBufC16@@XZ @ 93 NONAME ; class HBufC16 * CPsClientData::Uri(void) const
	?UriId@CPsData@@QBEEXZ @ 94 NONAME ; unsigned char CPsData::UriId(void) const
	?__LatencyMarkEnd@CPcsDebugWrapper@@SAXV?$TRefByValue@$$CBVTDesC16@@@@@Z @ 95 NONAME ; void CPcsDebugWrapper::__LatencyMarkEnd(class TRefByValue<class TDesC16 const >)
	?__LatencyMarkStartL@CPcsDebugWrapper@@SAXV?$TRefByValue@$$CBVTDesC16@@@@@Z @ 96 NONAME ; void CPcsDebugWrapper::__LatencyMarkStartL(class TRefByValue<class TDesC16 const >)
	?PrintMatchLoc@CPcsDebug@@SAXABVTDesC16@@AAV?$RArray@UTPsMatchLocation@@@@@Z @ 97 NONAME ; void CPcsDebug::PrintMatchLoc(class TDesC16 const &, class RArray<struct TPsMatchLocation> &)
	?PrintQueryL@CPcsDebug@@SAXABVTDesC16@@AAVCPsQuery@@@Z @ 98 NONAME ; void CPcsDebug::PrintQueryL(class TDesC16 const &, class CPsQuery &)
	?PrintQueryListL@CPcsDebug@@SAXABVTDesC16@@AAV?$RPointerArray@VCPsQuery@@@@@Z @ 99 NONAME ; void CPcsDebug::PrintQueryListL(class TDesC16 const &, class RPointerArray<class CPsQuery> &)
	?PrintMatchSet@CPcsDebug@@SAXABVTDesC16@@AAV?$RPointerArray@VTDesC16@@@@@Z @ 100 NONAME ; void CPcsDebug::PrintMatchSet(class TDesC16 const &, class RPointerArray<class TDesC16> &)
	?PrintMatchSet@CPcsDebug@@SAXABVTDesC16@@AAVCDesC16Array@@@Z @ 101 NONAME ; void CPcsDebug::PrintMatchSet(class TDesC16 const &, class CDesC16Array &)

