EXPORTS
	_ZN13CPbkAppUiBase21AddAndExecuteCommandLEP11MPbkCommand @ 1 NONAME
	_ZN13CPbkAppUiBaseC2Ev @ 2 NONAME
	_ZN13CPbkAppUiBaseD0Ev @ 3 NONAME
	_ZN13CPbkAppUiBaseD1Ev @ 4 NONAME
	_ZN13CPbkAppUiBaseD2Ev @ 5 NONAME
	_ZN15CPbkAppViewBase14HandleCommandLEi @ 6 NONAME
	_ZN15CPbkAppViewBase15ProcessCommandLEi @ 7 NONAME
	_ZN15CPbkAppViewBase16DynInitMenuPaneLEiP12CEikMenuPane @ 8 NONAME
	_ZN15CPbkAppViewBase16LaunchPopupMenuLEi @ 9 NONAME
	_ZN15CPbkAppViewBase17HandleCommandKeyLERK9TKeyEvent10TEventCode @ 10 NONAME
	_ZN15CPbkAppViewBase19PbkProcessKeyEventLERK9TKeyEvent10TEventCode @ 11 NONAME
	_ZN15CPbkAppViewBase28CreateInterestItemAndAttachLEiiii @ 12 NONAME
	_ZN15CPbkAppViewBaseC2Ev @ 13 NONAME
	_ZN15CPbkAppViewBaseD0Ev @ 14 NONAME
	_ZN15CPbkAppViewBaseD1Ev @ 15 NONAME
	_ZN15CPbkAppViewBaseD2Ev @ 16 NONAME
	_ZN16CPbkCommandStore21AddAndExecuteCommandLEP11MPbkCommand @ 17 NONAME
	_ZN16CPbkCommandStore4NewLEv @ 18 NONAME
	_ZN16CPbkDocumentBaseC2ER15CEikApplication @ 19 NONAME
	_ZN16CPbkDocumentBaseD0Ev @ 20 NONAME
	_ZN16CPbkDocumentBaseD1Ev @ 21 NONAME
	_ZN16CPbkDocumentBaseD2Ev @ 22 NONAME
	_ZN16RPbkResourceFile5CloseEv @ 23 NONAME
	_ZN16RPbkResourceFile5OpenLERK7TDesC16 @ 24 NONAME
	_ZN16RPbkResourceFileC1ER7CCoeEnv @ 25 NONAME
	_ZN16RPbkResourceFileC2ER7CCoeEnv @ 26 NONAME
	_ZN16RPbkResourceFileD1Ev @ 27 NONAME
	_ZN16RPbkResourceFileD2Ev @ 28 NONAME
	_ZN18CPbkAppGlobalsBase9InstanceLEv @ 29 NONAME
	_ZN20CPbkAiwInterestArray4NewLER17CPbkContactEngine @ 30 NONAME
	_ZN24CPbkControlContainerImpl10ConstructLER15MObjectProvider @ 31 NONAME
	_ZN24CPbkControlContainerImpl11SizeChangedEv @ 32 NONAME
	_ZN24CPbkControlContainerImpl12FocusChangedE8TDrawNow @ 33 NONAME
	_ZN24CPbkControlContainerImpl13SetCoeControlEP11CCoeControlRK5TRecti @ 34 NONAME
	_ZN24CPbkControlContainerImpl14DestroyControlEv @ 35 NONAME
	_ZN24CPbkControlContainerImpl14OfferKeyEventLERK9TKeyEvent10TEventCode @ 36 NONAME
	_ZN24CPbkControlContainerImpl14SetHelpContextERK15TCoeHelpContext @ 37 NONAME
	_ZN24CPbkControlContainerImpl18SetKeyEventHandlerEP19MPbkKeyEventHandler @ 38 NONAME
	_ZN24CPbkControlContainerImplC1EP19MPbkKeyEventHandler @ 39 NONAME
	_ZN24CPbkControlContainerImplC2EP19MPbkKeyEventHandler @ 40 NONAME
	_ZN24CPbkControlContainerImplD0Ev @ 41 NONAME
	_ZN24CPbkControlContainerImplD1Ev @ 42 NONAME
	_ZN24CPbkControlContainerImplD2Ev @ 43 NONAME
	_ZNK13CPbkAppUiBase10ActiveViewEv @ 44 NONAME
	_ZNK13CPbkAppUiBase11PbkDocumentEv @ 45 NONAME
	_ZNK15CPbkAppViewBase11ContextPaneEv @ 46 NONAME
	_ZNK15CPbkAppViewBase14ApplicationUidEv @ 47 NONAME
	_ZNK15CPbkAppViewBase14GetViewStateLCEv @ 48 NONAME
	_ZNK15CPbkAppViewBase6EngineEv @ 49 NONAME
	_ZNK15CPbkAppViewBase8PbkAppUiEv @ 50 NONAME
	_ZNK15CPbkAppViewBase9TitlePaneEv @ 51 NONAME
	_ZNK24CPbkControlContainerImpl10CoeControlEv @ 52 NONAME
	_ZNK24CPbkControlContainerImpl14GetHelpContextER15TCoeHelpContext @ 53 NONAME
	_ZNK24CPbkControlContainerImpl15KeyEventHandlerEv @ 54 NONAME
	_ZNK24CPbkControlContainerImpl16ComponentControlEi @ 55 NONAME
	_ZNK24CPbkControlContainerImpl22CountComponentControlsEv @ 56 NONAME
	_ZTI13CPbkAppUiBase @ 57 NONAME ; #<TI>#
	_ZTI15CPbkAppViewBase @ 58 NONAME ; #<TI>#
	_ZTI16CPbkCommandStore @ 59 NONAME ; #<TI>#
	_ZTI16CPbkDocumentBase @ 60 NONAME ; #<TI>#
	_ZTI20CPbkAiwInterestArray @ 61 NONAME ; #<TI>#
	_ZTI24CPbkControlContainerImpl @ 62 NONAME ; #<TI>#
	_ZTV13CPbkAppUiBase @ 63 NONAME ; #<VT>#
	_ZTV15CPbkAppViewBase @ 64 NONAME ; #<VT>#
	_ZTV16CPbkCommandStore @ 65 NONAME ; #<VT>#
	_ZTV16CPbkDocumentBase @ 66 NONAME ; #<VT>#
	_ZTV20CPbkAiwInterestArray @ 67 NONAME ; #<VT>#
	_ZTV24CPbkControlContainerImpl @ 68 NONAME ; #<VT>#
	_ZThn152_N13CPbkAppUiBase21AddAndExecuteCommandLEP11MPbkCommand @ 69 NONAME ; #<thunk>#
	_ZThn152_N13CPbkAppUiBaseD0Ev @ 70 NONAME ; #<thunk>#
	_ZThn152_N13CPbkAppUiBaseD1Ev @ 71 NONAME ; #<thunk>#
	_ZThn4_N16CPbkCommandStore21AddAndExecuteCommandLEP11MPbkCommand @ 72 NONAME ; #<thunk>#
	_ZThn80_N15CPbkAppViewBase19PbkProcessKeyEventLERK9TKeyEvent10TEventCode @ 73 NONAME ; #<thunk>#
	_ZThn12_N15CPbkAppViewBase15ProcessCommandLEi @ 74 NONAME ; #<thunk>#
	_ZThn12_N15CPbkAppViewBase16DynInitMenuPaneLEiP12CEikMenuPane @ 75 NONAME ; #<thunk>#

