EXPORTS
	_ZN17CPbkAddressSelect11TBaseParams11ContactItemEv @ 1 NONAME
	_ZN17CPbkAddressSelect11TBaseParams15SetFocusedFieldEPK20TPbkContactItemField @ 2 NONAME
	_ZN17CPbkAddressSelect11TBaseParams21SetUseDefaultDirectlyEi @ 3 NONAME
	_ZNK17CPbkAddressSelect11TBaseParams12FocusedFieldEv @ 4 NONAME
	_ZNK17CPbkAddressSelect11TBaseParams13SelectedFieldEv @ 5 NONAME
	_ZN17CPbkAddressSelect11TBaseParamsC1ERK15CPbkContactItemPK20TPbkContactItemField @ 6 NONAME
	_ZN17CPbkAddressSelect11TBaseParamsC2ERK15CPbkContactItemPK20TPbkContactItemField @ 7 NONAME
	_ZN17CPbkAddressSelectD0Ev @ 8 NONAME
	_ZN17CPbkAddressSelectD1Ev @ 9 NONAME
	_ZN17CPbkAddressSelectD2Ev @ 10 NONAME
	_ZN17CPbkAddressSelectC2Ev @ 11 NONAME
	_ZN17CPbkAddressSelect9ExecuteLDERNS_11TBaseParamsE @ 12 NONAME
	_ZNK17CPbkAddressSelect11ContactItemEv @ 13 NONAME
	_ZN17CPbkAddressSelect12AttemptExitLEi @ 14 NONAME
	_ZN17CPbkAddressSelect19PbkControlKeyEventLERK9TKeyEvent10TEventCode @ 15 NONAME
	_ZN22CPbkEmailAddressSelectC1Ev @ 16 NONAME
	_ZN22CPbkEmailAddressSelectC2Ev @ 17 NONAME
	_ZN22CPbkEmailAddressSelect7TParamsC1ERK15CPbkContactItem @ 18 NONAME
	_ZN22CPbkEmailAddressSelect7TParamsC2ERK15CPbkContactItem @ 19 NONAME
	_ZN22CPbkEmailAddressSelect9ExecuteLDERNS_7TParamsE @ 20 NONAME
	_ZN22CPbkEmailAddressSelectD0Ev @ 21 NONAME
	_ZN22CPbkEmailAddressSelectD1Ev @ 22 NONAME
	_ZN22CPbkEmailAddressSelectD2Ev @ 23 NONAME
	_ZNK22CPbkEmailAddressSelect12AddressFieldERK20TPbkContactItemField @ 24 NONAME
	_ZN22CPbkEmailAddressSelect12NoAddressesLEv @ 25 NONAME
	_ZN22CPbkEmailAddressSelect11QueryTitleLEv @ 26 NONAME
	_ZNK22CPbkEmailAddressSelect21QuerySoftkeysResourceEv @ 27 NONAME
	_ZN25CPbkMemoryEntryAddItemDlgC1Ev @ 28 NONAME
	_ZN25CPbkMemoryEntryAddItemDlgC2Ev @ 29 NONAME
	_ZN25CPbkMemoryEntryAddItemDlg18ResetWhenDestroyedEPPS_ @ 30 NONAME
	_ZN25CPbkMemoryEntryAddItemDlg9ExecuteLDER13CArrayPtrFlatI13CPbkFieldInfoEi @ 31 NONAME
	_ZN25CPbkMemoryEntryAddItemDlg9ExecuteLDER9CArrayPtrI13CPbkFieldInfoE @ 32 NONAME
	_ZN25CPbkMemoryEntryAddItemDlg9ExecuteLDER9CArrayPtrI13CPbkFieldInfoEiRK7TDesC16 @ 33 NONAME
	_ZN20CPbkMmsAddressSelectC1Ev @ 34 NONAME
	_ZN20CPbkMmsAddressSelectC2Ev @ 35 NONAME
	_ZN20CPbkMmsAddressSelect7TParamsC1ERK15CPbkContactItem @ 36 NONAME
	_ZN20CPbkMmsAddressSelect7TParamsC2ERK15CPbkContactItem @ 37 NONAME
	_ZN20CPbkMmsAddressSelect9ExecuteLDERNS_7TParamsE @ 38 NONAME
	_ZN20CPbkMmsAddressSelectD0Ev @ 39 NONAME
	_ZN20CPbkMmsAddressSelectD1Ev @ 40 NONAME
	_ZN20CPbkMmsAddressSelectD2Ev @ 41 NONAME
	_ZNK20CPbkMmsAddressSelect12AddressFieldERK20TPbkContactItemField @ 42 NONAME
	_ZN20CPbkMmsAddressSelect12NoAddressesLEv @ 43 NONAME
	_ZN20CPbkMmsAddressSelect11QueryTitleLEv @ 44 NONAME
	_ZNK20CPbkMmsAddressSelect21QuerySoftkeysResourceEv @ 45 NONAME
	_ZN25CPbkMultipleEntryFetchDlg7TParamsC1Ev @ 46 NONAME
	_ZN25CPbkMultipleEntryFetchDlg7TParamsC2Ev @ 47 NONAME
	_ZN25CPbkMultipleEntryFetchDlg7TParamscv12TCleanupItemEv @ 48 NONAME
	_ZN25CPbkMultipleEntryFetchDlg4NewLERNS_7TParamsER17CPbkContactEngine @ 49 NONAME
	_ZN25CPbkMultipleEntryFetchDlg12SetMopParentEP15MObjectProvider @ 50 NONAME
	_ZN25CPbkMultipleEntryFetchDlg9ExecuteLDEv @ 51 NONAME
	_ZN21CPbkPhoneNumberSelectC1Ev @ 52 NONAME
	_ZN21CPbkPhoneNumberSelectC2Ev @ 53 NONAME
	_ZN21CPbkPhoneNumberSelect7TParamsC1ERK15CPbkContactItem @ 54 NONAME
	_ZN21CPbkPhoneNumberSelect7TParamsC2ERK15CPbkContactItem @ 55 NONAME
	_ZN21CPbkPhoneNumberSelect9ExecuteLDERNS_7TParamsE @ 56 NONAME
	_ZN21CPbkPhoneNumberSelectD0Ev @ 57 NONAME
	_ZN21CPbkPhoneNumberSelectD1Ev @ 58 NONAME
	_ZN21CPbkPhoneNumberSelectD2Ev @ 59 NONAME
	_ZN21CPbkPhoneNumberSelect11QueryTitleLEv @ 60 NONAME
	_ZNK21CPbkPhoneNumberSelect21QuerySoftkeysResourceEv @ 61 NONAME
	_ZN21CPbkPhoneNumberSelect19PbkControlKeyEventLERK9TKeyEvent10TEventCode @ 62 NONAME
	_ZNK25CPbkPhoneNumberSelectBase12AddressFieldERK20TPbkContactItemField @ 63 NONAME
	_ZN25CPbkPhoneNumberSelectBase12NoAddressesLEv @ 64 NONAME
	_ZN18CPbkSelectFieldDlgC1Ev @ 65 NONAME
	_ZN18CPbkSelectFieldDlgC2Ev @ 66 NONAME
	_ZN18CPbkSelectFieldDlg9ExecuteLDER14CPbkFieldArrayiRK7TDesC16i @ 67 NONAME
	_ZN18CPbkSelectFieldDlgD0Ev @ 68 NONAME
	_ZN18CPbkSelectFieldDlgD1Ev @ 69 NONAME
	_ZN18CPbkSelectFieldDlgD2Ev @ 70 NONAME
	_ZN18CPbkSelectFieldDlg11SetObserverEP22MPbkControlKeyObserver @ 71 NONAME
	_ZN18CPbkSelectFieldDlg12AttemptExitLEi @ 72 NONAME
	_ZN18CPbkSelectFieldDlg18ResetWhenDestroyedEPPS_ @ 73 NONAME
	_ZN20CPbkSmsAddressSelectC1Ev @ 74 NONAME
	_ZN20CPbkSmsAddressSelectC2Ev @ 75 NONAME
	_ZN20CPbkSmsAddressSelect7TParamsC1ERK15CPbkContactItem @ 76 NONAME
	_ZN20CPbkSmsAddressSelect7TParamsC2ERK15CPbkContactItem @ 77 NONAME
	_ZN20CPbkSmsAddressSelectD0Ev @ 78 NONAME
	_ZN20CPbkSmsAddressSelectD1Ev @ 79 NONAME
	_ZN20CPbkSmsAddressSelectD2Ev @ 80 NONAME
	_ZN20CPbkSmsAddressSelect11QueryTitleLEv @ 81 NONAME
	_ZNK20CPbkSmsAddressSelect21QuerySoftkeysResourceEv @ 82 NONAME
	_ZN23CPbkSingleEntryFetchDlg7TParamsC1Ev @ 83 NONAME
	_ZN23CPbkSingleEntryFetchDlg7TParamsC2Ev @ 84 NONAME
	_ZN23CPbkSingleEntryFetchDlg4NewLERNS_7TParamsE @ 85 NONAME
	_ZN23CPbkSingleEntryFetchDlg12SetMopParentEP15MObjectProvider @ 86 NONAME
	_ZN23CPbkSingleEntryFetchDlg18ResetWhenDestroyedEPPS_ @ 87 NONAME
	_ZN23CPbkSingleEntryFetchDlg9ExecuteLDEv @ 88 NONAME
	_ZN22CPbkSingleItemFetchDlg7TParamsC1Ev @ 89 NONAME
	_ZN22CPbkSingleItemFetchDlg7TParamsC2Ev @ 90 NONAME
	_ZN22CPbkSingleItemFetchDlg7TParamscv12TCleanupItemEv @ 91 NONAME
	_ZN22CPbkSingleItemFetchDlg4NewLERNS_7TParamsER17CPbkContactEngine @ 92 NONAME
	_ZN22CPbkSingleItemFetchDlg12SetMopParentEP15MObjectProvider @ 93 NONAME
	_ZN22CPbkSingleItemFetchDlg9ExecuteLDEv @ 94 NONAME
	_ZN29CPbkEmailOverSmsAddressSelectC1Ev @ 95 NONAME
	_ZN29CPbkEmailOverSmsAddressSelectC2Ev @ 96 NONAME
	_ZN29CPbkEmailOverSmsAddressSelect7TParamsC1ERK15CPbkContactItem @ 97 NONAME
	_ZN29CPbkEmailOverSmsAddressSelect7TParamsC2ERK15CPbkContactItem @ 98 NONAME
	_ZN29CPbkEmailOverSmsAddressSelect9ExecuteLDERNS_7TParamsE @ 99 NONAME
	_ZN29CPbkEmailOverSmsAddressSelectD0Ev @ 100 NONAME
	_ZN29CPbkEmailOverSmsAddressSelectD1Ev @ 101 NONAME
	_ZN29CPbkEmailOverSmsAddressSelectD2Ev @ 102 NONAME
	_ZNK29CPbkEmailOverSmsAddressSelect12AddressFieldERK20TPbkContactItemField @ 103 NONAME
	_ZN29CPbkEmailOverSmsAddressSelect12NoAddressesLEv @ 104 NONAME
	_ZN29CPbkEmailOverSmsAddressSelect11QueryTitleLEv @ 105 NONAME
	_ZNK29CPbkEmailOverSmsAddressSelect21QuerySoftkeysResourceEv @ 106 NONAME
	_ZN20CPbkContactEditorDlg4NewLER17CPbkContactEngineR15CPbkContactItemiii @ 107 NONAME
	_ZN20CPbkContactEditorDlg18ResetWhenDestroyedEPPS_ @ 108 NONAME
	_ZN20CPbkContactEditorDlg9ExecuteLDEv @ 109 NONAME
	_ZN20CPbkContactEditorDlg15HideExitCommandEv @ 110 NONAME
	_ZN20CPbkContactEditorDlg14SetHelpContextE15TCoeHelpContext @ 111 NONAME
	_ZN20CPbkContactEditorDlg15SetExitCallbackEP26MPbkEditorOkToExitCallback @ 112 NONAME
	_ZN20CPbkContactEditorDlg16SetExitCommandIdEi @ 113 NONAME
	_ZN17CPbkDataSaveAppUi4NewLER17CPbkContactEngine @ 114 NONAME
	_ZN17CPbkDataSaveAppUi13AddMenuItemsLEP12CEikMenuPanei @ 115 NONAME
	_ZN17CPbkDataSaveAppUi16DynInitMenuPaneLEiP12CEikMenuPane @ 116 NONAME
	_ZN17CPbkDataSaveAppUi14HandleCommandLEiR9CArrayPtrI13CPbkFieldInfoERK5TTimeP20MPbkDataSaveCallback @ 117 NONAME
	_ZN17CPbkDataSaveAppUi14HandleCommandLEiR9CArrayPtrI13CPbkFieldInfoERK7TDesC16P20MPbkDataSaveCallback @ 118 NONAME
	_ZN17CPbkDataSaveAppUi21HideEditorExitCommandEv @ 119 NONAME
	_ZN13CPbkViewState4NewLEv @ 120 NONAME
	_ZN13CPbkViewState5NewLCEv @ 121 NONAME
	_ZN13CPbkViewState4NewLER11RReadStream @ 122 NONAME
	_ZN13CPbkViewState5NewLCER11RReadStream @ 123 NONAME
	_ZN13CPbkViewState4NewLERK6TDesC8 @ 124 NONAME
	_ZN13CPbkViewState5NewLCERK6TDesC8 @ 125 NONAME
	_ZN13CPbkViewState3UidEv @ 126 NONAME
	_ZNK13CPbkViewState16FocusedContactIdEv @ 127 NONAME
	_ZNK13CPbkViewState12TopContactIdEv @ 128 NONAME
	_ZNK13CPbkViewState16MarkedContactIdsEv @ 129 NONAME
	_ZN13CPbkViewState16MarkedContactIdsEv @ 130 NONAME
	_ZNK13CPbkViewState17FocusedFieldIndexEv @ 131 NONAME
	_ZNK13CPbkViewState13TopFieldIndexEv @ 132 NONAME
	_ZNK13CPbkViewState14FieldDataArrayEv @ 133 NONAME
	_ZNK13CPbkViewState15ParentContactIdEv @ 134 NONAME
	_ZNK13CPbkViewState5FlagsEv @ 135 NONAME
	_ZN13CPbkViewState19SetFocusedContactIdEl @ 136 NONAME
	_ZN13CPbkViewState15SetTopContactIdEl @ 137 NONAME
	_ZN13CPbkViewState19SetMarkedContactIdsEP15CContactIdArray @ 138 NONAME
	_ZN13CPbkViewState20SetFocusedFieldIndexEi @ 139 NONAME
	_ZN13CPbkViewState16SetTopFieldIndexEi @ 140 NONAME
	_ZN13CPbkViewState17SetFieldDataArrayEP18CPbkFieldDataArray @ 141 NONAME
	_ZN13CPbkViewState5ResetEv @ 142 NONAME
	_ZN13CPbkViewState18SetParentContactIdEl @ 143 NONAME
	_ZN13CPbkViewState8SetFlagsEj @ 144 NONAME
	_ZNK13CPbkViewState5PackLEv @ 145 NONAME
	_ZNK13CPbkViewState6PackLCEv @ 146 NONAME
	_ZN13CPbkViewState7UnpackLERK6TDesC8 @ 147 NONAME
	_ZN13CPbkViewState12InternalizeLER11RReadStream @ 148 NONAME
	_ZNK13CPbkViewState12ExternalizeLER12RWriteStream @ 149 NONAME
	_ZNK13CPbkViewStateeqERKS_ @ 150 NONAME
	_ZN20RPbkViewResourceFileC1ER7CCoeEnv @ 151 NONAME
	_ZN20RPbkViewResourceFileC2ER7CCoeEnv @ 152 NONAME
	_ZN20RPbkViewResourceFile5OpenLEv @ 153 NONAME
	_ZNK20RPbkViewResourceFile6IsOpenEv @ 154 NONAME
	_ZN20RPbkViewResourceFile5CloseEv @ 155 NONAME
	_ZN20CPbkPocAddressSelectC1Ev @ 156 NONAME
	_ZN20CPbkPocAddressSelectC2Ev @ 157 NONAME
	_ZN20CPbkPocAddressSelectD0Ev @ 158 NONAME
	_ZN20CPbkPocAddressSelectD1Ev @ 159 NONAME
	_ZN20CPbkPocAddressSelectD2Ev @ 160 NONAME
	_ZN20CPbkPocAddressSelect9ExecuteLDERNS_7TParamsE @ 161 NONAME
	_ZN20CPbkPocAddressSelect11QueryTitleLEv @ 162 NONAME
	_ZN20CPbkPocAddressSelect12NoAddressesLEv @ 163 NONAME
	_ZNK20CPbkPocAddressSelect12AddressFieldERK20TPbkContactItemField @ 164 NONAME
	_ZNK20CPbkPocAddressSelect21QuerySoftkeysResourceEv @ 165 NONAME
	_ZN20CPbkPocAddressSelect7TParamsC1ERK15CPbkContactItem @ 166 NONAME
	_ZN20CPbkPocAddressSelect7TParamsC2ERK15CPbkContactItem @ 167 NONAME
	_ZN16CPbkImageManager11RemoveImageEiR15CPbkContactItem @ 168 NONAME
	_ZN16CPbkImageManager14GetImageAsyncLEiR20MPbkImageGetObserverRK15CPbkContactItem @ 169 NONAME
	_ZN16CPbkImageManager14GetImageAsyncLEiR20MPbkImageGetObserverRK15CPbkContactItemR23TPbkImageLoadParameters @ 170 NONAME
	_ZN16CPbkImageManager14GetImageAsyncLEiR25MPbkImageGetImageObserverRK15CPbkContactItem @ 171 NONAME
	_ZN16CPbkImageManager14SetImageAsyncLEiR20MPbkImageSetObserverR15CPbkContactItemRK10CFbsBitmap @ 172 NONAME
	_ZN16CPbkImageManager14SetImageAsyncLEiR20MPbkImageSetObserverR15CPbkContactItemRK6TDesC8 @ 173 NONAME
	_ZN16CPbkImageManager14SetImageAsyncLEiR20MPbkImageSetObserverR15CPbkContactItemRK7TDesC16 @ 174 NONAME
	_ZN16CPbkImageManager4NewLER17CPbkContactEngine @ 175 NONAME
	_ZNK16CPbkImageManager8HasImageEiRK15CPbkContactItem @ 176 NONAME
	_ZN21CPbkVoipAddressSelect11QueryTitleLEv @ 177 NONAME
	_ZN21CPbkVoipAddressSelect12NoAddressesLEv @ 178 NONAME
	_ZN21CPbkVoipAddressSelect7TParamsC1ERK15CPbkContactItem @ 179 NONAME
	_ZN21CPbkVoipAddressSelect7TParamsC2ERK15CPbkContactItem @ 180 NONAME
	_ZN21CPbkVoipAddressSelect9ExecuteLDERNS_7TParamsE @ 181 NONAME
	_ZN21CPbkVoipAddressSelectC1Ev @ 182 NONAME
	_ZN21CPbkVoipAddressSelectC2Ev @ 183 NONAME
	_ZN21CPbkVoipAddressSelectD0Ev @ 184 NONAME
	_ZN21CPbkVoipAddressSelectD1Ev @ 185 NONAME
	_ZN21CPbkVoipAddressSelectD2Ev @ 186 NONAME
	_ZNK21CPbkVoipAddressSelect12AddressFieldERK20TPbkContactItemField @ 187 NONAME
	_ZNK21CPbkVoipAddressSelect21QuerySoftkeysResourceEv @ 188 NONAME
	_ZTI17CPbkAddressSelect @ 189 NONAME ; #<TI>#
	_ZTV17CPbkAddressSelect @ 190 NONAME ; #<VT>#
	_ZTI22CPbkEmailAddressSelect @ 191 NONAME ; #<TI>#
	_ZTV22CPbkEmailAddressSelect @ 192 NONAME ; #<VT>#
	_ZTI25CPbkMemoryEntryAddItemDlg @ 193 NONAME ; #<TI>#
	_ZTV25CPbkMemoryEntryAddItemDlg @ 194 NONAME ; #<VT>#
	_ZTI20CPbkMmsAddressSelect @ 195 NONAME ; #<TI>#
	_ZTV20CPbkMmsAddressSelect @ 196 NONAME ; #<VT>#
	_ZTI25CPbkMultipleEntryFetchDlg @ 197 NONAME ; #<TI>#
	_ZTV25CPbkMultipleEntryFetchDlg @ 198 NONAME ; #<VT>#
	_ZTI21CPbkPhoneNumberSelect @ 199 NONAME ; #<TI>#
	_ZTV21CPbkPhoneNumberSelect @ 200 NONAME ; #<VT>#
	_ZTI25CPbkPhoneNumberSelectBase @ 201 NONAME ; #<TI>#
	_ZTV25CPbkPhoneNumberSelectBase @ 202 NONAME ; #<VT>#
	_ZTI18CPbkSelectFieldDlg @ 203 NONAME ; #<TI>#
	_ZTV18CPbkSelectFieldDlg @ 204 NONAME ; #<VT>#
	_ZTI20CPbkSmsAddressSelect @ 205 NONAME ; #<TI>#
	_ZTV20CPbkSmsAddressSelect @ 206 NONAME ; #<VT>#
	_ZTI23CPbkSingleEntryFetchDlg @ 207 NONAME ; #<TI>#
	_ZTV23CPbkSingleEntryFetchDlg @ 208 NONAME ; #<VT>#
	_ZTI29CPbkEmailOverSmsAddressSelect @ 209 NONAME ; #<TI>#
	_ZTV29CPbkEmailOverSmsAddressSelect @ 210 NONAME ; #<VT>#
	_ZTI20CPbkContactEditorDlg @ 211 NONAME ; #<TI>#
	_ZTV20CPbkContactEditorDlg @ 212 NONAME ; #<VT>#
	_ZTI17CPbkDataSaveAppUi @ 213 NONAME ; #<TI>#
	_ZTV17CPbkDataSaveAppUi @ 214 NONAME ; #<VT>#
	_ZTI13CPbkViewState @ 215 NONAME ; #<TI>#
	_ZTV13CPbkViewState @ 216 NONAME ; #<VT>#
	_ZTI20CPbkPocAddressSelect @ 217 NONAME ; #<TI>#
	_ZTV20CPbkPocAddressSelect @ 218 NONAME ; #<VT>#
	_ZTI16CPbkImageManager @ 219 NONAME ; #<TI>#
	_ZTV16CPbkImageManager @ 220 NONAME ; #<VT>#
	_ZTI21CPbkVoipAddressSelect @ 221 NONAME ; #<TI>#
	_ZTV21CPbkVoipAddressSelect @ 222 NONAME ; #<VT>#
	_ZN12CPbkFFSCheck11FFSClCheckLERK18MPbkCommandHandleri @ 223 NONAME
	_ZN12CPbkFFSCheck11FFSClCheckLEi @ 224 NONAME
	_ZN12CPbkFFSCheck11MMCClCheckLERK18MPbkCommandHandleri @ 225 NONAME
	_ZN12CPbkFFSCheck11MMCClCheckLEi @ 226 NONAME
	_ZN12CPbkFFSCheck4NewLEP7CCoeEnv @ 227 NONAME
	_ZN13CPbkIconArray22ConstructFromResourceLER15TResourceReader @ 228 NONAME
	_ZN13CPbkIconArray22ConstructFromResourceLEi @ 229 NONAME
	_ZN13CPbkIconArray24AppendIconsFromResourceLEii @ 230 NONAME
	_ZN13CPbkIconArray8RefreshLEi @ 231 NONAME
	_ZN13CPbkIconArrayC1Ei @ 232 NONAME
	_ZN13CPbkIconArrayC2Ei @ 233 NONAME
	_ZN13CPbkIconArrayD0Ev @ 234 NONAME
	_ZN13CPbkIconArrayD1Ev @ 235 NONAME
	_ZN13CPbkIconArrayD2Ev @ 236 NONAME
	_ZN14CPbkAddToGroup4NewLEv @ 237 NONAME
	_ZN14CPbkAddToGroup9ExecuteLDER17CPbkContactEngine @ 238 NONAME
	_ZN14CPbkDrmManager15IsProtectedFileERK7TDesC16 @ 239 NONAME
	_ZN14CPbkDrmManager4NewLEv @ 240 NONAME
	_ZN14CPbkDrmManagerD0Ev @ 241 NONAME
	_ZN14CPbkDrmManagerD1Ev @ 242 NONAME
	_ZN14CPbkDrmManagerD2Ev @ 243 NONAME
	_ZN14CPbkPrependDlg4NewLER6TDes16 @ 244 NONAME
	_ZN15CPbkSettingsDlg4NewLER17CPbkContactEngine @ 245 NONAME
	_ZN15CPbkSettingsDlg9ExecuteLDEv @ 246 NONAME
	_ZN17CPbkAddressSelect10Reserved_1Ev @ 247 NONAME
	_ZN17CPbkAddressSelect10Reserved_2Ev @ 248 NONAME
	_ZN18CPbkCompressUiImpl17EnableCompressionEi @ 249 NONAME
	_ZN18CPbkCompressUiImpl4NewLER17CPbkContactEngine @ 250 NONAME
	_ZN18CPbkCompressUiImplD0Ev @ 251 NONAME
	_ZN18CPbkCompressUiImplD1Ev @ 252 NONAME
	_ZN18CPbkCompressUiImplD2Ev @ 253 NONAME
	_ZN18CPbkSetToneToGroup5NewLCER17CPbkContactEngineRK15CContactIdArrayRK7TDesC16 @ 254 NONAME
	_ZN18CPbkThumbnailPopup13CancelLoadingEv @ 255 NONAME
	_ZN18CPbkThumbnailPopup4LoadERK15CPbkContactItemi @ 256 NONAME
	_ZN18CPbkThumbnailPopup4LoadEli @ 257 NONAME
	_ZN18CPbkThumbnailPopup4NewLER17CPbkContactEngine @ 258 NONAME
	_ZN19CPbkGroupBelongings4NewLEv @ 259 NONAME
	_ZN19CPbkGroupBelongings9ExecuteLDER17CPbkContactEnginel @ 260 NONAME
	_ZN19CPbkWaitNoteWrapper4NewLEv @ 261 NONAME
	_ZN20CPbkPhonebookInfoDlg4NewLER17CPbkContactEngine @ 262 NONAME
	_ZN20CPbkPhonebookInfoDlg9ExecuteLDEv @ 263 NONAME
	_ZN20CPbkRingingToneFetch15SetRingingToneLER15CPbkContactItemR4TBufILi256EE @ 264 NONAME
	_ZN20CPbkRingingToneFetch17FetchRingingToneLER4TBufILi256EE @ 265 NONAME
	_ZN20CPbkRingingToneFetch4NewLER17CPbkContactEngine @ 266 NONAME
	_ZN20CPbkThumbnailManager15RemoveThumbnailER15CPbkContactItem @ 267 NONAME
	_ZN20CPbkThumbnailManager18GetThumbnailAsyncLER24MPbkThumbnailGetObserverRK15CPbkContactItem @ 268 NONAME
	_ZN20CPbkThumbnailManager18GetThumbnailAsyncLER24MPbkThumbnailGetObserverRK15CPbkContactItemR23TPbkImageLoadParameters @ 269 NONAME
	_ZN20CPbkThumbnailManager18SetThumbnailAsyncLER24MPbkThumbnailSetObserverR15CPbkContactItemRK10CFbsBitmap @ 270 NONAME
	_ZN20CPbkThumbnailManager18SetThumbnailAsyncLER24MPbkThumbnailSetObserverR15CPbkContactItemRK6TDesC8 @ 271 NONAME
	_ZN20CPbkThumbnailManager18SetThumbnailAsyncLER24MPbkThumbnailSetObserverR15CPbkContactItemRK7TDesC16 @ 272 NONAME
	_ZN20CPbkThumbnailManager23GetThumbnailImageAsyncLER29MPbkThumbnailGetImageObserverRK15CPbkContactItem @ 273 NONAME
	_ZN20CPbkThumbnailManager4NewLER17CPbkContactEngine @ 274 NONAME
	_ZN20CPbkURLAddressSelect11QueryTitleLEv @ 275 NONAME
	_ZN20CPbkURLAddressSelect12NoAddressesLEv @ 276 NONAME
	_ZN20CPbkURLAddressSelect7TParamsC1ERK15CPbkContactItem @ 277 NONAME
	_ZN20CPbkURLAddressSelect7TParamsC2ERK15CPbkContactItem @ 278 NONAME
	_ZN20CPbkURLAddressSelect9ExecuteLDERNS_7TParamsE @ 279 NONAME
	_ZN20CPbkURLAddressSelectC1Ev @ 280 NONAME
	_ZN20CPbkURLAddressSelectC2Ev @ 281 NONAME
	_ZN20CPbkURLAddressSelectD0Ev @ 282 NONAME
	_ZN20CPbkURLAddressSelectD1Ev @ 283 NONAME
	_ZN20CPbkURLAddressSelectD2Ev @ 284 NONAME
	_ZN20MPbkDataSaveCallback19PbkDataSaveNoFieldLER15CPbkContactItem @ 285 NONAME
	_ZN20MPbkDataSaveCallback20PbkDataSaveClipTextLERK7TDesC16R13CPbkFieldInfo @ 286 NONAME
	_ZN21CPbkGroupNameQueryDlg4NewLER6TDes16R17CPbkContactEnginei @ 287 NONAME
	_ZN21CPbkGroupNameQueryDlg9OkToExitLEi @ 288 NONAME
	_ZN21CPbkIconInfoContainer24AppendIconsFromResourceLEi @ 289 NONAME
	_ZN21CPbkIconInfoContainer4NewLEP7CCoeEnv @ 290 NONAME
	_ZN21CPbkIconInfoContainer4NewLER15TResourceReader @ 291 NONAME
	_ZN21CPbkIconInfoContainer4NewLEiP7CCoeEnv @ 292 NONAME
	_ZN21CPbkImageDataWithInfo4NewLERKNS_7TParamsE @ 293 NONAME
	_ZN21CPbkImageDataWithInfo7TParamsC1Ev @ 294 NONAME
	_ZN21CPbkImageDataWithInfo7TParamsC2Ev @ 295 NONAME
	_ZN22CPbkContactInfoControl13RestoreStateLEPK13CPbkViewState @ 296 NONAME
	_ZN22CPbkContactInfoControl4NewLEiRK11CCoeControlP15CPbkContactItemP17CPbkContactEngine @ 297 NONAME
	_ZN22CPbkContactInfoControl7ListBoxEv @ 298 NONAME
	_ZN22CPbkContactInfoControl8FieldPosERK20TPbkContactItemField @ 299 NONAME
	_ZN22CPbkDeleteContactQuery5NewLCEv @ 300 NONAME
	_ZN22CPbkDeleteContactQuery5RunLDER17CPbkContactEngineRK15CContactIdArray @ 301 NONAME
	_ZN22CPbkDeleteContactQuery5RunLDER17CPbkContactEnginel @ 302 NONAME
	_ZN22CPbkDeleteContactQuery5RunLDERK15CPbkContactItem @ 303 NONAME
	_ZN23CPbkProgressNoteWrapper4NewLEv @ 304 NONAME
	_ZN23CPbkWaitNoteWrapperBase11TNoteParamsC1Ev @ 305 NONAME
	_ZN23CPbkWaitNoteWrapperBase11TNoteParamsC2Ev @ 306 NONAME
	_ZN23CPbkWaitNoteWrapperBase25SetProgressDialogCallbackER23MProgressDialogCallback @ 307 NONAME
	_ZN23CPbkWaitNoteWrapperBase7ExecuteER21MPbkBackgroundProcess @ 308 NONAME
	_ZN23CPbkWaitNoteWrapperBase8DisplayLEiRKNS_11TNoteParamsE @ 309 NONAME
	_ZN23CPbkWaitNoteWrapperBase8ExecuteLER21MPbkBackgroundProcessiRKNS_11TNoteParamsE @ 310 NONAME
	_ZN23TPbkImageLoadParametersC1Ev @ 311 NONAME
	_ZN23TPbkImageLoadParametersC2Ev @ 312 NONAME
	_ZN24CPbkGroupMembersFetchDlg4NewLERNS_7TParamsER17CPbkContactEngine @ 313 NONAME
	_ZN24CPbkGroupMembersFetchDlg7TParamsC1Ev @ 314 NONAME
	_ZN24CPbkGroupMembersFetchDlg7TParamsC2Ev @ 315 NONAME
	_ZN24CPbkGroupMembersFetchDlg7TParamscv12TCleanupItemEv @ 316 NONAME
	_ZN24CPbkGroupMembersFetchDlg9ExecuteLDEv @ 317 NONAME
	_ZN25CPbkMemoryEntryAddItemDlg10Reserved_1Ev @ 318 NONAME
	_ZN25CPbkMemoryEntryAddItemDlg10Reserved_2Ev @ 319 NONAME
	_ZN26CPbkContactListControlBase4NewLER17CPbkContactEngineR16CContactViewBaseiPK11CCoeControl @ 320 NONAME
	_ZN26CPbkContactViewListControl10ClearMarksEv @ 321 NONAME
	_ZN26CPbkContactViewListControl10ConstructLER17CPbkContactEngineR16CContactViewBase @ 322 NONAME
	_ZN26CPbkContactViewListControl10ResetFindLEv @ 323 NONAME
	_ZN26CPbkContactViewListControl12AddObserverLER34MPbkContactViewListControlObserver @ 324 NONAME
	_ZN26CPbkContactViewListControl13HideThumbnailEv @ 325 NONAME
	_ZN26CPbkContactViewListControl13RestoreStateLEPK13CPbkViewState @ 326 NONAME
	_ZN26CPbkContactViewListControl14RemoveObserverER34MPbkContactViewListControlObserver @ 327 NONAME
	_ZN26CPbkContactViewListControl14SetEntryLoaderER22MPbkContactEntryLoader @ 328 NONAME
	_ZN26CPbkContactViewListControl14ShowThumbnailLEv @ 329 NONAME
	_ZN26CPbkContactViewListControl19SetCurrentItemIndexEi @ 330 NONAME
	_ZN26CPbkContactViewListControl26SetCurrentItemIndexAndDrawEi @ 331 NONAME
	_ZN26CPbkContactViewListControl33HandleMarkableListDynInitMenuPaneEiP12CEikMenuPane @ 332 NONAME
	_ZN26CPbkContactViewListControl33HandleMarkableListProcessCommandLEi @ 333 NONAME
	_ZN26CPbkContactViewListControl45HandleMarkableListUpdateAfterCommandExecutionEv @ 334 NONAME
	_ZN26CPbkContactViewListControl4NewLER17CPbkContactEngineR16CContactViewBaseiPK11CCoeControl @ 335 NONAME
	_ZN26CPbkContactViewListControl8SetBlankEi @ 336 NONAME
	_ZN26CPbkContactViewListControl9MarkItemLEli @ 337 NONAME
	_ZN26CPbkContactViewListControlC1Ev @ 338 NONAME
	_ZN26CPbkContactViewListControlC2Ev @ 339 NONAME
	_ZN26CPbkMemoryEntryDefaultsDlg4NewLElR17CPbkContactEngine @ 340 NONAME
	_ZN26CPbkMemoryEntryDefaultsDlg9ExecuteLDEv @ 341 NONAME
	_ZN27CPbkItemTypeSelectCreateNew9ExecuteLDER9CArrayPtrI13CPbkFieldInfoE @ 342 NONAME
	_ZN27CPbkItemTypeSelectCreateNewC1Ev @ 343 NONAME
	_ZN27CPbkItemTypeSelectCreateNewC2Ev @ 344 NONAME
	_ZN27CPbkItemTypeSelectCreateNewD0Ev @ 345 NONAME
	_ZN27CPbkItemTypeSelectCreateNewD1Ev @ 346 NONAME
	_ZN27CPbkItemTypeSelectCreateNewD2Ev @ 347 NONAME
	_ZN29CPbkContactDetailsBaseControl4NewLEiRK11CCoeControlP15CPbkContactItemP17CPbkContactEngine @ 348 NONAME
	_ZN31CPbkItemTypeSelectAddToExisting9ExecuteLDER9CArrayPtrI13CPbkFieldInfoE @ 349 NONAME
	_ZN31CPbkItemTypeSelectAddToExistingC1Ev @ 350 NONAME
	_ZN31CPbkItemTypeSelectAddToExistingC2Ev @ 351 NONAME
	_ZN31CPbkItemTypeSelectAddToExistingD0Ev @ 352 NONAME
	_ZN31CPbkItemTypeSelectAddToExistingD1Ev @ 353 NONAME
	_ZN31CPbkItemTypeSelectAddToExistingD2Ev @ 354 NONAME
	_ZNK12TPbkIconInfo11MbmFileNameEv @ 355 NONAME
	_ZNK12TPbkIconInfo13PbkIconInfoIdEv @ 356 NONAME
	_ZNK12TPbkIconInfo6IconIdEv @ 357 NONAME
	_ZNK12TPbkIconInfo6MaskIdEv @ 358 NONAME
	_ZNK12TPbkIconInfo6SkinIdEv @ 359 NONAME
	_ZNK13CPbkIconArray8FindIconE10TPbkIconId @ 360 NONAME
	_ZNK18CPbkSetToneToGroup15RingingToneFileEv @ 361 NONAME
	_ZNK20CPbkThumbnailManager12HasThumbnailERK15CPbkContactItem @ 362 NONAME
	_ZNK20CPbkURLAddressSelect12AddressFieldERK20TPbkContactItemField @ 363 NONAME
	_ZNK20CPbkURLAddressSelect21QuerySoftkeysResourceEv @ 364 NONAME
	_ZNK21CPbkIconInfoContainer11LoadBitmapLE10TPbkIconId @ 365 NONAME
	_ZNK21CPbkIconInfoContainer4FindE10TPbkIconId @ 366 NONAME
	_ZNK21CPbkImageDataWithInfo17ImageSizeInPixelsEv @ 367 NONAME
	_ZNK21CPbkImageDataWithInfo8MimeTypeEv @ 368 NONAME
	_ZNK21CPbkImageDataWithInfo9ImageDataEv @ 369 NONAME
	_ZNK22CPbkContactInfoControl10FieldCountEv @ 370 NONAME
	_ZNK22CPbkContactInfoControl10GetStateLCEv @ 371 NONAME
	_ZNK22CPbkContactInfoControl17CurrentFieldIndexEv @ 372 NONAME
	_ZNK22CPbkContactInfoControl9GetStateLEv @ 373 NONAME
	_ZNK23CPbkWaitNoteWrapperBase12IsNoteClosedEv @ 374 NONAME
	_ZNK26CPbkContactViewListControl10GetStateLCEi @ 375 NONAME
	_ZNK26CPbkContactViewListControl10ItemMarkedEi @ 376 NONAME
	_ZNK26CPbkContactViewListControl12ContactIdAtLEi @ 377 NONAME
	_ZNK26CPbkContactViewListControl14FindContactIdLEl @ 378 NONAME
	_ZNK26CPbkContactViewListControl16CurrentItemIndexEv @ 379 NONAME
	_ZNK26CPbkContactViewListControl26NextUnmarkedIndexFromFocusEv @ 380 NONAME
	_ZNK26CPbkContactViewListControl7IsReadyEv @ 381 NONAME
	_ZNK26CPbkContactViewListControl9FindTextLEv @ 382 NONAME
	_ZNK26CPbkContactViewListControl9GetStateLEi @ 383 NONAME
	_ZTI12CPbkFFSCheck @ 384 NONAME ; #<TI>#
	_ZTI13CPbkIconArray @ 385 NONAME ; #<TI>#
	_ZTI14CPbkAddToGroup @ 386 NONAME ; #<TI>#
	_ZTI14CPbkDrmManager @ 387 NONAME ; #<TI>#
	_ZTI14CPbkPrependDlg @ 388 NONAME ; #<TI>#
	_ZTI15CPbkSettingsDlg @ 389 NONAME ; #<TI>#
	_ZTI17CPbkImageFileData @ 390 NONAME ; #<TI>#
	_ZTI18CPbkCompressUiImpl @ 391 NONAME ; #<TI>#
	_ZTI18CPbkSetToneToGroup @ 392 NONAME ; #<TI>#
	_ZTI18CPbkThumbnailPopup @ 393 NONAME ; #<TI>#
	_ZTI19CPbkGroupBelongings @ 394 NONAME ; #<TI>#
	_ZTI19CPbkImageBufferData @ 395 NONAME ; #<TI>#
	_ZTI19CPbkObserverAdapter @ 396 NONAME ; #<TI>#
	_ZTI19CPbkWaitNoteWrapper @ 397 NONAME ; #<TI>#
	_ZTI20CPbkPhonebookInfoDlg @ 398 NONAME ; #<TI>#
	_ZTI20CPbkRingingToneFetch @ 399 NONAME ; #<TI>#
	_ZTI20CPbkThumbnailManager @ 400 NONAME ; #<TI>#
	_ZTI20CPbkURLAddressSelect @ 401 NONAME ; #<TI>#
	_ZTI20MPbkDataSaveCallback @ 402 NONAME ; #<TI>#
	_ZTI21CPbkGroupNameQueryDlg @ 403 NONAME ; #<TI>#
	_ZTI21CPbkIconInfoContainer @ 404 NONAME ; #<TI>#
	_ZTI21CPbkImageDataWithInfo @ 405 NONAME ; #<TI>#
	_ZTI22CPbkContactInfoControl @ 406 NONAME ; #<TI>#
	_ZTI22CPbkDeleteContactQuery @ 407 NONAME ; #<TI>#
	_ZTI22CPbkSingleItemFetchDlg @ 408 NONAME ; #<TI>#
	_ZTI23CPbkProgressNoteWrapper @ 409 NONAME ; #<TI>#
	_ZTI23CPbkWaitNoteWrapperBase @ 410 NONAME ; #<TI>#
	_ZTI24CPbkGroupMembersFetchDlg @ 411 NONAME ; #<TI>#
	_ZTI26CPbkContactListControlBase @ 412 NONAME ; #<TI>#
	_ZTI26CPbkContactViewListControl @ 413 NONAME ; #<TI>#
	_ZTI26CPbkMemoryEntryDefaultsDlg @ 414 NONAME ; #<TI>#
	_ZTI27CPbkItemTypeSelectCreateNew @ 415 NONAME ; #<TI>#
	_ZTI29CPbkContactDetailsBaseControl @ 416 NONAME ; #<TI>#
	_ZTI31CPbkItemTypeSelectAddToExisting @ 417 NONAME ; #<TI>#
	_ZTIN23CPbkWaitNoteWrapperBase13CIdleCallbackE @ 418 NONAME ; #<TI>#
	_ZTV12CPbkFFSCheck @ 419 NONAME ; #<VT>#
	_ZTV13CPbkIconArray @ 420 NONAME ; #<VT>#
	_ZTV14CPbkAddToGroup @ 421 NONAME ; #<VT>#
	_ZTV14CPbkDrmManager @ 422 NONAME ; #<VT>#
	_ZTV14CPbkPrependDlg @ 423 NONAME ; #<VT>#
	_ZTV15CPbkSettingsDlg @ 424 NONAME ; #<VT>#
	_ZTV17CPbkImageFileData @ 425 NONAME ; #<VT>#
	_ZTV18CPbkCompressUiImpl @ 426 NONAME ; #<VT>#
	_ZTV18CPbkSetToneToGroup @ 427 NONAME ; #<VT>#
	_ZTV18CPbkThumbnailPopup @ 428 NONAME ; #<VT>#
	_ZTV19CPbkGroupBelongings @ 429 NONAME ; #<VT>#
	_ZTV19CPbkImageBufferData @ 430 NONAME ; #<VT>#
	_ZTV19CPbkObserverAdapter @ 431 NONAME ; #<VT>#
	_ZTV19CPbkWaitNoteWrapper @ 432 NONAME ; #<VT>#
	_ZTV20CPbkPhonebookInfoDlg @ 433 NONAME ; #<VT>#
	_ZTV20CPbkRingingToneFetch @ 434 NONAME ; #<VT>#
	_ZTV20CPbkThumbnailManager @ 435 NONAME ; #<VT>#
	_ZTV20CPbkURLAddressSelect @ 436 NONAME ; #<VT>#
	_ZTV20MPbkDataSaveCallback @ 437 NONAME ; #<VT>#
	_ZTV21CPbkGroupNameQueryDlg @ 438 NONAME ; #<VT>#
	_ZTV21CPbkIconInfoContainer @ 439 NONAME ; #<VT>#
	_ZTV21CPbkImageDataWithInfo @ 440 NONAME ; #<VT>#
	_ZTV22CPbkContactInfoControl @ 441 NONAME ; #<VT>#
	_ZTV22CPbkDeleteContactQuery @ 442 NONAME ; #<VT>#
	_ZTV22CPbkSingleItemFetchDlg @ 443 NONAME ; #<VT>#
	_ZTV23CPbkProgressNoteWrapper @ 444 NONAME ; #<VT>#
	_ZTV23CPbkWaitNoteWrapperBase @ 445 NONAME ; #<VT>#
	_ZTV24CPbkGroupMembersFetchDlg @ 446 NONAME ; #<VT>#
	_ZTV26CPbkContactListControlBase @ 447 NONAME ; #<VT>#
	_ZTV26CPbkContactViewListControl @ 448 NONAME ; #<VT>#
	_ZTV26CPbkMemoryEntryDefaultsDlg @ 449 NONAME ; #<VT>#
	_ZTV27CPbkItemTypeSelectCreateNew @ 450 NONAME ; #<VT>#
	_ZTV29CPbkContactDetailsBaseControl @ 451 NONAME ; #<VT>#
	_ZTV31CPbkItemTypeSelectAddToExisting @ 452 NONAME ; #<VT>#
	_ZTVN23CPbkWaitNoteWrapperBase13CIdleCallbackE @ 453 NONAME ; #<VT>#
	_ZN24CPbkSendKeyAddressSelect11QueryTitleLEv @ 454 NONAME
	_ZN24CPbkSendKeyAddressSelect12NoAddressesLEv @ 455 NONAME
	_ZN24CPbkSendKeyAddressSelect19PbkControlKeyEventLERK9TKeyEvent10TEventCode @ 456 NONAME
	_ZN24CPbkSendKeyAddressSelect7TParamsC1ERK15CPbkContactItemPK20TPbkContactItemField @ 457 NONAME
	_ZN24CPbkSendKeyAddressSelect7TParamsC2ERK15CPbkContactItemPK20TPbkContactItemField @ 458 NONAME
	_ZN24CPbkSendKeyAddressSelect9ExecuteLDERNS_7TParamsE @ 459 NONAME
	_ZN24CPbkSendKeyAddressSelectC1ER17CPbkContactEngine @ 460 NONAME
	_ZN24CPbkSendKeyAddressSelectC2ER17CPbkContactEngine @ 461 NONAME
	_ZN24CPbkSendKeyAddressSelectD0Ev @ 462 NONAME
	_ZN24CPbkSendKeyAddressSelectD1Ev @ 463 NONAME
	_ZN24CPbkSendKeyAddressSelectD2Ev @ 464 NONAME
	_ZNK24CPbkSendKeyAddressSelect12AddressFieldERK20TPbkContactItemField @ 465 NONAME
	_ZNK24CPbkSendKeyAddressSelect21QuerySoftkeysResourceEv @ 466 NONAME
	_ZTI24CPbkSendKeyAddressSelect @ 467 NONAME ; #<TI>#
	_ZTV24CPbkSendKeyAddressSelect @ 468 NONAME ; #<VT>#
	_ZN12PbkIconUtils11CreateIconLEP17MAknsSkinInstanceRP10CFbsBitmapS4_RK12TPbkIconInfo @ 469 NONAME
	_ZN12PbkIconUtils12CreateIconLCEP17MAknsSkinInstanceRP10CFbsBitmapS4_RK12TPbkIconInfo @ 470 NONAME
	_ZN14CPbkDrmManager23IsRingingToneProtectedLERK7TDesC16 @ 471 NONAME
	_ZN14CPbkDrmManager21IsThumbnailProtectedLERK7TDesC16 @ 472 NONAME
	_ZN14CPbkDrmManager23HasFileRestrictedRightsERK7TDesC16 @ 473 NONAME
	_ZN26CPbkContactViewListControl15DeleteThumbnailEv @ 474 NONAME
	_ZN21CPbkVideoNumberSelect11QueryTitleLEv @ 475 NONAME
	_ZN21CPbkVideoNumberSelect19PbkControlKeyEventLERK9TKeyEvent10TEventCode @ 476 NONAME
	_ZN21CPbkVideoNumberSelect7TParamsC1ERK15CPbkContactItem @ 477 NONAME
	_ZN21CPbkVideoNumberSelect7TParamsC2ERK15CPbkContactItem @ 478 NONAME
	_ZN21CPbkVideoNumberSelect9ExecuteLDERNS_7TParamsE @ 479 NONAME
	_ZN21CPbkVideoNumberSelectC1Ev @ 480 NONAME
	_ZN21CPbkVideoNumberSelectC2Ev @ 481 NONAME
	_ZN21CPbkVideoNumberSelectD0Ev @ 482 NONAME
	_ZN21CPbkVideoNumberSelectD1Ev @ 483 NONAME
	_ZN21CPbkVideoNumberSelectD2Ev @ 484 NONAME
	_ZNK21CPbkVideoNumberSelect21QuerySoftkeysResourceEv @ 485 NONAME
	_ZTI21CPbkVideoNumberSelect @ 486 NONAME ; #<TI>#
	_ZTV21CPbkVideoNumberSelect @ 487 NONAME ; #<VT>#
	_ZTI17CPbkFieldAnalyzer @ 488 NONAME
	_ZTV17CPbkFieldAnalyzer @ 489 NONAME

