EXPORTS
	_ZN13CSpdiaControl10DrawShadowER9CWindowGcRK5TSize @ 1 NONAME
	_ZN13CSpdiaControl10VoiceMailLER6TDes16 @ 2 NONAME
	_ZN13CSpdiaControl11DialNumberLEiR6TDes16P14CEikStatusPane @ 3 NONAME
	_ZN13CSpdiaControl13AssignNumberLEiP14CEikStatusPaneP11CCoeControli @ 4 NONAME
	_ZN13CSpdiaControl13ContactTitleLEli @ 5 NONAME
	_ZN13CSpdiaControl15CreateGridDataLEP8CAknGridi @ 6 NONAME
	_ZN13CSpdiaControl15DeleteIconArrayEv @ 7 NONAME
	_ZN13CSpdiaControl15ReloadIconArrayEv @ 8 NONAME
	_ZN13CSpdiaControl16AssignDialIndexLEi @ 9 NONAME
	_ZN13CSpdiaControl16RemoveDialIndexLEii @ 10 NONAME
	_ZN13CSpdiaControl17AssignDialNumberLEiP14CEikStatusPane @ 11 NONAME
	_ZN13CSpdiaControl24ApplyCellSpdiaPaneStyleLER8CAknGridR5TSize @ 12 NONAME
	_ZN13CSpdiaControl4NewLER17CPbkContactEngine @ 13 NONAME
	_ZN13CSpdiaControl4NewLEv @ 14 NONAME
	_ZN13CSpdiaControl6CancelEv @ 15 NONAME
	_ZN13CSpdiaControl9ExecuteLDEli @ 16 NONAME
	_ZN13CSpdiaControl9SetLayoutERK5TRect @ 17 NONAME
	_ZN13CSpdiaControlD0Ev @ 18 NONAME
	_ZN13CSpdiaControlD1Ev @ 19 NONAME
	_ZN13CSpdiaControlD2Ev @ 20 NONAME
	_ZNK13CSpdiaControl10NumberTypeEi @ 21 NONAME
	_ZNK13CSpdiaControl10ThumbIndexEi @ 22 NONAME
	_ZNK13CSpdiaControl11PhoneNumberEi @ 23 NONAME
	_ZNK13CSpdiaControl12SpdIconIndexEi @ 24 NONAME
	_ZNK13CSpdiaControl13VMBoxPositionEv @ 25 NONAME
	_ZNK13CSpdiaControl15PhoneDialNumberEi @ 26 NONAME
	_ZNK13CSpdiaControl4SizeEv @ 27 NONAME
	_ZNK13CSpdiaControl5IndexEi @ 28 NONAME
	_ZNK13CSpdiaControl6NumberEi @ 29 NONAME
	_ZNK13CSpdiaControl9ContactIdEi @ 30 NONAME
	_ZNK13CSpdiaControl9IconArrayEv @ 31 NONAME
	_ZNK13CSpdiaControl9IconIndexEi @ 32 NONAME
	_ZNK13CSpdiaControl9PbkEngineEv @ 33 NONAME
	_ZTI10CSpdiaGrid @ 34 NONAME ; #<TI>#
	_ZTI13CSpdiaControl @ 35 NONAME ; #<TI>#
	_ZTI13CSpdiaGridDlg @ 36 NONAME ; #<TI>#
	_ZTV10CSpdiaGrid @ 37 NONAME ; #<VT>#
	_ZTV13CSpdiaControl @ 38 NONAME ; #<VT>#
	_ZTV13CSpdiaGridDlg @ 39 NONAME ; #<VT>#
	_ZThn52_N13CSpdiaControlD0Ev @ 40 NONAME ; #<thunk>#
	_ZThn52_N13CSpdiaControlD1Ev @ 41 NONAME ; #<thunk>#
	_ZN13CSpdiaControl13VoiceMailTypeEv @ 42 NONAME
	_ZN13CSpdiaControl19GetSpdCtrlLastErrorEv @ 43 NONAME
	_ZN13CSpdiaControl21CheckingIfPopUpNeededEv @ 44 NONAME
	_ZN13CSpdiaDialogs10ShowAssignER16MVPbkContactLinkRi @ 45 NONAME
	_ZN13CSpdiaDialogs10ShowAssignEiRP16MVPbkContactLink @ 46 NONAME
	_ZN13CSpdiaDialogs10ShowRemoveEi @ 47 NONAME
	_ZN13CSpdiaDialogs4NewLER19CVPbkContactManager @ 48 NONAME
	_ZN17CSpeedDialPrivate10GridStatusEv @ 49 NONAME
	_ZN17CSpeedDialPrivate10ShowAssignER16MVPbkContactLinkRi @ 50 NONAME
	_ZN17CSpeedDialPrivate10ShowAssignEiRP16MVPbkContactLink @ 51 NONAME
	_ZN17CSpeedDialPrivate10ShowRemoveEi @ 52 NONAME
	_ZN17CSpeedDialPrivate10UpdateFlagEv @ 53 NONAME
	_ZN17CSpeedDialPrivate10VoiceMailLER6TDes16 @ 54 NONAME
	_ZN17CSpeedDialPrivate13ContactTitleLEP16MVPbkBaseContacti @ 55 NONAME
	_ZN17CSpeedDialPrivate13SetGridStatusENS_8TGridUseE @ 56 NONAME
	_ZN17CSpeedDialPrivate13SetUpdateFlagEi @ 57 NONAME
	_ZN17CSpeedDialPrivate13VoiceMailTypeEv @ 58 NONAME
	_ZN17CSpeedDialPrivate15CreateGridDataLEP8CAknGridi @ 59 NONAME
	_ZN17CSpeedDialPrivate15DeleteIconArrayEv @ 60 NONAME
	_ZN17CSpeedDialPrivate15ReloadIconArrayEv @ 61 NONAME
	_ZN17CSpeedDialPrivate19GetSpdCtrlLastErrorEv @ 62 NONAME
	_ZN17CSpeedDialPrivate22CheckingIfPopUpNeededLEv @ 63 NONAME
	_ZN17CSpeedDialPrivate4NewLEP19CVPbkContactManager @ 64 NONAME
	_ZN17CSpeedDialPrivate5StateEv @ 65 NONAME
	_ZN17CSpeedDialPrivate7ContactEi @ 66 NONAME
	_ZN17CSpeedDialPrivate8SetStateENS_15eSpeedDialStateE @ 67 NONAME
	_ZN17CSpeedDialPrivate9SetLayoutERK5TRect @ 68 NONAME
	_ZN17CSpeedDialPrivateD0Ev @ 69 NONAME
	_ZN17CSpeedDialPrivateD1Ev @ 70 NONAME
	_ZN17CSpeedDialPrivateD2Ev @ 71 NONAME
	_ZNK17CSpeedDialPrivate10NumberTypeEi @ 72 NONAME
	_ZNK17CSpeedDialPrivate10ThumbIndexEi @ 73 NONAME
	_ZNK17CSpeedDialPrivate11PhoneNumberEi @ 74 NONAME
	_ZNK17CSpeedDialPrivate12SpdIconIndexEi @ 75 NONAME
	_ZNK17CSpeedDialPrivate13VMBoxPositionEv @ 76 NONAME
	_ZNK17CSpeedDialPrivate5IndexEi @ 77 NONAME
	_ZNK17CSpeedDialPrivate6NumberEi @ 78 NONAME
	_ZNK17CSpeedDialPrivate9IconArrayEv @ 79 NONAME
	_ZThn56_N17CSpeedDialPrivateD0Ev @ 80 NONAME ; #<thunk>#
	_ZThn56_N17CSpeedDialPrivateD1Ev @ 81 NONAME ; #<thunk>#
	_ZThn64_N17CSpeedDialPrivateD0Ev @ 82 NONAME ; #<thunk>#
	_ZThn64_N17CSpeedDialPrivateD1Ev @ 83 NONAME ; #<thunk>#
	_ZThn68_N17CSpeedDialPrivateD0Ev @ 84 NONAME ; #<thunk>#
	_ZThn68_N17CSpeedDialPrivateD1Ev @ 85 NONAME ; #<thunk>#
	_ZThn76_N17CSpeedDialPrivateD0Ev @ 86 NONAME ; #<thunk>#
	_ZThn76_N17CSpeedDialPrivateD1Ev @ 87 NONAME ; #<thunk>#
	_ZN13CSpdiaDialogs6CancelEv @ 88 NONAME
	_ZN17CSpeedDialPrivate12ExVideoMailLER6TDes16 @ 89 NONAME
	_ZN17CSpeedDialPrivate12ExVoiceMailLER6TDes16 @ 90 NONAME
	_ZNK17CSpeedDialPrivate15VdoMBoxPositionEv @ 91 NONAME
	_ZN17CSpeedDialPrivate5EMailEP17MVPbkStoreContact @ 92 NONAME
	_ZN17CSpeedDialPrivate7GetWaitEv @ 93 NONAME
	_ZN17CSpeedDialPrivate18SetRefreshObserverEP16MRefreshObserver @ 94 NONAME
	_ZN17CSpeedDialPrivate19SetCurrentGridIndexEi @ 95 NONAME
	_ZN17CSpeedDialPrivate17SetGridDataAsNullEv @ 96 NONAME

