EXPORTS
	?metaObject@MobHistoryModel@@UBEPBUQMetaObject@@XZ @ 1 NONAME ; struct QMetaObject const * MobHistoryModel::metaObject(void) const
	?initializeModel@MobHistoryModel@@AAEXXZ @ 2 NONAME ; void MobHistoryModel::initializeModel(void)
	?clearHistory@MobHistoryModel@@QAEXXZ @ 3 NONAME ; void MobHistoryModel::clearHistory(void)
	??1MobHistoryModel@@UAE@XZ @ 4 NONAME ; MobHistoryModel::~MobHistoryModel(void)
	?qt_metacast@MobHistoryModel@@UAEPAXPBD@Z @ 5 NONAME ; void * MobHistoryModel::qt_metacast(char const *)
	??0MobHistoryModel@@QAE@IPAVQContactManager@QtMobility@@PAVQObject@@@Z @ 6 NONAME ; MobHistoryModel::MobHistoryModel(unsigned int, class QtMobility::QContactManager *, class QObject *)
	?staticMetaObject@MobHistoryModel@@2UQMetaObject@@B @ 7 NONAME ; struct QMetaObject const MobHistoryModel::staticMetaObject
	?sortAndRefresh@MobHistoryModel@@QAEXW4SortOrder@Qt@@@Z @ 8 NONAME ; void MobHistoryModel::sortAndRefresh(enum Qt::SortOrder)
	?logsRowsRemoved@MobHistoryModel@@AAEXABVQModelIndex@@HH@Z @ 9 NONAME ; void MobHistoryModel::logsRowsRemoved(class QModelIndex const &, int, int)
	?tr@MobHistoryModel@@SA?AVQString@@PBD0H@Z @ 10 NONAME ; class QString MobHistoryModel::tr(char const *, char const *, int)
	?readLogEvent@MobHistoryModel@@AAEXPAVLogsEvent@@AAUHistoryItem@@@Z @ 11 NONAME ; void MobHistoryModel::readLogEvent(class LogsEvent *, struct HistoryItem &)
	?displayRoleData@MobHistoryModel@@ABE?AVQVariant@@ABUHistoryItem@@@Z @ 12 NONAME ; class QVariant MobHistoryModel::displayRoleData(struct HistoryItem const &) const
	?trUtf8@MobHistoryModel@@SA?AVQString@@PBD0H@Z @ 13 NONAME ; class QString MobHistoryModel::trUtf8(char const *, char const *, int)
	?trUtf8@MobHistoryModel@@SA?AVQString@@PBD0@Z @ 14 NONAME ; class QString MobHistoryModel::trUtf8(char const *, char const *)
	?tr@MobHistoryModel@@SA?AVQString@@PBD0@Z @ 15 NONAME ; class QString MobHistoryModel::tr(char const *, char const *)
	?data@MobHistoryModel@@UBE?AVQVariant@@ABVQModelIndex@@H@Z @ 16 NONAME ; class QVariant MobHistoryModel::data(class QModelIndex const &, int) const
	?getStaticMetaObject@MobHistoryModel@@SAABUQMetaObject@@XZ @ 17 NONAME ; struct QMetaObject const & MobHistoryModel::getStaticMetaObject(void)
	?initializeLogsModel@MobHistoryModel@@AAEXXZ @ 18 NONAME ; void MobHistoryModel::initializeLogsModel(void)
	?rowCount@MobHistoryModel@@UBEHABVQModelIndex@@@Z @ 19 NONAME ; int MobHistoryModel::rowCount(class QModelIndex const &) const
	?findIndices@MobHistoryModel@@AAE?AV?$QList@V?$QList@H@@@@ABV?$QList@H@@@Z @ 20 NONAME ; class QList<class QList<int> > MobHistoryModel::findIndices(class QList<int> const &)
	?qt_metacall@MobHistoryModel@@UAEHW4Call@QMetaObject@@HPAPAX@Z @ 21 NONAME ; int MobHistoryModel::qt_metacall(enum QMetaObject::Call, int, void * *)
	?clearedCallLogs@MobHistoryModel@@AAEXH@Z @ 22 NONAME ; void MobHistoryModel::clearedCallLogs(int)
	?markingCompleted@MobHistoryModel@@AAEXH@Z @ 23 NONAME ; void MobHistoryModel::markingCompleted(int)
	?sort@MobHistoryModel@@UAEXHW4SortOrder@Qt@@@Z @ 24 NONAME ; void MobHistoryModel::sort(int, enum Qt::SortOrder)
	?markAllAsSeen@MobHistoryModel@@QAEXXZ @ 25 NONAME ; void MobHistoryModel::markAllAsSeen(void)
	??_EMobHistoryModel@@UAE@I@Z @ 26 NONAME ; MobHistoryModel::~MobHistoryModel(unsigned int)
	?validateRowIndex@MobHistoryModel@@ABE_NH@Z @ 27 NONAME ; bool MobHistoryModel::validateRowIndex(int) const
	?logsDataChanged@MobHistoryModel@@AAEXABVQModelIndex@@0@Z @ 28 NONAME ; void MobHistoryModel::logsDataChanged(class QModelIndex const &, class QModelIndex const &)
	?logsRowsInserted@MobHistoryModel@@AAEXABVQModelIndex@@HH@Z @ 29 NONAME ; void MobHistoryModel::logsRowsInserted(class QModelIndex const &, int, int)

