EXPORTS
	_ZN11CntEditView10deactivateEv @ 1 NONAME
	_ZN11CntEditView11qt_metacallEN11QMetaObject4CallEiPPv @ 2 NONAME
	_ZN11CntEditView11qt_metacastEPKc @ 3 NONAME
	_ZN11CntEditView14contactRemovedEb @ 4 NONAME
	_ZN11CntEditView14contactUpdatedEi @ 5 NONAME
	_ZN11CntEditView16changesDiscardedEv @ 6 NONAME
	_ZN11CntEditView16staticMetaObjectE @ 7 NONAME DATA 16
	_ZN11CntEditView19getStaticMetaObjectEv @ 8 NONAME
	_ZN11CntEditView8activateEP22CntAbstractViewManager4QMapIi8QVariantE @ 9 NONAME
	_ZN11CntEditViewC1Ev @ 10 NONAME
	_ZN11CntEditViewC2Ev @ 11 NONAME
	_ZN11CntEditViewD0Ev @ 12 NONAME
	_ZN11CntEditViewD1Ev @ 13 NONAME
	_ZN11CntEditViewD2Ev @ 14 NONAME
	_ZN13CntMainWindow10keyPressedEP9QKeyEvent @ 15 NONAME
	_ZN13CntMainWindow11qt_metacallEN11QMetaObject4CallEiPPv @ 16 NONAME
	_ZN13CntMainWindow11qt_metacastEPKc @ 17 NONAME
	_ZN13CntMainWindow13keyPressEventEP9QKeyEvent @ 18 NONAME
	_ZN13CntMainWindow16staticMetaObjectE @ 19 NONAME DATA 16
	_ZN13CntMainWindow19getStaticMetaObjectEv @ 20 NONAME
	_ZN13CntMainWindowC1EP7QWidgeti @ 21 NONAME
	_ZN13CntMainWindowC2EP7QWidgeti @ 22 NONAME
	_ZN13CntMainWindowD0Ev @ 23 NONAME
	_ZN13CntMainWindowD1Ev @ 24 NONAME
	_ZN13CntMainWindowD2Ev @ 25 NONAME
	_ZN14CntActionPopup11qt_metacallEN11QMetaObject4CallEiPPv @ 26 NONAME
	_ZN14CntActionPopup11qt_metacastEPKc @ 27 NONAME
	_ZN14CntActionPopup15showActionPopupE7QString @ 28 NONAME
	_ZN14CntActionPopup16staticMetaObjectE @ 29 NONAME DATA 16
	_ZN14CntActionPopup19getStaticMetaObjectEv @ 30 NONAME
	_ZN14CntActionPopup20executeContactActionERN10QtMobility8QContactENS0_14QContactDetailE7QString @ 31 NONAME
	_ZN14CntActionPopup24actionPopupCancelPressedEv @ 32 NONAME
	_ZN14CntActionPopupC1EPN10QtMobility8QContactE @ 33 NONAME
	_ZN14CntActionPopupC2EPN10QtMobility8QContactE @ 34 NONAME
	_ZN14CntActionPopupD0Ev @ 35 NONAME
	_ZN14CntActionPopupD1Ev @ 36 NONAME
	_ZN14CntActionPopupD2Ev @ 37 NONAME
	_ZN16CntViewNavigator11qt_metacallEN11QMetaObject4CallEiPPv @ 38 NONAME
	_ZN16CntViewNavigator11qt_metacastEPKc @ 39 NONAME
	_ZN16CntViewNavigator12addExceptionERKiS1_ @ 40 NONAME
	_ZN16CntViewNavigator12removeEffectERKi @ 41 NONAME
	_ZN16CntViewNavigator15removeExceptionERKi @ 42 NONAME
	_ZN16CntViewNavigator16staticMetaObjectE @ 43 NONAME DATA 16
	_ZN16CntViewNavigator19getStaticMetaObjectEv @ 44 NONAME
	_ZN16CntViewNavigator4backER6QFlagsIN2Hb14ViewSwitchFlagEEb @ 45 NONAME
	_ZN16CntViewNavigator4nextERKiR6QFlagsIN2Hb14ViewSwitchFlagEE @ 46 NONAME
	_ZN16CntViewNavigator7addRootERKi @ 47 NONAME
	_ZN16CntViewNavigator9addEffectERKiS1_ @ 48 NONAME
	_ZN16CntViewNavigatorC1EP7QObject @ 49 NONAME
	_ZN16CntViewNavigatorC2EP7QObject @ 50 NONAME
	_ZN16CntViewNavigatorD0Ev @ 51 NONAME
	_ZN16CntViewNavigatorD1Ev @ 52 NONAME
	_ZN16CntViewNavigatorD2Ev @ 53 NONAME
	_ZN18CntContactCardView10deactivateEv @ 54 NONAME
	_ZN18CntContactCardView11backPressedEv @ 55 NONAME
	_ZN18CntContactCardView11qt_metacallEN11QMetaObject4CallEiPPv @ 56 NONAME
	_ZN18CntContactCardView11qt_metacastEPKc @ 57 NONAME
	_ZN18CntContactCardView13addToContactsEv @ 58 NONAME
	_ZN18CntContactCardView13viewActivatedEP22CntAbstractViewManager4QMapIi8QVariantE @ 59 NONAME
	_ZN18CntContactCardView16staticMetaObjectE @ 60 NONAME DATA 16
	_ZN18CntContactCardView19getStaticMetaObjectEv @ 61 NONAME
	_ZN18CntContactCardView8activateEP22CntAbstractViewManager4QMapIi8QVariantE @ 62 NONAME
	_ZN18CntContactCardViewC1Eb @ 63 NONAME
	_ZN18CntContactCardViewC2Eb @ 64 NONAME
	_ZN18CntContactCardViewD0Ev @ 65 NONAME
	_ZN18CntContactCardViewD1Ev @ 66 NONAME
	_ZN18CntContactCardViewD2Ev @ 67 NONAME
	_ZN20CntBaseSelectionView10deactivateEv @ 68 NONAME
	_ZN20CntBaseSelectionView10viewClosedEv @ 69 NONAME
	_ZN20CntBaseSelectionView10viewOpenedEP22CntAbstractViewManager4QMapIi8QVariantE @ 70 NONAME
	_ZN20CntBaseSelectionView11qt_metacallEN11QMetaObject4CallEiPPv @ 71 NONAME
	_ZN20CntBaseSelectionView11qt_metacastEPKc @ 72 NONAME
	_ZN20CntBaseSelectionView16staticMetaObjectE @ 73 NONAME DATA 16
	_ZN20CntBaseSelectionView19getStaticMetaObjectEv @ 74 NONAME
	_ZN20CntBaseSelectionView8activateEP22CntAbstractViewManager4QMapIi8QVariantE @ 75 NONAME
	_ZN20CntBaseSelectionView9closeViewEv @ 76 NONAME
	_ZN20CntBaseSelectionViewC2Ev @ 77 NONAME
	_ZN20CntBaseSelectionViewD0Ev @ 78 NONAME
	_ZN20CntBaseSelectionViewD1Ev @ 79 NONAME
	_ZN20CntBaseSelectionViewD2Ev @ 80 NONAME
	_ZN21CntDefaultViewFactory10createViewEi @ 81 NONAME
	_ZN21CntDefaultViewFactory16createPluginViewEi @ 82 NONAME
	_ZN21CntDefaultViewFactoryC1Ev @ 83 NONAME
	_ZN21CntDefaultViewFactoryC2Ev @ 84 NONAME
	_ZN21CntDefaultViewFactoryD0Ev @ 85 NONAME
	_ZN21CntDefaultViewFactoryD1Ev @ 86 NONAME
	_ZN21CntDefaultViewFactoryD2Ev @ 87 NONAME
	_ZN21CntDefaultViewManager10changeViewE4QMapIi8QVariantE @ 88 NONAME
	_ZN21CntDefaultViewManager10switchViewE4QMapIi8QVariantE6QFlagsIN2Hb14ViewSwitchFlagEE @ 89 NONAME
	_ZN21CntDefaultViewManager11qt_metacallEN11QMetaObject4CallEiPPv @ 90 NONAME
	_ZN21CntDefaultViewManager11qt_metacastEPKc @ 91 NONAME
	_ZN21CntDefaultViewManager13currentViewIdEv @ 92 NONAME
	_ZN21CntDefaultViewManager13deleteOldViewEv @ 93 NONAME
	_ZN21CntDefaultViewManager14contactManagerERK7QString @ 94 NONAME
	_ZN21CntDefaultViewManager14setViewFactoryEP22CntAbstractViewFactory @ 95 NONAME
	_ZN21CntDefaultViewManager16setViewNavigatorEP16CntViewNavigator @ 96 NONAME
	_ZN21CntDefaultViewManager16staticMetaObjectE @ 97 NONAME DATA 16
	_ZN21CntDefaultViewManager17removeCurrentViewEv @ 98 NONAME
	_ZN21CntDefaultViewManager19getStaticMetaObjectEv @ 99 NONAME
	_ZN21CntDefaultViewManager4backE4QMapIi8QVariantEb @ 100 NONAME
	_ZN21CntDefaultViewManager7cleanupEv @ 101 NONAME
	_ZN21CntDefaultViewManager8closeAppEv @ 102 NONAME
	_ZN21CntDefaultViewManagerC1EP12HbMainWindow @ 103 NONAME
	_ZN21CntDefaultViewManagerC2EP12HbMainWindow @ 104 NONAME
	_ZN21CntDefaultViewManagerD0Ev @ 105 NONAME
	_ZN21CntDefaultViewManagerD1Ev @ 106 NONAME
	_ZN21CntDefaultViewManagerD2Ev @ 107 NONAME
	_ZNK11CntEditView10metaObjectEv @ 108 NONAME
	_ZNK11CntEditView4viewEv @ 109 NONAME
	_ZNK11CntEditView6viewIdEv @ 110 NONAME
	_ZNK11CntEditView9isDefaultEv @ 111 NONAME
	_ZNK13CntMainWindow10metaObjectEv @ 112 NONAME
	_ZNK14CntActionPopup10metaObjectEv @ 113 NONAME
	_ZNK16CntViewNavigator10metaObjectEv @ 114 NONAME
	_ZNK18CntContactCardView10metaObjectEv @ 115 NONAME
	_ZNK18CntContactCardView4viewEv @ 116 NONAME
	_ZNK18CntContactCardView6viewIdEv @ 117 NONAME
	_ZNK18CntContactCardView9isDefaultEv @ 118 NONAME
	_ZNK20CntBaseSelectionView10metaObjectEv @ 119 NONAME
	_ZNK20CntBaseSelectionView4viewEv @ 120 NONAME
	_ZNK20CntBaseSelectionView9isDefaultEv @ 121 NONAME
	_ZNK21CntDefaultViewManager10metaObjectEv @ 122 NONAME
	_ZTI11CntEditView @ 123 NONAME
	_ZTI13CntMainWindow @ 124 NONAME
	_ZTI14CntActionPopup @ 125 NONAME
	_ZTI16CntViewNavigator @ 126 NONAME
	_ZTI18CntContactCardView @ 127 NONAME
	_ZTI20CntBaseSelectionView @ 128 NONAME
	_ZTI21CntDefaultViewFactory @ 129 NONAME
	_ZTI21CntDefaultViewManager @ 130 NONAME
	_ZTV11CntEditView @ 131 NONAME
	_ZTV13CntMainWindow @ 132 NONAME
	_ZTV14CntActionPopup @ 133 NONAME
	_ZTV16CntViewNavigator @ 134 NONAME
	_ZTV18CntContactCardView @ 135 NONAME
	_ZTV20CntBaseSelectionView @ 136 NONAME
	_ZTV21CntDefaultViewFactory @ 137 NONAME
	_ZTV21CntDefaultViewManager @ 138 NONAME
	_ZThn8_N11CntEditView10deactivateEv @ 139 NONAME
	_ZThn8_N11CntEditView8activateEP22CntAbstractViewManager4QMapIi8QVariantE @ 140 NONAME
	_ZThn8_N11CntEditViewD0Ev @ 141 NONAME
	_ZThn8_N11CntEditViewD1Ev @ 142 NONAME
	_ZThn8_N13CntMainWindowD0Ev @ 143 NONAME
	_ZThn8_N13CntMainWindowD1Ev @ 144 NONAME
	_ZThn8_N18CntContactCardView10deactivateEv @ 145 NONAME
	_ZThn8_N18CntContactCardView8activateEP22CntAbstractViewManager4QMapIi8QVariantE @ 146 NONAME
	_ZThn8_N18CntContactCardViewD0Ev @ 147 NONAME
	_ZThn8_N18CntContactCardViewD1Ev @ 148 NONAME
	_ZThn8_N20CntBaseSelectionView10deactivateEv @ 149 NONAME
	_ZThn8_N20CntBaseSelectionView8activateEP22CntAbstractViewManager4QMapIi8QVariantE @ 150 NONAME
	_ZThn8_N20CntBaseSelectionViewD0Ev @ 151 NONAME
	_ZThn8_N20CntBaseSelectionViewD1Ev @ 152 NONAME
	_ZThn8_N21CntDefaultViewManager10changeViewE4QMapIi8QVariantE @ 153 NONAME
	_ZThn8_N21CntDefaultViewManager14contactManagerERK7QString @ 154 NONAME
	_ZThn8_N21CntDefaultViewManager4backE4QMapIi8QVariantEb @ 155 NONAME
	_ZThn8_N21CntDefaultViewManagerD0Ev @ 156 NONAME
	_ZThn8_N21CntDefaultViewManagerD1Ev @ 157 NONAME
	_ZThn8_NK11CntEditView4viewEv @ 158 NONAME
	_ZThn8_NK11CntEditView6viewIdEv @ 159 NONAME
	_ZThn8_NK11CntEditView9isDefaultEv @ 160 NONAME
	_ZThn8_NK18CntContactCardView4viewEv @ 161 NONAME
	_ZThn8_NK18CntContactCardView6viewIdEv @ 162 NONAME
	_ZThn8_NK18CntContactCardView9isDefaultEv @ 163 NONAME
	_ZThn8_NK20CntBaseSelectionView4viewEv @ 164 NONAME
	_ZThn8_NK20CntBaseSelectionView9isDefaultEv @ 165 NONAME

