EXPORTS
	_ZN11MobCntModel10showMyCardEb @ 1 NONAME
	_ZN11MobCntModel11doConstructEv @ 2 NONAME
	_ZN11MobCntModel11findIndexesERK5QListIjE @ 3 NONAME
	_ZN11MobCntModel11handleAddedERK5QListIjE @ 4 NONAME
	_ZN11MobCntModel11qt_metacallEN11QMetaObject4CallEiPPv @ 5 NONAME
	_ZN11MobCntModel11qt_metacastEPKc @ 6 NONAME
	_ZN11MobCntModel13handleChangedERK5QListIjE @ 7 NONAME
	_ZN11MobCntModel13handleRemovedERK5QListIjE @ 8 NONAME
	_ZN11MobCntModel14initializeDataEv @ 9 NONAME
	_ZN11MobCntModel16staticMetaObjectE @ 10 NONAME DATA 16
	_ZN11MobCntModel17updateContactIconEi @ 11 NONAME
	_ZN11MobCntModel19getStaticMetaObjectEv @ 12 NONAME
	_ZN11MobCntModel19handleMyCardChangedERKjS1_ @ 13 NONAME
	_ZN11MobCntModel21setFilterAndSortOrderERKN10QtMobility14QContactFilterERK5QListINS0_17QContactSortOrderEE @ 14 NONAME
	_ZN11MobCntModel21updateContactIdsArrayEv @ 15 NONAME
	_ZN11MobCntModelC1EPN10QtMobility15QContactManagerERKNS0_14QContactFilterERK5QListINS0_17QContactSortOrderEEbP7QObject @ 16 NONAME
	_ZN11MobCntModelC1ERKN10QtMobility14QContactFilterERK5QListINS0_17QContactSortOrderEEbP7QObject @ 17 NONAME
	_ZN11MobCntModelC2EPN10QtMobility15QContactManagerERKNS0_14QContactFilterERK5QListINS0_17QContactSortOrderEEbP7QObject @ 18 NONAME
	_ZN11MobCntModelC2ERKN10QtMobility14QContactFilterERK5QListINS0_17QContactSortOrderEEbP7QObject @ 19 NONAME
	_ZN11MobCntModelD0Ev @ 20 NONAME
	_ZN11MobCntModelD1Ev @ 21 NONAME
	_ZN11MobCntModelD2Ev @ 22 NONAME
	_ZNK11MobCntModel10metaObjectEv @ 23 NONAME
	_ZNK11MobCntModel10validRowIdEi @ 24 NONAME
	_ZNK11MobCntModel12myCardStatusEv @ 25 NONAME
	_ZNK11MobCntModel14contactManagerEv @ 26 NONAME
	_ZNK11MobCntModel14indexOfContactERKN10QtMobility8QContactE @ 27 NONAME
	_ZNK11MobCntModel18dataForDisplayRoleEi @ 28 NONAME
	_ZNK11MobCntModel4dataERK11QModelIndexi @ 29 NONAME
	_ZNK11MobCntModel5rowIdERKj @ 30 NONAME
	_ZNK11MobCntModel7contactERK11QModelIndex @ 31 NONAME
	_ZNK11MobCntModel7contactEi @ 32 NONAME
	_ZNK11MobCntModel8rowCountERK11QModelIndex @ 33 NONAME
	_ZTI11MobCntModel @ 34 NONAME
	_ZTV11MobCntModel @ 35 NONAME

