EXPORTS
	_ZN15MobHistoryModel10readEventsEii @ 1 NONAME
	_ZN15MobHistoryModel11qt_metacallEN11QMetaObject4CallEiPPv @ 2 NONAME
	_ZN15MobHistoryModel11qt_metacastEPKc @ 3 NONAME
	_ZN15MobHistoryModel12clearHistoryEv @ 4 NONAME
	_ZN15MobHistoryModel15initializeModelEv @ 5 NONAME
	_ZN15MobHistoryModel16staticMetaObjectE @ 6 NONAME DATA 16
	_ZN15MobHistoryModel17dataFromLogsModelERK11QModelIndexii @ 7 NONAME
	_ZN15MobHistoryModel19getStaticMetaObjectEv @ 8 NONAME
	_ZN15MobHistoryModel20dataFromMessageModelERK11QModelIndexii @ 9 NONAME
	_ZN15MobHistoryModel26dataFromConversationsModelERK11QModelIndexii @ 10 NONAME
	_ZN15MobHistoryModel4sortEiN2Qt9SortOrderE @ 11 NONAME
	_ZN15MobHistoryModelC1EjPN10QtMobility15QContactManagerEP7QObject @ 12 NONAME
	_ZN15MobHistoryModelC2EjPN10QtMobility15QContactManagerEP7QObject @ 13 NONAME
	_ZN15MobHistoryModelD0Ev @ 14 NONAME
	_ZN15MobHistoryModelD1Ev @ 15 NONAME
	_ZN15MobHistoryModelD2Ev @ 16 NONAME
	_ZNK15MobHistoryModel10metaObjectEv @ 17 NONAME
	_ZNK15MobHistoryModel10validRowIdEi @ 18 NONAME
	_ZNK15MobHistoryModel15displayRoleDataEi @ 19 NONAME
	_ZNK15MobHistoryModel17directionRoleDataEi @ 20 NONAME
	_ZNK15MobHistoryModel18decorationRoleDataEi @ 21 NONAME
	_ZNK15MobHistoryModel18seenStatusRoleDataEi @ 22 NONAME
	_ZNK15MobHistoryModel4dataERK11QModelIndexi @ 23 NONAME
	_ZNK15MobHistoryModel8rowCountERK11QModelIndex @ 24 NONAME
	_ZTI15MobHistoryModel @ 25 NONAME
	_ZTV15MobHistoryModel @ 26 NONAME

