EXPORTS
	_ZN10SimUtility10getSimInfoERi @ 1 NONAME
	_ZN10SimUtility11isFdnActiveEv @ 2 NONAME
	_ZN10SimUtility11qt_metacallEN11QMetaObject4CallEiPPv @ 3 NONAME
	_ZN10SimUtility11qt_metacastEPKc @ 4 NONAME
	_ZN10SimUtility12setFdnStatusEb @ 5 NONAME
	_ZN10SimUtility12simInfoReadyERNS_7SimInfoEi @ 6 NONAME
	_ZN10SimUtility14verifyPin2CodeEv @ 7 NONAME
	_ZN10SimUtility15startGetSimInfoEv @ 8 NONAME
	_ZN10SimUtility16RequestCompletedEi @ 9 NONAME
	_ZN10SimUtility16staticMetaObjectE @ 10 NONAME DATA 16
	_ZN10SimUtility18getAvailableStoresERi @ 11 NONAME
	_ZN10SimUtility19getStaticMetaObjectEv @ 12 NONAME
	_ZN10SimUtility20availableStoresReadyERNS_15AvailableStoresEi @ 13 NONAME
	_ZN10SimUtility23startGetAvailableStoresEv @ 14 NONAME
	_ZN10SimUtilityC1ENS_9StoreTypeERiP7QObject @ 15 NONAME
	_ZN10SimUtilityC2ENS_9StoreTypeERiP7QObject @ 16 NONAME
	_ZN10SimUtilityD0Ev @ 17 NONAME
	_ZN10SimUtilityD1Ev @ 18 NONAME
	_ZN10SimUtilityD2Ev @ 19 NONAME
	_ZNK10SimUtility10metaObjectEv @ 20 NONAME
	_ZNK10SimUtility17ParseServiceTableEPNS_15AvailableStoresE @ 21 NONAME
	_ZTI10SimUtility @ 22 NONAME
	_ZTV10SimUtility @ 23 NONAME
	_ZNK10SimUtility13isSimInsertedEv @ 24 NONAME
	_ZN10SimUtility19adnCacheStatusReadyERNS_11CacheStatusEi @ 25 NONAME
	_ZN10SimUtility20notifyAdnCacheStatusEv @ 26 NONAME

