EXPORTS
	_ZN14CVPbkSortOrder11SetReserveLEi @ 1 NONAME
	_ZN14CVPbkSortOrder3SetERK18MVPbkFieldTypeList @ 2 NONAME
	_ZN14CVPbkSortOrder4NewLER15TResourceReaderRK18MVPbkFieldTypeList @ 3 NONAME
	_ZN14CVPbkSortOrder4NewLERK18MVPbkFieldTypeList @ 4 NONAME
	_ZN16CVPbkFieldFilter4NewLERKNS_7TConfigE @ 5 NONAME
	_ZN16CVPbkFieldFilter6ResetLERKNS_7TConfigE @ 6 NONAME
	_ZN19CVPbkBatchOperation5NewLCER27MVPbkBatchOperationObserver @ 7 NONAME
	_ZN19CVPbkContactManager13CopyContactsLERK21MVPbkContactLinkArrayP17MVPbkContactStoreR27MVPbkBatchOperationObserver @ 8 NONAME
	_ZN19CVPbkContactManager14ContactStoresLEv @ 9 NONAME
	_ZN19CVPbkContactManager15CommitContactsLERK6TArrayIP17MVPbkStoreContactER27MVPbkBatchOperationObserver @ 10 NONAME
	_ZN19CVPbkContactManager15CompressStoresLER27MVPbkBatchOperationObserver @ 11 NONAME
	_ZN19CVPbkContactManager15DeleteContactsLERK21MVPbkContactLinkArrayR27MVPbkBatchOperationObserver @ 12 NONAME
	_ZN19CVPbkContactManager17LoadContactStoreLERK23TVPbkContactStoreUriPtr @ 13 NONAME
	_ZN19CVPbkContactManager17MatchPhoneNumberLERK7TDesC16iR24MVPbkContactFindObserver @ 14 NONAME
	_ZN19CVPbkContactManager24ContactAttributeManagerLEv @ 15 NONAME
	_ZN19CVPbkContactManager4NewLERK25CVPbkContactStoreUriArrayP3RFs @ 16 NONAME
	_ZN19CVPbkContactManager5FindLERK7TDesC16RK18MVPbkFieldTypeListR24MVPbkContactFindObserver @ 17 NONAME
	_ZN19CVPbkContactManager9FsSessionEv @ 18 NONAME
	_ZN20CVPbkContactStoreUri4NewLERK23TVPbkContactStoreUriPtr @ 19 NONAME
	_ZN20VPbkContactStoreUris15DefaultCntDbUriEv @ 20 NONAME
	_ZN20VPbkContactStoreUris15SimGlobalAdnUriEv @ 21 NONAME
	_ZN20VPbkContactStoreUris15SimGlobalFdnUriEv @ 22 NONAME
	_ZN20VPbkContactStoreUris15SimGlobalSdnUriEv @ 23 NONAME
	_ZN20VPbkContactStoreUris21SimGlobalOwnNumberUriEv @ 24 NONAME
	_ZN21CVPbkContactLinkArray15ResetAndDestroyEv @ 25 NONAME
	_ZN21CVPbkContactLinkArray4NewLEv @ 26 NONAME
	_ZN21CVPbkContactLinkArray5NewLCER11RReadStreamRK21MVPbkContactStoreList @ 27 NONAME
	_ZN21CVPbkContactLinkArray5NewLCERK6TDesC8RK21MVPbkContactStoreList @ 28 NONAME
	_ZN21CVPbkContactLinkArray5NewLCEv @ 29 NONAME
	_ZN21CVPbkContactLinkArray5ResetEv @ 30 NONAME
	_ZN21CVPbkContactLinkArray6DeleteEi @ 31 NONAME
	_ZN21CVPbkContactLinkArray6RemoveEi @ 32 NONAME
	_ZN21CVPbkContactLinkArray7AppendLEP16MVPbkContactLink @ 33 NONAME
	_ZN21CVPbkContactLinkArray7InsertLEP16MVPbkContactLinki @ 34 NONAME
	_ZN21CVPbkDefaultAttribute14SetDefaultTypeE16TVPbkDefaultType @ 35 NONAME
	_ZN21CVPbkDefaultAttribute4NewLE16TVPbkDefaultType @ 36 NONAME
	_ZN21CVPbkDefaultAttribute4NewLEv @ 37 NONAME
	_ZN21TVPbkFieldTypeMapping16SetNonVersitTypeE23TVPbkNonVersitFieldType @ 38 NONAME
	_ZN21TVPbkFieldTypeMapping17SetVersitPropertyE24TVPbkFieldVersitProperty @ 39 NONAME
	_ZN21TVPbkFieldTypeMappingC1ER15TResourceReader @ 40 NONAME
	_ZN21TVPbkFieldTypeMappingC1Ev @ 41 NONAME
	_ZN21TVPbkFieldTypeMappingC2ER15TResourceReader @ 42 NONAME
	_ZN21TVPbkFieldTypeMappingC2Ev @ 43 NONAME
	_ZN22CVPbkFieldTypeRefsList4NewLEv @ 44 NONAME
	_ZN22CVPbkFieldTypeRefsList6RemoveERK14MVPbkFieldType @ 45 NONAME
	_ZN22CVPbkFieldTypeRefsList7AppendLERK14MVPbkFieldType @ 46 NONAME
	_ZN22CVPbkFieldTypeSelector4NewLER15TResourceReaderRK18MVPbkFieldTypeList @ 47 NONAME
	_ZN22CVPbkVoiceTagAttribute4NewLEv @ 48 NONAME
	_ZN23CVPbkSpeedDialAttribute4NewLEi @ 49 NONAME
	_ZN23CVPbkSpeedDialAttribute4NewLEv @ 50 NONAME
	_ZN23CVPbkSpeedDialAttribute8SetIndexEi @ 51 NONAME
	_ZN23TVPbkContactStoreUriPtr3SetERKS_ @ 52 NONAME
	_ZN23TVPbkContactStoreUriPtrC1ERK7TDesC16 @ 53 NONAME
	_ZN23TVPbkContactStoreUriPtrC1Ev @ 54 NONAME
	_ZN23TVPbkContactStoreUriPtrC2ERK7TDesC16 @ 55 NONAME
	_ZN23TVPbkContactStoreUriPtrC2Ev @ 56 NONAME
	_ZN24CVPbkEmptyBatchOperation5NewLCER27MVPbkBatchOperationObserver @ 57 NONAME
	_ZN24CVPbkFilteredContactView4NewLER20MVPbkContactViewBaseR24MVPbkContactViewObserverR20MVPbkContactSelector @ 58 NONAME
	_ZN24TVPbkFieldTypeParameters11DoRemoveAllERKS_ @ 59 NONAME
	_ZN24TVPbkFieldTypeParameters16ReadFromResourceER15TResourceReader @ 60 NONAME
	_ZN24TVPbkFieldTypeParameters5DoAddE23TVPbkFieldTypeParameter @ 61 NONAME
	_ZN24TVPbkFieldTypeParameters5ResetEv @ 62 NONAME
	_ZN24TVPbkFieldTypeParameters8DoAddAllERKS_ @ 63 NONAME
	_ZN24TVPbkFieldTypeParameters8DoRemoveE23TVPbkFieldTypeParameter @ 64 NONAME
	_ZN24TVPbkFieldVersitProperty16ReadFromResourceER15TResourceReader @ 65 NONAME
	_ZN24TVPbkFieldVersitPropertyC1ER15TResourceReader @ 66 NONAME
	_ZN24TVPbkFieldVersitPropertyC1Ev @ 67 NONAME
	_ZN24TVPbkFieldVersitPropertyC2ER15TResourceReader @ 68 NONAME
	_ZN24TVPbkFieldVersitPropertyC2Ev @ 69 NONAME
	_ZN25CVPbkContactFindOperation5NewLCER24MVPbkContactFindObserver @ 70 NONAME
	_ZN25CVPbkContactStoreUriArray10AppendAllLERKS_ @ 71 NONAME
	_ZN25CVPbkContactStoreUriArray4NewLEv @ 72 NONAME
	_ZN25CVPbkContactStoreUriArray5NewLCERK6TDesC8 @ 73 NONAME
	_ZN25CVPbkContactStoreUriArray5NewLCEv @ 74 NONAME
	_ZN25CVPbkContactStoreUriArray6RemoveERK23TVPbkContactStoreUriPtr @ 75 NONAME
	_ZN25CVPbkContactStoreUriArray7AppendLERK23TVPbkContactStoreUriPtr @ 76 NONAME
	_ZN25MVPbkContactFieldTextData4CastER21MVPbkContactFieldData @ 77 NONAME
	_ZN25MVPbkContactFieldTextData4CastERK21MVPbkContactFieldData @ 78 NONAME
	_ZN26CVPbkContactViewDefinition11AddSubViewLEPS_ @ 79 NONAME
	_ZN26CVPbkContactViewDefinition13SetSortPolicyE26TVPbkContactViewSortPolicy @ 80 NONAME
	_ZN26CVPbkContactViewDefinition4NewLER15TResourceReader @ 81 NONAME
	_ZN26CVPbkContactViewDefinition4NewLERKS_ @ 82 NONAME
	_ZN26CVPbkContactViewDefinition4NewLEv @ 83 NONAME
	_ZN26CVPbkContactViewDefinition7SetFlagE20TVPbkContactViewFlagi @ 84 NONAME
	_ZN26CVPbkContactViewDefinition7SetTypeE20TVPbkContactViewType @ 85 NONAME
	_ZN26CVPbkContactViewDefinition7SetUriLERK7TDesC16 @ 86 NONAME
	_ZN26CVPbkContactViewDefinition8SetNameLERK7TDesC16 @ 87 NONAME
	_ZN26CVPbkContactViewDefinition9SubViewAtEi @ 88 NONAME
	_ZN26CVPbkLocalVariationManager29LocallyVariatedFeatureEnabledE22TVPbkLocalVariantFlags @ 89 NONAME
	_ZN26CVPbkLocalVariationManager4NewLEv @ 90 NONAME
	_ZN27CVPbkContactFieldCollection5NewLCER17MVPbkStoreContact @ 91 NONAME
	_ZN27CVPbkContactFieldCollection7AppendLEP22MVPbkStoreContactField @ 92 NONAME
	_ZN27CVPbkContactStoreProperties18SetBooleanPropertyENS_13TPropertyFlagEi @ 93 NONAME
	_ZN27CVPbkContactStoreProperties18SetSupportedFieldsERK18MVPbkFieldTypeList @ 94 NONAME
	_ZN27CVPbkContactStoreProperties4NewLEv @ 95 NONAME
	_ZN27CVPbkContactStoreProperties7SetNameERK23TVPbkContactStoreUriPtr @ 96 NONAME
	_ZN27MVPbkContactFieldBinaryData4CastER21MVPbkContactFieldData @ 97 NONAME
	_ZN27MVPbkContactFieldBinaryData4CastERK21MVPbkContactFieldData @ 98 NONAME
	_ZN29CVPbkContactCopyPolicyManager10GetPolicyLER19CVPbkContactManagerRK23TVPbkContactStoreUriPtr @ 99 NONAME
	_ZN29CVPbkContactCopyPolicyManager4NewLEv @ 100 NONAME
	_ZN29CVPbkContactFieldTypeIterator5NewLCERK14MVPbkFieldTypeR32MVPbkStoreContactFieldCollection @ 101 NONAME
	_ZN29CVPbkPhoneNumberMatchStrategy4NewLERKNS_7TConfigER19CVPbkContactManagerR24MVPbkContactFindObserver @ 102 NONAME
	_ZN29CVPbkPhoneNumberMatchStrategy6MatchLERK7TDesC16 @ 103 NONAME
	_ZN29MVPbkContactFieldDateTimeData4CastER21MVPbkContactFieldData @ 104 NONAME
	_ZN29MVPbkContactFieldDateTimeData4CastERK21MVPbkContactFieldData @ 105 NONAME
	_ZN30CVPbkMultiContactOperationBase16AddSubOperationLEP21MVPbkContactOperation @ 106 NONAME
	_ZN34RVPbkContactFieldDefaultPriorities12InternalizeLERK6TDesC8 @ 107 NONAME
	_ZN9VPbkError5PanicENS_10TPanicCodeE @ 108 NONAME
	_ZN9VPbkUtils14MatchFieldTypeERK18MVPbkFieldTypeListRK21MVPbkBaseContactField @ 109 NONAME
	_ZN9VPbkUtils20IsFieldTypeIncludedLERK18MVPbkFieldTypeListRK21MVPbkBaseContactFieldR15TResourceReader @ 110 NONAME
	_ZN9VPbkUtils26VerifySyncronizationFieldLER3RFsRK18MVPbkFieldTypeListR17MVPbkStoreContact @ 111 NONAME
	_ZN9VPbkUtils29IsFieldTypeIncludedInContactLERK18MVPbkFieldTypeListRK16MVPbkBaseContactR15TResourceReader @ 112 NONAME
	_ZNK16CVPbkFieldFilter9FindFieldERK21MVPbkBaseContactField @ 113 NONAME
	_ZNK19CVPbkContactManager10FieldTypesEv @ 114 NONAME
	_ZNK19CVPbkContactManager13CreateLinksLCER11RReadStream @ 115 NONAME
	_ZNK19CVPbkContactManager13CreateLinksLCERK6TDesC8 @ 116 NONAME
	_ZNK19CVPbkContactManager16RetrieveContactLERK16MVPbkContactLinkR35MVPbkSingleContactOperationObserver @ 117 NONAME
	_ZNK19CVPbkContactManager19CreateContactViewLCER24MVPbkContactViewObserverRK26CVPbkContactViewDefinitionRK18MVPbkFieldTypeList @ 118 NONAME
	_ZNK20CVPbkContactStoreUri3UriEv @ 119 NONAME
	_ZNK21CVPbkContactLinkArray16PackedBufferSizeEv @ 120 NONAME
	_ZNK21CVPbkDefaultAttribute11DefaultTypeEv @ 121 NONAME
	_ZNK21TVPbkFieldTypeMapping9FindMatchERK18MVPbkFieldTypeList @ 122 NONAME
	_ZNK23CVPbkSpeedDialAttribute5IndexEv @ 123 NONAME
	_ZNK23TVPbkContactStoreUriPtr12ExternalizeLER12RWriteStream @ 124 NONAME
	_ZNK23TVPbkContactStoreUriPtr16ExternalizedSizeEv @ 125 NONAME
	_ZNK23TVPbkContactStoreUriPtr6LengthEv @ 126 NONAME
	_ZNK23TVPbkContactStoreUriPtr6UriDesEv @ 127 NONAME
	_ZNK23TVPbkContactStoreUriPtr7CompareERK7TDesC16NS_29TVPbkContactStoreUriComponentE @ 128 NONAME
	_ZNK23TVPbkContactStoreUriPtr7CompareERKS_NS_29TVPbkContactStoreUriComponentE @ 129 NONAME
	_ZNK23TVPbkContactStoreUriPtr9ComponentENS_29TVPbkContactStoreUriComponentE @ 130 NONAME
	_ZNK24TVPbkFieldTypeParameters11ContainsAllERKS_ @ 131 NONAME
	_ZNK24TVPbkFieldTypeParameters12ContainsNoneERKS_ @ 132 NONAME
	_ZNK24TVPbkFieldTypeParameters8ContainsE23TVPbkFieldTypeParameter @ 133 NONAME
	_ZNK24TVPbkFieldVersitProperty7MatchesERKS_ @ 134 NONAME
	_ZNK25CVPbkContactStoreUriArray10IsIncludedERK23TVPbkContactStoreUriPtr @ 135 NONAME
	_ZNK25CVPbkContactStoreUriArray5CountEv @ 136 NONAME
	_ZNK25CVPbkContactStoreUriArray6PackLCEv @ 137 NONAME
	_ZNK25CVPbkContactStoreUriArrayixEi @ 138 NONAME
	_ZNK26CVPbkContactViewDefinition10SortPolicyEv @ 139 NONAME
	_ZNK26CVPbkContactViewDefinition12SubViewCountEv @ 140 NONAME
	_ZNK26CVPbkContactViewDefinition3UriEv @ 141 NONAME
	_ZNK26CVPbkContactViewDefinition4NameEv @ 142 NONAME
	_ZNK26CVPbkContactViewDefinition4TypeEv @ 143 NONAME
	_ZNK26CVPbkContactViewDefinition8FlagIsOnE20TVPbkContactViewFlag @ 144 NONAME
	_ZNK26CVPbkContactViewDefinition9SubViewAtEi @ 145 NONAME
	_ZNK30CVPbkMultiContactOperationBase17SubOperationCountEv @ 146 NONAME
	_ZNK34RVPbkContactFieldDefaultPriorities13ExternalizeLCEv @ 147 NONAME
	_ZTI14CVPbkSortOrder @ 148 NONAME ; #<TI>#
	_ZTI16CVPbkFieldFilter @ 149 NONAME ; #<TI>#
	_ZTI19CVPbkBatchOperation @ 150 NONAME ; #<TI>#
	_ZTI19CVPbkContactManager @ 151 NONAME ; #<TI>#
	_ZTI20CVPbkContactStoreUri @ 152 NONAME ; #<TI>#
	_ZTI21CVPbkContactLinkArray @ 153 NONAME ; #<TI>#
	_ZTI21CVPbkDefaultAttribute @ 154 NONAME ; #<TI>#
	_ZTI22CVPbkFieldTypeRefsList @ 155 NONAME ; #<TI>#
	_ZTI22CVPbkFieldTypeSelector @ 156 NONAME ; #<TI>#
	_ZTI22CVPbkVoiceTagAttribute @ 157 NONAME ; #<TI>#
	_ZTI23CVPbkSpeedDialAttribute @ 158 NONAME ; #<TI>#
	_ZTI23TVPbkContactStoreUriPtr @ 159 NONAME ; #<TI>#
	_ZTI24CVPbkEmptyBatchOperation @ 160 NONAME ; #<TI>#
	_ZTI24CVPbkFilteredContactView @ 161 NONAME ; #<TI>#
	_ZTI25CVPbkContactFindOperation @ 162 NONAME ; #<TI>#
	_ZTI25CVPbkContactStoreUriArray @ 163 NONAME ; #<TI>#
	_ZTI26CVPbkContactViewDefinition @ 164 NONAME ; #<TI>#
	_ZTI26CVPbkLocalVariationManager @ 165 NONAME ; #<TI>#
	_ZTI27CVPbkContactFieldCollection @ 166 NONAME ; #<TI>#
	_ZTI27CVPbkContactStoreProperties @ 167 NONAME ; #<TI>#
	_ZTI29CVPbkContactCopyPolicyManager @ 168 NONAME ; #<TI>#
	_ZTI29CVPbkContactFieldTypeIterator @ 169 NONAME ; #<TI>#
	_ZTI29CVPbkPhoneNumberMatchStrategy @ 170 NONAME ; #<TI>#
	_ZTI30CVPbkMultiContactOperationBase @ 171 NONAME ; #<TI>#
	_ZTIN12VPbkEngUtils18CVPbkAsyncCallbackI23CVPbkFoldingContactView24MVPbkContactViewObserverEE @ 172 NONAME ; #<TI>#
	_ZTIN12VPbkEngUtils18CVPbkAsyncCallbackI24CVPbkFilteredContactView24MVPbkContactViewObserverEE @ 173 NONAME ; #<TI>#
	_ZTIN12VPbkEngUtils18CVPbkAsyncCallbackI25CVPbkCompositeContactView24MVPbkContactViewObserverEE @ 174 NONAME ; #<TI>#
	_ZTIN12VPbkEngUtils18CVPbkAsyncCallbackI13CVPbkFindView24MVPbkContactViewObserverEE @ 175 NONAME ; #<TI>#
	_ZTV14CVPbkSortOrder @ 176 NONAME ; #<VT>#
	_ZTV16CVPbkFieldFilter @ 177 NONAME ; #<VT>#
	_ZTV19CVPbkBatchOperation @ 178 NONAME ; #<VT>#
	_ZTV19CVPbkContactManager @ 179 NONAME ; #<VT>#
	_ZTV20CVPbkContactStoreUri @ 180 NONAME ; #<VT>#
	_ZTV21CVPbkContactLinkArray @ 181 NONAME ; #<VT>#
	_ZTV21CVPbkDefaultAttribute @ 182 NONAME ; #<VT>#
	_ZTV22CVPbkFieldTypeRefsList @ 183 NONAME ; #<VT>#
	_ZTV22CVPbkFieldTypeSelector @ 184 NONAME ; #<VT>#
	_ZTV22CVPbkVoiceTagAttribute @ 185 NONAME ; #<VT>#
	_ZTV23CVPbkSpeedDialAttribute @ 186 NONAME ; #<VT>#
	_ZTV23TVPbkContactStoreUriPtr @ 187 NONAME ; #<VT>#
	_ZTV24CVPbkEmptyBatchOperation @ 188 NONAME ; #<VT>#
	_ZTV24CVPbkFilteredContactView @ 189 NONAME ; #<VT>#
	_ZTV25CVPbkContactFindOperation @ 190 NONAME ; #<VT>#
	_ZTV25CVPbkContactStoreUriArray @ 191 NONAME ; #<VT>#
	_ZTV26CVPbkContactViewDefinition @ 192 NONAME ; #<VT>#
	_ZTV26CVPbkLocalVariationManager @ 193 NONAME ; #<VT>#
	_ZTV27CVPbkContactFieldCollection @ 194 NONAME ; #<VT>#
	_ZTV27CVPbkContactStoreProperties @ 195 NONAME ; #<VT>#
	_ZTV29CVPbkContactCopyPolicyManager @ 196 NONAME ; #<VT>#
	_ZTV29CVPbkContactFieldTypeIterator @ 197 NONAME ; #<VT>#
	_ZTV29CVPbkPhoneNumberMatchStrategy @ 198 NONAME ; #<VT>#
	_ZTV30CVPbkMultiContactOperationBase @ 199 NONAME ; #<VT>#
	_ZTVN12VPbkEngUtils18CVPbkAsyncCallbackI23CVPbkFoldingContactView24MVPbkContactViewObserverEE @ 200 NONAME ; #<VT>#
	_ZTVN12VPbkEngUtils18CVPbkAsyncCallbackI24CVPbkFilteredContactView24MVPbkContactViewObserverEE @ 201 NONAME ; #<VT>#
	_ZTVN12VPbkEngUtils18CVPbkAsyncCallbackI25CVPbkCompositeContactView24MVPbkContactViewObserverEE @ 202 NONAME ; #<VT>#
	_ZTVN12VPbkEngUtils18CVPbkAsyncCallbackI13CVPbkFindView24MVPbkContactViewObserverEE @ 203 NONAME ; #<VT>#
	_ZN22CVPbkFieldTypeIterator5NewLCERK22CVPbkFieldTypeSelectorRK18MVPbkFieldTypeList @ 204 NONAME
	_ZTI22CVPbkFieldTypeIterator @ 205 NONAME ; #<TI>#
	_ZTV22CVPbkFieldTypeIterator @ 206 NONAME ; #<VT>#
	_ZN22CVPbkFieldTypeSelector4NewLERK18MVPbkFieldTypeList @ 207 NONAME
	_ZN26CVPbkContactViewDefinition19SetFieldTypeFilterLEP22CVPbkFieldTypeSelector @ 208 NONAME
	_ZNK26CVPbkContactViewDefinition15FieldTypeFilterEv @ 209 NONAME
	_ZN33CVPbkBaseContactFieldTypeIterator5NewLCERK14MVPbkFieldTypeRK31MVPbkBaseContactFieldCollection @ 210 NONAME
	_ZTI33CVPbkBaseContactFieldTypeIterator @ 211 NONAME ; #<TI>#
	_ZTV33CVPbkBaseContactFieldTypeIterator @ 212 NONAME ; #<VT>#
	_ZN22CVPbkFieldTypeSelector12InternalizeLERK6TDesC8 @ 213 NONAME
	_ZNK22CVPbkFieldTypeSelector13ExternalizeLCEv @ 214 NONAME
	_ZN28VPbkContactViewFilterBuilder23BuildContactViewFilterLER22CVPbkFieldTypeSelector22TVPbkContactViewFilterR19CVPbkContactManager @ 215 NONAME
	_ZNK22CVPbkFieldTypeSelector21MatchingNonVersitTypeERK14MVPbkFieldType @ 216 NONAME
	_ZNK22CVPbkFieldTypeSelector22MatchingVersitPropertyERK14MVPbkFieldType @ 217 NONAME
	_ZN18CVPbkFieldTypeList4NewLER13RResourceFileR15TResourceReader @ 218 NONAME
	_ZTI18CVPbkFieldTypeList @ 219 NONAME ; #<TI>#
	_ZTV18CVPbkFieldTypeList @ 220 NONAME ; #<VT>#
	_ZN22CVPbkFieldTypeSelector4NewLERKS_ @ 221 NONAME
	_ZN18CVPbkContactCopier13CopyContactsLEmRK21MVPbkContactLinkArrayP17MVPbkContactStoreR21CVPbkContactLinkArrayR27MVPbkBatchOperationObserver @ 222 NONAME
	_ZN18CVPbkContactCopier4NewLER19CVPbkContactManager @ 223 NONAME
	_ZTI18CVPbkContactCopier @ 224 NONAME ; #<TI>#
	_ZTV18CVPbkContactCopier @ 225 NONAME ; #<VT>#
	_ZN19CVPbkContactManager5FindLERK12MDesC16ArrayRK18MVPbkFieldTypeListR34MVPbkContactFindFromStoresObserverRK9TCallBack @ 226 NONAME
	_ZN22CVPbkFieldTypeRefsList5ResetEv @ 227 NONAME
	_ZN35CVPbkContactFindFromStoresOperation5NewLCER34MVPbkContactFindFromStoresObserver @ 228 NONAME
	_ZTI35CVPbkContactFindFromStoresOperation @ 229 NONAME ; #<TI>#
	_ZTV35CVPbkContactFindFromStoresOperation @ 230 NONAME ; #<VT>#
	_ZN21CVPbkContactStoreList4NewLEv @ 231 NONAME
	_ZN21CVPbkContactStoreList7AppendLEP17MVPbkContactStore @ 232 NONAME
	_ZN28CVPbkContactOperationFactory4NewLER21MVPbkContactStoreList @ 233 NONAME
	_ZTI21CVPbkContactStoreList @ 234 NONAME ; #<TI>#
	_ZTI28CVPbkContactOperationFactory @ 235 NONAME ; #<TI>#
	_ZTV21CVPbkContactStoreList @ 236 NONAME ; #<VT>#
	_ZTV28CVPbkContactOperationFactory @ 237 NONAME ; #<VT>#
	_ZN37CVPbkBaseContactFieldTypeListIterator5NewLCERK18MVPbkFieldTypeListRK31MVPbkBaseContactFieldCollection @ 238 NONAME
	_ZTI37CVPbkBaseContactFieldTypeListIterator @ 239 NONAME ; #<TI>#
	_ZTV37CVPbkBaseContactFieldTypeListIterator @ 240 NONAME ; #<VT>#
	_ZN27CVPbkContactStoreProperties19SetServicePropertyLE4TUidi @ 241 NONAME
	_ZN24CVPbkFilteredContactView4NewLER20MVPbkContactViewBaseR24MVPbkContactViewObserverR20MVPbkContactSelectorRK18MVPbkFieldTypeList @ 242 NONAME
	_ZN19CVPbkContactManager4NewLE13TSecurityInfoRK25CVPbkContactStoreUriArrayP3RFs @ 243 NONAME
	_ZN26CVPbkContactViewDefinition5NewLCER15TResourceReader @ 244 NONAME
	_ZN26CVPbkContactViewDefinition5NewLCERKS_ @ 245 NONAME
	_ZN26CVPbkContactViewDefinition5NewLCEv @ 246 NONAME
	_ZN26CVPbkContactViewDefinition10SetSharingE23TVPbkContactViewSharing @ 247 NONAME
	_ZNK26CVPbkContactViewDefinition7SharingEv @ 248 NONAME
	_ZN17VPbkFieldTypeList6IsSameERK18MVPbkFieldTypeListS2_ @ 249 NONAME
	_ZN22CVPbkTopContactManager12IsTopContactERK16MVPbkBaseContact @ 250 NONAME
	_ZN22CVPbkTopContactManager12SetTopOrderLERK21MVPbkContactLinkArrayR22MVPbkOperationObserverR27MVPbkOperationErrorObserver @ 251 NONAME
	_ZN22CVPbkTopContactManager14RemoveFromTopLERK16MVPbkContactLinkR22MVPbkOperationObserverR27MVPbkOperationErrorObserver @ 252 NONAME
	_ZN22CVPbkTopContactManager14RemoveFromTopLERK21MVPbkContactLinkArrayR22MVPbkOperationObserverR27MVPbkOperationErrorObserver @ 253 NONAME
	_ZN22CVPbkTopContactManager14RemoveFromTopLERK6TDesC8R22MVPbkOperationObserverR27MVPbkOperationErrorObserver @ 254 NONAME
	_ZN22CVPbkTopContactManager19GetTopContactLinksLER28MVPbkOperationResultObserverIP21MVPbkContactLinkArrayER27MVPbkOperationErrorObserver @ 255 NONAME
	_ZN22CVPbkTopContactManager19GetTopContactsViewLER28MVPbkOperationResultObserverIP20MVPbkContactViewBaseER27MVPbkOperationErrorObserver @ 256 NONAME
	_ZN22CVPbkTopContactManager22GetNonTopContactLinksLER28MVPbkOperationResultObserverIP21MVPbkContactLinkArrayER27MVPbkOperationErrorObserver @ 257 NONAME
	_ZN22CVPbkTopContactManager22GetNonTopContactsViewLER28MVPbkOperationResultObserverIP20MVPbkContactViewBaseER27MVPbkOperationErrorObserver @ 258 NONAME
	_ZN22CVPbkTopContactManager4NewLER19CVPbkContactManager @ 259 NONAME
	_ZN22CVPbkTopContactManager4NewLEv @ 260 NONAME
	_ZN22CVPbkTopContactManager9AddToTopLERK16MVPbkContactLinkR22MVPbkOperationObserverR27MVPbkOperationErrorObserver @ 261 NONAME
	_ZN22CVPbkTopContactManager9AddToTopLERK21MVPbkContactLinkArrayR22MVPbkOperationObserverR27MVPbkOperationErrorObserver @ 262 NONAME
	_ZN22CVPbkTopContactManager9AddToTopLERK6TDesC8R22MVPbkOperationObserverR27MVPbkOperationErrorObserver @ 263 NONAME
	_ZN22CVPbkTopContactManagerD0Ev @ 264 NONAME
	_ZN22CVPbkTopContactManagerD1Ev @ 265 NONAME
	_ZN22CVPbkTopContactManagerD2Ev @ 266 NONAME
	_ZN24MVPbkContactFieldUriData4CastER21MVPbkContactFieldData @ 267 NONAME
	_ZN24MVPbkContactFieldUriData4CastERK21MVPbkContactFieldData @ 268 NONAME
	_ZN26CVPbkContactViewDefinition18SetContactSelectorEP20MVPbkContactSelector @ 269 NONAME
	_ZNK26CVPbkContactViewDefinition15ContactSelectorEv @ 270 NONAME
	_ZN26CVPbkContactViewDefinition5SetIdEi @ 271 NONAME
	_ZNK26CVPbkContactViewDefinition2IdEv @ 272 NONAME
	_ZN16CVPbkxSPContacts4NewLER19CVPbkContactManager @ 273 NONAME
	_ZN16CVPbkxSPContactsD0Ev @ 274 NONAME
	_ZN16CVPbkxSPContactsD1Ev @ 275 NONAME
	_ZN16CVPbkxSPContactsD2Ev @ 276 NONAME
	_ZN16CVPbkxSPContacts19GetxSPContactLinksLERK17MVPbkStoreContactR28MVPbkOperationResultObserverIP21MVPbkContactLinkArrayER27MVPbkOperationErrorObserver @ 277 NONAME
	_ZN25TVPbkStoreContactAnalyzerC1ERK19CVPbkContactManagerPK17MVPbkStoreContact @ 278 NONAME
	_ZN25TVPbkStoreContactAnalyzerC2ERK19CVPbkContactManagerPK17MVPbkStoreContact @ 279 NONAME
	_ZN28VPbkFieldTypeSelectorFactory23BuildFieldTypeSelectorLENS_22TVPbkFieldTypeSelectorERK18MVPbkFieldTypeList @ 280 NONAME
	_ZN28VPbkFieldTypeSelectorFactory31BuildContactActionTypeSelectorLENS_30TVPbkContactActionTypeSelectorERK18MVPbkFieldTypeList @ 281 NONAME
	_ZNK25TVPbkStoreContactAnalyzer20IsFieldTypeIncludedLERK14MVPbkFieldTypeN28VPbkFieldTypeSelectorFactory22TVPbkFieldTypeSelectorE @ 282 NONAME
	_ZNK25TVPbkStoreContactAnalyzer20IsFieldTypeIncludedLERK14MVPbkFieldTypeN28VPbkFieldTypeSelectorFactory30TVPbkContactActionTypeSelectorE @ 283 NONAME
	_ZNK25TVPbkStoreContactAnalyzer20IsFieldTypeIncludedLERK21MVPbkBaseContactFieldN28VPbkFieldTypeSelectorFactory22TVPbkFieldTypeSelectorE @ 284 NONAME
	_ZNK25TVPbkStoreContactAnalyzer20IsFieldTypeIncludedLERK21MVPbkBaseContactFieldN28VPbkFieldTypeSelectorFactory30TVPbkContactActionTypeSelectorE @ 285 NONAME
	_ZNK25TVPbkStoreContactAnalyzer21IsFieldTypeSupportedLEN28VPbkFieldTypeSelectorFactory22TVPbkFieldTypeSelectorEPK17MVPbkStoreContact @ 286 NONAME
	_ZNK25TVPbkStoreContactAnalyzer21IsFieldTypeSupportedLEN28VPbkFieldTypeSelectorFactory30TVPbkContactActionTypeSelectorEPK17MVPbkStoreContact @ 287 NONAME
	_ZNK25TVPbkStoreContactAnalyzer9HasFieldLEN28VPbkFieldTypeSelectorFactory22TVPbkFieldTypeSelectorEiPK17MVPbkStoreContact @ 288 NONAME
	_ZNK25TVPbkStoreContactAnalyzer9HasFieldLEN28VPbkFieldTypeSelectorFactory30TVPbkContactActionTypeSelectorEiPK17MVPbkStoreContact @ 289 NONAME
	_ZN28VPbkFieldTypeSelectorFactory27CreateActionTypeSelectorIdLEi @ 290 NONAME
	_ZNK22CVPbkFieldTypeSelector21AddressFieldsIncludedERK32MVPbkStoreContactFieldCollection @ 291 NONAME
	_ZN19CVPbkContactManager5FindLERK12MDesC16ArrayRK18MVPbkFieldTypeListR34MVPbkContactFindFromStoresObserverRK9TCallBackRK16CDesC16ArrayFlat @ 292 NONAME
	_ZN22CVPbkTopContactManager4NewLER19CVPbkContactManagerR20MVPbkContactViewBase @ 293 NONAME

