EXPORTS
	?AvailabilityEnum@CBPASPresenceInfo@@QBE?AW4TAvailabilityValues@MPresenceBuddyInfo2@@XZ @ 1 NONAME ; enum MPresenceBuddyInfo2::TAvailabilityValues CBPASPresenceInfo::AvailabilityEnum(void) const
	?AvailabilityText@CBPASPresenceInfo@@QBE?BVTPtrC16@@XZ @ 2 NONAME ; class TPtrC16 const CBPASPresenceInfo::AvailabilityText(void) const
	?BrandId@CBPASServiceInfo@@QBE?BVTPtrC8@@XZ @ 3 NONAME ; class TPtrC8 const CBPASServiceInfo::BrandId(void) const
	?GiveInfosL@CBPAS@@QAEXAAVMDesC16Array@@@Z @ 4 NONAME ; void CBPAS::GiveInfosL(class MDesC16Array &)
	?GiveInfosL@CBPAS@@QAEXAAVMDesC16Array@@AAV?$RPointerArray@VCBPASInfo@@@@@Z @ 5 NONAME ; void CBPAS::GiveInfosL(class MDesC16Array &, class RPointerArray<class CBPASInfo> &)
	?HasPresence@CBPASInfo@@QBEHXZ @ 6 NONAME ; int CBPASInfo::HasPresence(void) const
	?IconInfo@CBPASInfo@@QAEPAVCBPASIconInfo@@XZ @ 7 NONAME ; class CBPASIconInfo * CBPASInfo::IconInfo(void)
	?Identity@CBPASInfo@@QBE?BVTPtrC16@@XZ @ 8 NONAME ; class TPtrC16 const CBPASInfo::Identity(void) const
	?ImageElementId@CBPASIconInfo@@QBE?AVTPtrC8@@XZ @ 9 NONAME ; class TPtrC8 CBPASIconInfo::ImageElementId(void) const
	?LanguageId@CBPASServiceInfo@@QBEHXZ @ 10 NONAME ; int CBPASServiceInfo::LanguageId(void) const
	?NewL@CBPAS@@SAPAV1@PAVMBPASObserver@@@Z @ 11 NONAME ; class CBPAS * CBPAS::NewL(class MBPASObserver *)
	?NewL@CBPAS@@SAPAV1@XZ @ 12 NONAME ; class CBPAS * CBPAS::NewL(void)
	?PresenceInfo@CBPASInfo@@QBEPAVCBPASPresenceInfo@@XZ @ 13 NONAME ; class CBPASPresenceInfo * CBPASInfo::PresenceInfo(void) const
	?ServiceId@CBPASServiceInfo@@QBEIXZ @ 14 NONAME ; unsigned int CBPASServiceInfo::ServiceId(void) const
	?ServiceInfo@CBPASInfo@@QBEPAVCBPASServiceInfo@@XZ @ 15 NONAME ; class CBPASServiceInfo * CBPASInfo::ServiceInfo(void) const
	?ServiceType@CBPASServiceInfo@@QBEHXZ @ 16 NONAME ; int CBPASServiceInfo::ServiceType(void) const
	?SetObserver@CBPAS@@QAEXPAVMBPASObserver@@@Z @ 17 NONAME ; void CBPAS::SetObserver(class MBPASObserver *)
	?SubscribePresenceInfosL@CBPAS@@QAEXAAVMDesC16Array@@@Z @ 18 NONAME ; void CBPAS::SubscribePresenceInfosL(class MDesC16Array &)
	?TextElementId@CBPASIconInfo@@QBE?AVTPtrC8@@XZ @ 19 NONAME ; class TPtrC8 CBPASIconInfo::TextElementId(void) const
	?UnSubscribePresenceInfosL@CBPAS@@QAEXAAVMDesC16Array@@@Z @ 20 NONAME ; void CBPAS::UnSubscribePresenceInfosL(class MDesC16Array &)

