EXPORTS
	?setEventType@QContactChangeLogFilter@QtMobility@@QAEXW4EventType@12@@Z @ 1 NONAME ; void QtMobility::QContactChangeLogFilter::setEventType(enum QtMobility::QContactChangeLogFilter::EventType)
	?setVendor@QContactActionFilter@QtMobility@@QAEXABVQString@@H@Z @ 2 NONAME ; void QtMobility::QContactActionFilter::setVendor(class QString const &, int)
	?metaObject@QContactRelationshipRemoveRequest@QtMobility@@UBEPBUQMetaObject@@XZ @ 3 NONAME ; struct QMetaObject const * QtMobility::QContactRelationshipRemoveRequest::metaObject(void) const
	?DefinitionName@QContactTimestamp@QtMobility@@2U?$Latin1Literal@$09@2@B @ 4 NONAME ; struct QtMobility::Latin1Literal<10> const QtMobility::QContactTimestamp::DefinitionName
	?qt_metacall@QContactLocalIdFetchRequest@QtMobility@@UAEHW4Call@QMetaObject@@HPAPAX@Z @ 5 NONAME ; int QtMobility::QContactLocalIdFetchRequest::qt_metacall(enum QMetaObject::Call, int, void * *)
	?direction@QContactSortOrder@QtMobility@@QBE?AW4SortOrder@Qt@@XZ @ 6 NONAME ; enum Qt::SortOrder QtMobility::QContactSortOrder::direction(void) const
	?contacts@QContactManagerEngine@QtMobility@@UBE?AV?$QList@I@@ABVQContactFilter@2@ABV?$QList@VQContactSortOrder@QtMobility@@@@AAW4Error@QContactManager@2@@Z @ 7 NONAME ; class QList<unsigned int> QtMobility::QContactManagerEngine::contacts(class QtMobility::QContactFilter const &, class QList<class QtMobility::QContactSortOrder> const &, enum QtMobility::QContactManager::Error &) const
	?SubTypeParcel@QContactAddress@QtMobility@@2U?$Latin1Literal@$06@2@B @ 8 NONAME ; struct QtMobility::Latin1Literal<7> const QtMobility::QContactAddress::SubTypeParcel
	?SubTypeImpp@QContactOnlineAccount@QtMobility@@2U?$Latin1Literal@$04@2@B @ 9 NONAME ; struct QtMobility::Latin1Literal<5> const QtMobility::QContactOnlineAccount::SubTypeImpp
	?setAccessConstraint@QContactDetailDefinitionField@QtMobility@@QAEXW4AccessConstraint@12@@Z @ 10 NONAME ; void QtMobility::QContactDetailDefinitionField::setAccessConstraint(enum QtMobility::QContactDetailDefinitionField::AccessConstraint)
	?addSorted@QContactManagerEngine@QtMobility@@SAXPAV?$QList@VQContact@QtMobility@@@@ABVQContact@2@ABV?$QList@VQContactSortOrder@QtMobility@@@@@Z @ 11 NONAME ; void QtMobility::QContactManagerEngine::addSorted(class QList<class QtMobility::QContact> *, class QtMobility::QContact const &, class QList<class QtMobility::QContactSortOrder> const &)
	?PresenceUnknown@QContactOnlineAccount@QtMobility@@2U?$Latin1Literal@$07@2@B @ 12 NONAME ; struct QtMobility::Latin1Literal<8> const QtMobility::QContactOnlineAccount::PresenceUnknown
	?availableActions@QContactAction@QtMobility@@SA?AVQStringList@@ABVQString@@H@Z @ 13 NONAME ; class QStringList QtMobility::QContactAction::availableActions(class QString const &, int)
	??1QContactIntersectionFilter@QtMobility@@UAE@XZ @ 14 NONAME ; QtMobility::QContactIntersectionFilter::~QContactIntersectionFilter(void)
	?staticMetaObject@QContactFetchRequest@QtMobility@@2UQMetaObject@@B @ 15 NONAME ; struct QMetaObject const QtMobility::QContactFetchRequest::staticMetaObject
	?PresenceHidden@QContactOnlineAccount@QtMobility@@2U?$Latin1Literal@$06@2@B @ 16 NONAME ; struct QtMobility::Latin1Literal<7> const QtMobility::QContactOnlineAccount::PresenceHidden
	?value@QContactActionFilter@QtMobility@@QBE?AVQVariant@@XZ @ 17 NONAME ; class QVariant QtMobility::QContactActionFilter::value(void) const
	??0QContactDisplayLabel@QtMobility@@QAE@ABVQContactDetail@1@@Z @ 18 NONAME ; QtMobility::QContactDisplayLabel::QContactDisplayLabel(class QtMobility::QContactDetail const &)
	??8QContactDetailDefinition@QtMobility@@QBE_NABV01@@Z @ 19 NONAME ; bool QtMobility::QContactDetailDefinition::operator==(class QtMobility::QContactDetailDefinition const &) const
	?tr@QContactAction@QtMobility@@SA?AVQString@@PBD0@Z @ 20 NONAME ; class QString QtMobility::QContactAction::tr(char const *, char const *)
	?supportedDataTypes@QContactManager@QtMobility@@QBE?AV?$QList@W4Type@QVariant@@@@XZ @ 21 NONAME ; class QList<enum QVariant::Type> QtMobility::QContactManager::supportedDataTypes(void) const
	?SubTypeMessagingCapable@QContactPhoneNumber@QtMobility@@2U?$Latin1Literal@$0BB@@2@B @ 22 NONAME ; struct QtMobility::Latin1Literal<17> const QtMobility::QContactPhoneNumber::SubTypeMessagingCapable
	?vendorName@QContactActionFilter@QtMobility@@QBE?AVQString@@XZ @ 23 NONAME ; class QString QtMobility::QContactActionFilter::vendorName(void) const
	??1QContactDetailDefinitionField@QtMobility@@QAE@XZ @ 24 NONAME ; QtMobility::QContactDetailDefinitionField::~QContactDetailDefinitionField(void)
	?qt_metacast@QContactRelationshipRemoveRequest@QtMobility@@UAEPAXPBD@Z @ 25 NONAME ; void * QtMobility::QContactRelationshipRemoveRequest::qt_metacast(char const *)
	??0QContactGeolocation@QtMobility@@QAE@XZ @ 26 NONAME ; QtMobility::QContactGeolocation::QContactGeolocation(void)
	?remove@QContactIntersectionFilter@QtMobility@@QAEXABVQContactFilter@2@@Z @ 27 NONAME ; void QtMobility::QContactIntersectionFilter::remove(class QtMobility::QContactFilter const &)
	?d_func@QContactDetailDefinitionSaveRequest@QtMobility@@ABEPBVQContactDetailDefinitionSaveRequestPrivate@2@XZ @ 28 NONAME ; class QtMobility::QContactDetailDefinitionSaveRequestPrivate const * QtMobility::QContactDetailDefinitionSaveRequest::d_func(void) const
	?qt_metacall@QContactRelationshipFetchRequest@QtMobility@@UAEHW4Call@QMetaObject@@HPAPAX@Z @ 29 NONAME ; int QtMobility::QContactRelationshipFetchRequest::qt_metacall(enum QMetaObject::Call, int, void * *)
	?action@QContactAction@QtMobility@@SAPAV12@ABVQContactActionDescriptor@2@@Z @ 30 NONAME ; class QtMobility::QContactAction * QtMobility::QContactAction::action(class QtMobility::QContactActionDescriptor const &)
	?SubTypeSipVoip@QContactOnlineAccount@QtMobility@@2U?$Latin1Literal@$07@2@B @ 31 NONAME ; struct QtMobility::Latin1Literal<8> const QtMobility::QContactOnlineAccount::SubTypeSipVoip
	??1QContactDetail@QtMobility@@UAE@XZ @ 32 NONAME ; QtMobility::QContactDetail::~QContactDetail(void)
	?saveContact@QContactManager@QtMobility@@QAE_NPAVQContact@2@@Z @ 33 NONAME ; bool QtMobility::QContactManager::saveContact(class QtMobility::QContact *)
	?ids@QContactLocalIdFilter@QtMobility@@QBE?AV?$QList@I@@XZ @ 34 NONAME ; class QList<unsigned int> QtMobility::QContactLocalIdFilter::ids(void) const
	?getStaticMetaObject@QContactDetailDefinitionRemoveRequest@QtMobility@@SAABUQMetaObject@@XZ @ 35 NONAME ; struct QMetaObject const & QtMobility::QContactDetailDefinitionRemoveRequest::getStaticMetaObject(void)
	?statusMessage@QContactOnlineAccount@QtMobility@@QBE?AVQString@@XZ @ 36 NONAME ; class QString QtMobility::QContactOnlineAccount::statusMessage(void) const
	?getStaticMetaObject@QContactManager@QtMobility@@SAABUQMetaObject@@XZ @ 37 NONAME ; struct QMetaObject const & QtMobility::QContactManager::getStaticMetaObject(void)
	?tr@QContactRemoveRequest@QtMobility@@SA?AVQString@@PBD0H@Z @ 38 NONAME ; class QString QtMobility::QContactRemoveRequest::tr(char const *, char const *, int)
	?setValue@QContactDetailFilter@QtMobility@@QAEXABVQVariant@@@Z @ 39 NONAME ; void QtMobility::QContactDetailFilter::setValue(class QVariant const &)
	?first@QContactRelationshipFetchRequest@QtMobility@@QBE?AVQContactId@2@XZ @ 40 NONAME ; class QtMobility::QContactId QtMobility::QContactRelationshipFetchRequest::first(void) const
	?DefinitionName@QContactGuid@QtMobility@@2U?$Latin1Literal@$04@2@B @ 41 NONAME ; struct QtMobility::Latin1Literal<5> const QtMobility::QContactGuid::DefinitionName
	?qt_metacall@QContactAbstractRequest@QtMobility@@UAEHW4Call@QMetaObject@@HPAPAX@Z @ 42 NONAME ; int QtMobility::QContactAbstractRequest::qt_metacall(enum QMetaObject::Call, int, void * *)
	?Aggregates@QContactRelationship@QtMobility@@2U?$Latin1Literal@$0L@@2@B @ 43 NONAME ; struct QtMobility::Latin1Literal<11> const QtMobility::QContactRelationship::Aggregates
	?tr@QContactSaveRequest@QtMobility@@SA?AVQString@@PBD0@Z @ 44 NONAME ; class QString QtMobility::QContactSaveRequest::tr(char const *, char const *)
	??4QContactSortOrder@QtMobility@@QAEAAV01@ABV01@@Z @ 45 NONAME ; class QtMobility::QContactSortOrder & QtMobility::QContactSortOrder::operator=(class QtMobility::QContactSortOrder const &)
	?setDetailDefinitionName@QContactDetailFilter@QtMobility@@QAEXABVQString@@0@Z @ 46 NONAME ; void QtMobility::QContactDetailFilter::setDetailDefinitionName(class QString const &, class QString const &)
	??_EQContactRelationshipRemoveRequest@QtMobility@@UAE@I@Z @ 47 NONAME ; QtMobility::QContactRelationshipRemoveRequest::~QContactRelationshipRemoveRequest(unsigned int)
	??1QContactInvalidFilter@QtMobility@@UAE@XZ @ 48 NONAME ; QtMobility::QContactInvalidFilter::~QContactInvalidFilter(void)
	?participant@QContactRelationshipFetchRequest@QtMobility@@QBE?AVQContactId@2@XZ @ 49 NONAME ; class QtMobility::QContactId QtMobility::QContactRelationshipFetchRequest::participant(void) const
	??0QContactManagerEngine@QtMobility@@QAE@XZ @ 50 NONAME ; QtMobility::QContactManagerEngine::QContactManagerEngine(void)
	?FieldLocation@QContactOrganization@QtMobility@@2U?$Latin1Literal@$08@2@B @ 51 NONAME ; struct QtMobility::Latin1Literal<9> const QtMobility::QContactOrganization::FieldLocation
	?progress@QContactDetailDefinitionFetchRequest@QtMobility@@IAEXPAV12@_N@Z @ 52 NONAME ; void QtMobility::QContactDetailDefinitionFetchRequest::progress(class QtMobility::QContactDetailDefinitionFetchRequest *, bool)
	?removeContacts@QContactManagerEngine@QtMobility@@UAE?AV?$QList@W4Error@QContactManager@QtMobility@@@@PAV?$QList@I@@AAW4Error@QContactManager@2@@Z @ 53 NONAME ; class QList<enum QtMobility::QContactManager::Error> QtMobility::QContactManagerEngine::removeContacts(class QList<unsigned int> *, enum QtMobility::QContactManager::Error &)
	?setAvatar@QContactAvatar@QtMobility@@QAEXABVQString@@@Z @ 54 NONAME ; void QtMobility::QContactAvatar::setAvatar(class QString const &)
	?DefinitionName@QContactAvatar@QtMobility@@2U?$Latin1Literal@$06@2@B @ 55 NONAME ; struct QtMobility::Latin1Literal<7> const QtMobility::QContactAvatar::DefinitionName
	?trUtf8@QContactManagerEngine@QtMobility@@SA?AVQString@@PBD0H@Z @ 56 NONAME ; class QString QtMobility::QContactManagerEngine::trUtf8(char const *, char const *, int)
	?relationshipType@QContactRelationshipFetchRequest@QtMobility@@QBE?AVQString@@XZ @ 57 NONAME ; class QString QtMobility::QContactRelationshipFetchRequest::relationshipType(void) const
	?second@QContactRelationship@QtMobility@@QBE?AVQContactId@2@XZ @ 58 NONAME ; class QtMobility::QContactId QtMobility::QContactRelationship::second(void) const
	?d_func@QContactRelationshipSaveRequest@QtMobility@@AAEPAVQContactRelationshipSaveRequestPrivate@2@XZ @ 59 NONAME ; class QtMobility::QContactRelationshipSaveRequestPrivate * QtMobility::QContactRelationshipSaveRequest::d_func(void)
	?setStatusMessage@QContactOnlineAccount@QtMobility@@QAEXABVQString@@@Z @ 60 NONAME ; void QtMobility::QContactOnlineAccount::setStatusMessage(class QString const &)
	??0QContactFetchRequest@QtMobility@@QAE@XZ @ 61 NONAME ; QtMobility::QContactFetchRequest::QContactFetchRequest(void)
	??4QContactName@QtMobility@@QAEAAV01@ABVQContactDetail@1@@Z @ 62 NONAME ; class QtMobility::QContactName & QtMobility::QContactName::operator=(class QtMobility::QContactDetail const &)
	?cancel@QContactAbstractRequest@QtMobility@@QAE_NXZ @ 63 NONAME ; bool QtMobility::QContactAbstractRequest::cancel(void)
	?setMatchFlags@QContactDetailRangeFilter@QtMobility@@QAEXV?$QFlags@W4MatchFlag@QContactFilter@QtMobility@@@@@Z @ 64 NONAME ; void QtMobility::QContactDetailRangeFilter::setMatchFlags(class QFlags<enum QtMobility::QContactFilter::MatchFlag>)
	?actionName@QContactActionFilter@QtMobility@@QBE?AVQString@@XZ @ 65 NONAME ; class QString QtMobility::QContactActionFilter::actionName(void) const
	?FieldLocality@QContactAddress@QtMobility@@2U?$Latin1Literal@$08@2@B @ 66 NONAME ; struct QtMobility::Latin1Literal<9> const QtMobility::QContactAddress::FieldLocality
	?d_func@QContactDetailRangeFilter@QtMobility@@ABEPBVQContactDetailRangeFilterPrivate@2@XZ @ 67 NONAME ; class QtMobility::QContactDetailRangeFilterPrivate const * QtMobility::QContactDetailRangeFilter::d_func(void) const
	?type@QContactType@QtMobility@@QBE?AVQString@@XZ @ 68 NONAME ; class QString QtMobility::QContactType::type(void) const
	?setLabel@QContactGeolocation@QtMobility@@QAEXABVQString@@@Z @ 69 NONAME ; void QtMobility::QContactGeolocation::setLabel(class QString const &)
	?PresenceBusy@QContactOnlineAccount@QtMobility@@2U?$Latin1Literal@$04@2@B @ 70 NONAME ; struct QtMobility::Latin1Literal<5> const QtMobility::QContactOnlineAccount::PresenceBusy
	?d_func@QContactLocalIdFetchRequest@QtMobility@@ABEPBVQContactLocalIdFetchRequestPrivate@2@XZ @ 71 NONAME ; class QtMobility::QContactLocalIdFetchRequestPrivate const * QtMobility::QContactLocalIdFetchRequest::d_func(void) const
	?DefinitionName@QContactType@QtMobility@@2U?$Latin1Literal@$04@2@B @ 72 NONAME ; struct QtMobility::Latin1Literal<5> const QtMobility::QContactType::DefinitionName
	??_EQContactLocalIdFetchRequest@QtMobility@@UAE@I@Z @ 73 NONAME ; QtMobility::QContactLocalIdFetchRequest::~QContactLocalIdFetchRequest(unsigned int)
	?FieldLogo@QContactOrganization@QtMobility@@2U?$Latin1Literal@$04@2@B @ 74 NONAME ; struct QtMobility::Latin1Literal<5> const QtMobility::QContactOrganization::FieldLogo
	?schemaDefinitions@QContactManagerEngine@QtMobility@@SA?AV?$QMap@VQString@@V?$QMap@VQString@@VQContactDetailDefinition@QtMobility@@@@@@XZ @ 75 NONAME ; class QMap<class QString, class QMap<class QString, class QtMobility::QContactDetailDefinition> > QtMobility::QContactManagerEngine::schemaDefinitions(void)
	??1QContactGeolocation@QtMobility@@UAE@XZ @ 76 NONAME ; QtMobility::QContactGeolocation::~QContactGeolocation(void)
	?detailDefinitionName@QContactDetailFilter@QtMobility@@QBE?AVQString@@XZ @ 77 NONAME ; class QString QtMobility::QContactDetailFilter::detailDefinitionName(void) const
	?getStaticMetaObject@QContactLocalIdFetchRequest@QtMobility@@SAABUQMetaObject@@XZ @ 78 NONAME ; struct QMetaObject const & QtMobility::QContactLocalIdFetchRequest::getStaticMetaObject(void)
	?relatedContacts@QContact@QtMobility@@QBE?AV?$QList@VQContactId@QtMobility@@@@ABVQString@@W4Role@QContactRelationshipFilter@2@@Z @ 79 NONAME ; class QList<class QtMobility::QContactId> QtMobility::QContact::relatedContacts(class QString const &, enum QtMobility::QContactRelationshipFilter::Role) const
	?setName@QContactDetailDefinition@QtMobility@@QAEXABVQString@@@Z @ 80 NONAME ; void QtMobility::QContactDetailDefinition::setName(class QString const &)
	?displayLabel@QContact@QtMobility@@QBE?AVQString@@XZ @ 81 NONAME ; class QString QtMobility::QContact::displayLabel(void) const
	?assign@QContactDetail@QtMobility@@IAEAAV12@ABV12@ABVQString@@@Z @ 82 NONAME ; class QtMobility::QContactDetail & QtMobility::QContactDetail::assign(class QtMobility::QContactDetail const &, class QString const &)
	??4QContactEmailAddress@QtMobility@@QAEAAV01@ABVQContactDetail@1@@Z @ 83 NONAME ; class QtMobility::QContactEmailAddress & QtMobility::QContactEmailAddress::operator=(class QtMobility::QContactDetail const &)
	?tr@QContactSaveRequest@QtMobility@@SA?AVQString@@PBD0H@Z @ 84 NONAME ; class QString QtMobility::QContactSaveRequest::tr(char const *, char const *, int)
	?DefinitionName@QContactOrganization@QtMobility@@2U?$Latin1Literal@$0N@@2@B @ 85 NONAME ; struct QtMobility::Latin1Literal<13> const QtMobility::QContactOrganization::DefinitionName
	??1QContactBirthday@QtMobility@@UAE@XZ @ 86 NONAME ; QtMobility::QContactBirthday::~QContactBirthday(void)
	?removeRelationship@QContactManagerEngine@QtMobility@@UAE_NABVQContactRelationship@2@AAW4Error@QContactManager@2@@Z @ 87 NONAME ; bool QtMobility::QContactManagerEngine::removeRelationship(class QtMobility::QContactRelationship const &, enum QtMobility::QContactManager::Error &)
	?qt_metacall@QContactRelationshipSaveRequest@QtMobility@@UAEHW4Call@QMetaObject@@HPAPAX@Z @ 88 NONAME ; int QtMobility::QContactRelationshipSaveRequest::qt_metacall(enum QMetaObject::Call, int, void * *)
	?trUtf8@QContactManager@QtMobility@@SA?AVQString@@PBD0H@Z @ 89 NONAME ; class QString QtMobility::QContactManager::trUtf8(char const *, char const *, int)
	?setSelfContactId@QContactMemoryEngine@QtMobility@@UAE_NABIAAW4Error@QContactManager@2@@Z @ 90 NONAME ; bool QtMobility::QContactMemoryEngine::setSelfContactId(unsigned int const &, enum QtMobility::QContactManager::Error &)
	?tr@QContactDetailDefinitionRemoveRequest@QtMobility@@SA?AVQString@@PBD0H@Z @ 91 NONAME ; class QString QtMobility::QContactDetailDefinitionRemoveRequest::tr(char const *, char const *, int)
	?definitions@QContactDetailDefinitionFetchRequest@QtMobility@@QBE?AV?$QMap@VQString@@VQContactDetailDefinition@QtMobility@@@@XZ @ 92 NONAME ; class QMap<class QString, class QtMobility::QContactDetailDefinition> QtMobility::QContactDetailDefinitionFetchRequest::definitions(void) const
	?setSubType@QContactAnniversary@QtMobility@@QAEXABVQString@@@Z @ 93 NONAME ; void QtMobility::QContactAnniversary::setSubType(class QString const &)
	?detailDefinition@QContactManagerEngine@QtMobility@@UBE?AVQContactDetailDefinition@2@ABVQString@@0AAW4Error@QContactManager@2@@Z @ 94 NONAME ; class QtMobility::QContactDetailDefinition QtMobility::QContactManagerEngine::detailDefinition(class QString const &, class QString const &, enum QtMobility::QContactManager::Error &) const
	??1QContact@QtMobility@@QAE@XZ @ 95 NONAME ; QtMobility::QContact::~QContact(void)
	?updateRequest@QContactManagerEngine@QtMobility@@SAXPAVQContactAbstractRequest@2@ABV?$QMap@VQString@@VQContactDetailDefinition@QtMobility@@@@W4Error@QContactManager@2@ABV?$QList@W4Error@QContactManager@QtMobility@@@@W4Status@32@_N@Z @ 96 NONAME ; void QtMobility::QContactManagerEngine::updateRequest(class QtMobility::QContactAbstractRequest *, class QMap<class QString, class QtMobility::QContactDetailDefinition> const &, enum QtMobility::QContactManager::Error, class QList<enum QtMobility::QContactManager::Error> const &, enum QtMobility::QContactAbstractRequest::Status, bool)
	??9QContactSortOrder@QtMobility@@QBE_NABV01@@Z @ 97 NONAME ; bool QtMobility::QContactSortOrder::operator!=(class QtMobility::QContactSortOrder const &) const
	?FieldBirthday@QContactBirthday@QtMobility@@2U?$Latin1Literal@$08@2@B @ 98 NONAME ; struct QtMobility::Latin1Literal<9> const QtMobility::QContactBirthday::FieldBirthday
	?saveDetailDefinition@QContactManagerEngine@QtMobility@@UAE_NABVQContactDetailDefinition@2@ABVQString@@AAW4Error@QContactManager@2@@Z @ 99 NONAME ; bool QtMobility::QContactManagerEngine::saveDetailDefinition(class QtMobility::QContactDetailDefinition const &, class QString const &, enum QtMobility::QContactManager::Error &)
	?GenderFemale@QContactGender@QtMobility@@2U?$Latin1Literal@$06@2@B @ 100 NONAME ; struct QtMobility::Latin1Literal<7> const QtMobility::QContactGender::GenderFemale
	?trUtf8@QContactManager@QtMobility@@SA?AVQString@@PBD0@Z @ 101 NONAME ; class QString QtMobility::QContactManager::trUtf8(char const *, char const *)
	?details@QContact@QtMobility@@QBE?AV?$QList@VQContactDetail@QtMobility@@@@ABVQString@@00@Z @ 102 NONAME ; class QList<class QtMobility::QContactDetail> QtMobility::QContact::details(class QString const &, class QString const &, class QString const &) const
	?FieldChildren@QContactFamily@QtMobility@@2U?$Latin1Literal@$08@2@B @ 103 NONAME ; struct QtMobility::Latin1Literal<9> const QtMobility::QContactFamily::FieldChildren
	?setName@QContactOrganization@QtMobility@@QAEXABVQString@@@Z @ 104 NONAME ; void QtMobility::QContactOrganization::setName(class QString const &)
	?setNames@QContactDetailDefinitionFetchRequest@QtMobility@@QAEXABVQStringList@@@Z @ 105 NONAME ; void QtMobility::QContactDetailDefinitionFetchRequest::setNames(class QStringList const &)
	?append@QContactUnionFilter@QtMobility@@QAEXABVQContactFilter@2@@Z @ 106 NONAME ; void QtMobility::QContactUnionFilter::append(class QtMobility::QContactFilter const &)
	?isFinished@QContactAbstractRequest@QtMobility@@QBE_NXZ @ 107 NONAME ; bool QtMobility::QContactAbstractRequest::isFinished(void) const
	??0QContactChangeSet@QtMobility@@QAE@XZ @ 108 NONAME ; QtMobility::QContactChangeSet::QContactChangeSet(void)
	??0QContactInvalidFilter@QtMobility@@QAE@ABVQContactFilter@1@@Z @ 109 NONAME ; QtMobility::QContactInvalidFilter::QContactInvalidFilter(class QtMobility::QContactFilter const &)
	?addedRelationshipsContacts@QContactChangeSet@QtMobility@@QAEAAV?$QSet@I@@XZ @ 110 NONAME ; class QSet<unsigned int> & QtMobility::QContactChangeSet::addedRelationshipsContacts(void)
	?createEngine@QContactManager@QtMobility@@AAEXABVQString@@ABV?$QMap@VQString@@V1@@@@Z @ 111 NONAME ; void QtMobility::QContactManager::createEngine(class QString const &, class QMap<class QString, class QString> const &)
	??0QContactAddress@QtMobility@@QAE@ABVQContactDetail@1@@Z @ 112 NONAME ; QtMobility::QContactAddress::QContactAddress(class QtMobility::QContactDetail const &)
	??1QContactRelationship@QtMobility@@QAE@XZ @ 113 NONAME ; QtMobility::QContactRelationship::~QContactRelationship(void)
	?d_func@QContactRelationshipFetchRequest@QtMobility@@ABEPBVQContactRelationshipFetchRequestPrivate@2@XZ @ 114 NONAME ; class QtMobility::QContactRelationshipFetchRequestPrivate const * QtMobility::QContactRelationshipFetchRequest::d_func(void) const
	?ContextWork@QContactDetail@QtMobility@@2U?$Latin1Literal@$04@2@B @ 115 NONAME ; struct QtMobility::Latin1Literal<5> const QtMobility::QContactDetail::ContextWork
	?tr@QContactRelationshipRemoveRequest@QtMobility@@SA?AVQString@@PBD0H@Z @ 116 NONAME ; class QString QtMobility::QContactRelationshipRemoveRequest::tr(char const *, char const *, int)
	??4QContactDetail@QtMobility@@QAEAAV01@ABV01@@Z @ 117 NONAME ; class QtMobility::QContactDetail & QtMobility::QContactDetail::operator=(class QtMobility::QContactDetail const &)
	??0QContactId@QtMobility@@QAE@XZ @ 118 NONAME ; QtMobility::QContactId::QContactId(void)
	?url@QContactUrl@QtMobility@@QBE?AVQString@@XZ @ 119 NONAME ; class QString QtMobility::QContactUrl::url(void) const
	?managerParameters@QContactMemoryEngine@QtMobility@@UBE?AV?$QMap@VQString@@V1@@@XZ @ 120 NONAME ; class QMap<class QString, class QString> QtMobility::QContactMemoryEngine::managerParameters(void) const
	?setPostOfficeBox@QContactAddress@QtMobility@@QAEXABVQString@@@Z @ 121 NONAME ; void QtMobility::QContactAddress::setPostOfficeBox(class QString const &)
	??_EQContactAbstractRequest@QtMobility@@UAE@I@Z @ 122 NONAME ; QtMobility::QContactAbstractRequest::~QContactAbstractRequest(unsigned int)
	??4QContactDetailDefinitionField@QtMobility@@QAEAAV01@ABV01@@Z @ 123 NONAME ; class QtMobility::QContactDetailDefinitionField & QtMobility::QContactDetailDefinitionField::operator=(class QtMobility::QContactDetailDefinitionField const &)
	?updateRequest@QContactManagerEngine@QtMobility@@SAXPAVQContactAbstractRequest@2@ABV?$QList@VQContact@QtMobility@@@@W4Error@QContactManager@2@ABV?$QList@W4Error@QContactManager@QtMobility@@@@W4Status@32@_N@Z @ 124 NONAME ; void QtMobility::QContactManagerEngine::updateRequest(class QtMobility::QContactAbstractRequest *, class QList<class QtMobility::QContact> const &, enum QtMobility::QContactManager::Error, class QList<enum QtMobility::QContactManager::Error> const &, enum QtMobility::QContactAbstractRequest::Status, bool)
	?location@QContactOrganization@QtMobility@@QBE?AVQString@@XZ @ 125 NONAME ; class QString QtMobility::QContactOrganization::location(void) const
	?FieldAltitude@QContactGeolocation@QtMobility@@2U?$Latin1Literal@$08@2@B @ 126 NONAME ; struct QtMobility::Latin1Literal<9> const QtMobility::QContactGeolocation::FieldAltitude
	?minValue@QContactDetailRangeFilter@QtMobility@@QBE?AVQVariant@@XZ @ 127 NONAME ; class QVariant QtMobility::QContactDetailRangeFilter::minValue(void) const
	??_EQContactRelationshipFetchRequest@QtMobility@@UAE@I@Z @ 128 NONAME ; QtMobility::QContactRelationshipFetchRequest::~QContactRelationshipFetchRequest(unsigned int)
	??0QContactManager@QtMobility@@QAE@ABVQString@@HABV?$QMap@VQString@@V1@@@PAVQObject@@@Z @ 129 NONAME ; QtMobility::QContactManager::QContactManager(class QString const &, int, class QMap<class QString, class QString> const &, class QObject *)
	??_EQContactNickname@QtMobility@@UAE@I@Z @ 130 NONAME ; QtMobility::QContactNickname::~QContactNickname(unsigned int)
	?detailsWithAction@QContact@QtMobility@@QBE?AV?$QList@VQContactDetail@QtMobility@@@@ABVQString@@@Z @ 131 NONAME ; class QList<class QtMobility::QContactDetail> QtMobility::QContact::detailsWithAction(class QString const &) const
	?qt_metacall@QContactDetailDefinitionRemoveRequest@QtMobility@@UAEHW4Call@QMetaObject@@HPAPAX@Z @ 132 NONAME ; int QtMobility::QContactDetailDefinitionRemoveRequest::qt_metacall(enum QMetaObject::Call, int, void * *)
	??_EQContactInvalidFilter@QtMobility@@UAE@I@Z @ 133 NONAME ; QtMobility::QContactInvalidFilter::~QContactInvalidFilter(unsigned int)
	??_EQContactGeolocation@QtMobility@@UAE@I@Z @ 134 NONAME ; QtMobility::QContactGeolocation::~QContactGeolocation(unsigned int)
	??0QContactOnlineAccount@QtMobility@@QAE@ABVQContactDetail@1@@Z @ 135 NONAME ; QtMobility::QContactOnlineAccount::QContactOnlineAccount(class QtMobility::QContactDetail const &)
	?actionName@QContactActionDescriptor@QtMobility@@QBE?AVQString@@XZ @ 136 NONAME ; class QString QtMobility::QContactActionDescriptor::actionName(void) const
	?setHeading@QContactGeolocation@QtMobility@@QAEXN@Z @ 137 NONAME ; void QtMobility::QContactGeolocation::setHeading(double)
	?d_func@QContactUnionFilter@QtMobility@@ABEPBVQContactUnionFilterPrivate@2@XZ @ 138 NONAME ; class QtMobility::QContactUnionFilterPrivate const * QtMobility::QContactUnionFilter::d_func(void) const
	?actionDescriptors@QContactAction@QtMobility@@SA?AV?$QList@VQContactActionDescriptor@QtMobility@@@@ABVQString@@0H@Z @ 139 NONAME ; class QList<class QtMobility::QContactActionDescriptor> QtMobility::QContactAction::actionDescriptors(class QString const &, class QString const &, int)
	?detailFieldName@QContactDetailRangeFilter@QtMobility@@QBE?AVQString@@XZ @ 140 NONAME ; class QString QtMobility::QContactDetailRangeFilter::detailFieldName(void) const
	?setFirst@QContactRelationship@QtMobility@@QAEXABVQContactId@2@@Z @ 141 NONAME ; void QtMobility::QContactRelationship::setFirst(class QtMobility::QContactId const &)
	??9QContactDetail@QtMobility@@QBE_NABV01@@Z @ 142 NONAME ; bool QtMobility::QContactDetail::operator!=(class QtMobility::QContactDetail const &) const
	?saveRelationships@QContactManager@QtMobility@@QAE?AV?$QList@W4Error@QContactManager@QtMobility@@@@PAV?$QList@VQContactRelationship@QtMobility@@@@@Z @ 143 NONAME ; class QList<enum QtMobility::QContactManager::Error> QtMobility::QContactManager::saveRelationships(class QList<class QtMobility::QContactRelationship> *)
	?middle@QContactName@QtMobility@@QBE?AVQString@@XZ @ 144 NONAME ; class QString QtMobility::QContactName::middle(void) const
	?managerName@QContactManagerEngine@QtMobility@@UBE?AVQString@@XZ @ 145 NONAME ; class QString QtMobility::QContactManagerEngine::managerName(void) const
	?FieldSpouse@QContactFamily@QtMobility@@2U?$Latin1Literal@$06@2@B @ 146 NONAME ; struct QtMobility::Latin1Literal<7> const QtMobility::QContactFamily::FieldSpouse
	?cancelRequest@QContactManagerEngine@QtMobility@@UAE_NPAVQContactAbstractRequest@2@@Z @ 147 NONAME ; bool QtMobility::QContactManagerEngine::cancelRequest(class QtMobility::QContactAbstractRequest *)
	?FieldAvatarPixmap@QContactAvatar@QtMobility@@2U?$Latin1Literal@$0N@@2@B @ 148 NONAME ; struct QtMobility::Latin1Literal<13> const QtMobility::QContactAvatar::FieldAvatarPixmap
	?trUtf8@QContactFetchRequest@QtMobility@@SA?AVQString@@PBD0@Z @ 149 NONAME ; class QString QtMobility::QContactFetchRequest::trUtf8(char const *, char const *)
	?trUtf8@QContactRelationshipSaveRequest@QtMobility@@SA?AVQString@@PBD0@Z @ 150 NONAME ; class QString QtMobility::QContactRelationshipSaveRequest::trUtf8(char const *, char const *)
	?setUnique@QContactDetailDefinition@QtMobility@@QAEX_N@Z @ 151 NONAME ; void QtMobility::QContactDetailDefinition::setUnique(bool)
	?subType@QContactAnniversary@QtMobility@@QBE?AVQString@@XZ @ 152 NONAME ; class QString QtMobility::QContactAnniversary::subType(void) const
	?FieldSubType@QContactAvatar@QtMobility@@2U?$Latin1Literal@$07@2@B @ 153 NONAME ; struct QtMobility::Latin1Literal<8> const QtMobility::QContactAvatar::FieldSubType
	??9QContactRelationship@QtMobility@@QBE_NABV01@@Z @ 154 NONAME ; bool QtMobility::QContactRelationship::operator!=(class QtMobility::QContactRelationship const &) const
	?getStaticMetaObject@QContactRelationshipSaveRequest@QtMobility@@SAABUQMetaObject@@XZ @ 155 NONAME ; struct QMetaObject const & QtMobility::QContactRelationshipSaveRequest::getStaticMetaObject(void)
	??4QContactId@QtMobility@@QAEAAV01@ABV01@@Z @ 156 NONAME ; class QtMobility::QContactId & QtMobility::QContactId::operator=(class QtMobility::QContactId const &)
	??4QContact@QtMobility@@QAEAAV01@ABV01@@Z @ 157 NONAME ; class QtMobility::QContact & QtMobility::QContact::operator=(class QtMobility::QContact const &)
	??1QContactChangeLogFilter@QtMobility@@UAE@XZ @ 158 NONAME ; QtMobility::QContactChangeLogFilter::~QContactChangeLogFilter(void)
	?FieldLongitude@QContactGeolocation@QtMobility@@2U?$Latin1Literal@$09@2@B @ 159 NONAME ; struct QtMobility::Latin1Literal<10> const QtMobility::QContactGeolocation::FieldLongitude
	?HasManager@QContactRelationship@QtMobility@@2U?$Latin1Literal@$0L@@2@B @ 160 NONAME ; struct QtMobility::Latin1Literal<11> const QtMobility::QContactRelationship::HasManager
	?subTypes@QContactPhoneNumber@QtMobility@@QBE?AVQStringList@@XZ @ 161 NONAME ; class QStringList QtMobility::QContactPhoneNumber::subTypes(void) const
	?prepend@QContactUnionFilter@QtMobility@@QAEXABVQContactFilter@2@@Z @ 162 NONAME ; void QtMobility::QContactUnionFilter::prepend(class QtMobility::QContactFilter const &)
	?postcode@QContactAddress@QtMobility@@QBE?AVQString@@XZ @ 163 NONAME ; class QString QtMobility::QContactAddress::postcode(void) const
	?DefinitionName@QContactUrl@QtMobility@@2U?$Latin1Literal@$03@2@B @ 164 NONAME ; struct QtMobility::Latin1Literal<4> const QtMobility::QContactUrl::DefinitionName
	?setLatitude@QContactGeolocation@QtMobility@@QAEXN@Z @ 165 NONAME ; void QtMobility::QContactGeolocation::setLatitude(double)
	?errors@QContactAbstractRequest@QtMobility@@QBE?AV?$QList@W4Error@QContactManager@QtMobility@@@@XZ @ 166 NONAME ; class QList<enum QtMobility::QContactManager::Error> QtMobility::QContactAbstractRequest::errors(void) const
	?selfContactIdChanged@QContactManagerEngine@QtMobility@@IAEXABI0@Z @ 167 NONAME ; void QtMobility::QContactManagerEngine::selfContactIdChanged(unsigned int const &, unsigned int const &)
	?removeRelationships@QContactManagerEngine@QtMobility@@UAE?AV?$QList@W4Error@QContactManager@QtMobility@@@@ABV?$QList@VQContactRelationship@QtMobility@@@@AAW4Error@QContactManager@2@@Z @ 168 NONAME ; class QList<enum QtMobility::QContactManager::Error> QtMobility::QContactManagerEngine::removeRelationships(class QList<class QtMobility::QContactRelationship> const &, enum QtMobility::QContactManager::Error &)
	?accessConstraint@QContactDetailDefinitionField@QtMobility@@QBE?AW4AccessConstraint@12@XZ @ 169 NONAME ; enum QtMobility::QContactDetailDefinitionField::AccessConstraint QtMobility::QContactDetailDefinitionField::accessConstraint(void) const
	?SubTypeInternational@QContactAddress@QtMobility@@2U?$Latin1Literal@$0O@@2@B @ 170 NONAME ; struct QtMobility::Latin1Literal<14> const QtMobility::QContactAddress::SubTypeInternational
	?d_func@QContactDetailDefinitionFetchRequest@QtMobility@@AAEPAVQContactDetailDefinitionFetchRequestPrivate@2@XZ @ 171 NONAME ; class QtMobility::QContactDetailDefinitionFetchRequestPrivate * QtMobility::QContactDetailDefinitionFetchRequest::d_func(void)
	?metaObject@QContactActionFactory@QtMobility@@UBEPBUQMetaObject@@XZ @ 172 NONAME ; struct QMetaObject const * QtMobility::QContactActionFactory::metaObject(void) const
	?setLast@QContactName@QtMobility@@QAEXABVQString@@@Z @ 173 NONAME ; void QtMobility::QContactName::setLast(class QString const &)
	??1QContactName@QtMobility@@UAE@XZ @ 174 NONAME ; QtMobility::QContactName::~QContactName(void)
	??0QContact@QtMobility@@QAE@XZ @ 175 NONAME ; QtMobility::QContact::QContact(void)
	?gender@QContactGender@QtMobility@@QBE?AVQString@@XZ @ 176 NONAME ; class QString QtMobility::QContactGender::gender(void) const
	?removeContact@QContactMemoryEngine@QtMobility@@UAE_NABIAAW4Error@QContactManager@2@@Z @ 177 NONAME ; bool QtMobility::QContactMemoryEngine::removeContact(unsigned int const &, enum QtMobility::QContactManager::Error &)
	??0QContactGender@QtMobility@@QAE@XZ @ 178 NONAME ; QtMobility::QContactGender::QContactGender(void)
	?availableManagers@QContactManager@QtMobility@@SA?AVQStringList@@XZ @ 179 NONAME ; class QStringList QtMobility::QContactManager::availableManagers(void)
	?setType@QContact@QtMobility@@QAEXABVQString@@@Z @ 180 NONAME ; void QtMobility::QContact::setType(class QString const &)
	??0QContactNote@QtMobility@@QAE@XZ @ 181 NONAME ; QtMobility::QContactNote::QContactNote(void)
	??1QContactGuid@QtMobility@@UAE@XZ @ 182 NONAME ; QtMobility::QContactGuid::~QContactGuid(void)
	?saveContacts@QContactManager@QtMobility@@QAE?AV?$QList@W4Error@QContactManager@QtMobility@@@@PAV?$QList@VQContact@QtMobility@@@@@Z @ 183 NONAME ; class QList<enum QtMobility::QContactManager::Error> QtMobility::QContactManager::saveContacts(class QList<class QtMobility::QContact> *)
	??_EQContactGender@QtMobility@@UAE@I@Z @ 184 NONAME ; QtMobility::QContactGender::~QContactGender(unsigned int)
	?supportedDetails@QContactAction@QtMobility@@UBE?AV?$QList@VQContactDetail@QtMobility@@@@ABVQContact@2@@Z @ 185 NONAME ; class QList<class QtMobility::QContactDetail> QtMobility::QContactAction::supportedDetails(class QtMobility::QContact const &) const
	?SubTypeCar@QContactPhoneNumber@QtMobility@@2U?$Latin1Literal@$03@2@B @ 186 NONAME ; struct QtMobility::Latin1Literal<4> const QtMobility::QContactPhoneNumber::SubTypeCar
	?tr@QContactRelationshipSaveRequest@QtMobility@@SA?AVQString@@PBD0@Z @ 187 NONAME ; class QString QtMobility::QContactRelationshipSaveRequest::tr(char const *, char const *)
	?tr@QContactAbstractRequest@QtMobility@@SA?AVQString@@PBD0@Z @ 188 NONAME ; class QString QtMobility::QContactAbstractRequest::tr(char const *, char const *)
	?selfContactId@QContactManager@QtMobility@@QBEIXZ @ 189 NONAME ; unsigned int QtMobility::QContactManager::selfContactId(void) const
	?d_func@QContactRelationshipSaveRequest@QtMobility@@ABEPBVQContactRelationshipSaveRequestPrivate@2@XZ @ 190 NONAME ; class QtMobility::QContactRelationshipSaveRequestPrivate const * QtMobility::QContactRelationshipSaveRequest::d_func(void) const
	?FieldNumber@QContactPhoneNumber@QtMobility@@2U?$Latin1Literal@$0M@@2@B @ 191 NONAME ; struct QtMobility::Latin1Literal<12> const QtMobility::QContactPhoneNumber::FieldNumber
	?isActive@QContactAbstractRequest@QtMobility@@QBE_NXZ @ 192 NONAME ; bool QtMobility::QContactAbstractRequest::isActive(void) const
	??_EQContactDetail@QtMobility@@UAE@I@Z @ 193 NONAME ; QtMobility::QContactDetail::~QContactDetail(unsigned int)
	?getStaticMetaObject@QContactAction@QtMobility@@SAABUQMetaObject@@XZ @ 194 NONAME ; struct QMetaObject const & QtMobility::QContactAction::getStaticMetaObject(void)
	?deref@QContactMemoryEngine@QtMobility@@UAEXXZ @ 195 NONAME ; void QtMobility::QContactMemoryEngine::deref(void)
	??1QContactAddress@QtMobility@@UAE@XZ @ 196 NONAME ; QtMobility::QContactAddress::~QContactAddress(void)
	??_EQContactChangeLogFilter@QtMobility@@UAE@I@Z @ 197 NONAME ; QtMobility::QContactChangeLogFilter::~QContactChangeLogFilter(unsigned int)
	?setSubType@QContactUrl@QtMobility@@QAEXABVQString@@@Z @ 198 NONAME ; void QtMobility::QContactUrl::setSubType(class QString const &)
	?SubTypeModem@QContactPhoneNumber@QtMobility@@2U?$Latin1Literal@$05@2@B @ 199 NONAME ; struct QtMobility::Latin1Literal<6> const QtMobility::QContactPhoneNumber::SubTypeModem
	??4QContactNote@QtMobility@@QAEAAV01@ABVQContactDetail@1@@Z @ 200 NONAME ; class QtMobility::QContactNote & QtMobility::QContactNote::operator=(class QtMobility::QContactDetail const &)
	?setSubTypes@QContactAddress@QtMobility@@QAEXABVQString@@@Z @ 201 NONAME ; void QtMobility::QContactAddress::setSubTypes(class QString const &)
	??1QContactMemoryEngine@QtMobility@@UAE@XZ @ 202 NONAME ; QtMobility::QContactMemoryEngine::~QContactMemoryEngine(void)
	?setCreated@QContactTimestamp@QtMobility@@QAEXABVQDateTime@@@Z @ 203 NONAME ; void QtMobility::QContactTimestamp::setCreated(class QDateTime const &)
	?relationships@QContactRelationshipFetchRequest@QtMobility@@QBE?AV?$QList@VQContactRelationship@QtMobility@@@@XZ @ 204 NONAME ; class QList<class QtMobility::QContactRelationship> QtMobility::QContactRelationshipFetchRequest::relationships(void) const
	??1QContactFetchRequest@QtMobility@@UAE@XZ @ 205 NONAME ; QtMobility::QContactFetchRequest::~QContactFetchRequest(void)
	??0QContactAvatar@QtMobility@@QAE@XZ @ 206 NONAME ; QtMobility::QContactAvatar::QContactAvatar(void)
	?saveRelationship@QContactManagerEngine@QtMobility@@UAE_NPAVQContactRelationship@2@AAW4Error@QContactManager@2@@Z @ 207 NONAME ; bool QtMobility::QContactManagerEngine::saveRelationship(class QtMobility::QContactRelationship *, enum QtMobility::QContactManager::Error &)
	??1QContactLocalIdFetchRequest@QtMobility@@UAE@XZ @ 208 NONAME ; QtMobility::QContactLocalIdFetchRequest::~QContactLocalIdFetchRequest(void)
	?ContextOther@QContactDetail@QtMobility@@2U?$Latin1Literal@$05@2@B @ 209 NONAME ; struct QtMobility::Latin1Literal<6> const QtMobility::QContactDetail::ContextOther
	?setCaseSensitivity@QContactSortOrder@QtMobility@@QAEXW4CaseSensitivity@Qt@@@Z @ 210 NONAME ; void QtMobility::QContactSortOrder::setCaseSensitivity(enum Qt::CaseSensitivity)
	?saveContacts@QContactMemoryEngine@QtMobility@@UAE?AV?$QList@W4Error@QContactManager@QtMobility@@@@PAV?$QList@VQContact@QtMobility@@@@AAW4Error@QContactManager@2@@Z @ 211 NONAME ; class QList<enum QtMobility::QContactManager::Error> QtMobility::QContactMemoryEngine::saveContacts(class QList<class QtMobility::QContact> *, enum QtMobility::QContactManager::Error &)
	??0QContactOnlineAccount@QtMobility@@QAE@XZ @ 212 NONAME ; QtMobility::QContactOnlineAccount::QContactOnlineAccount(void)
	?setSecond@QContactRelationship@QtMobility@@QAEXABVQContactId@2@@Z @ 213 NONAME ; void QtMobility::QContactRelationship::setSecond(class QtMobility::QContactId const &)
	?country@QContactAddress@QtMobility@@QBE?AVQString@@XZ @ 214 NONAME ; class QString QtMobility::QContactAddress::country(void) const
	?setTitle@QContactOrganization@QtMobility@@QAEXABVQString@@@Z @ 215 NONAME ; void QtMobility::QContactOrganization::setTitle(class QString const &)
	?saveRelationships@QContactMemoryEngine@QtMobility@@UAE?AV?$QList@W4Error@QContactManager@QtMobility@@@@PAV?$QList@VQContactRelationship@QtMobility@@@@AAW4Error@QContactManager@2@@Z @ 216 NONAME ; class QList<enum QtMobility::QContactManager::Error> QtMobility::QContactMemoryEngine::saveRelationships(class QList<class QtMobility::QContactRelationship> *, enum QtMobility::QContactManager::Error &)
	?FieldLabel@QContactGeolocation@QtMobility@@2U?$Latin1Literal@$05@2@B @ 217 NONAME ; struct QtMobility::Latin1Literal<6> const QtMobility::QContactGeolocation::FieldLabel
	?setContactType@QContactDetailDefinitionRemoveRequest@QtMobility@@QAEXABVQString@@@Z @ 218 NONAME ; void QtMobility::QContactDetailDefinitionRemoveRequest::setContactType(class QString const &)
	??0QContactFamily@QtMobility@@QAE@ABVQContactDetail@1@@Z @ 219 NONAME ; QtMobility::QContactFamily::QContactFamily(class QtMobility::QContactDetail const &)
	?latitude@QContactGeolocation@QtMobility@@QBENXZ @ 220 NONAME ; double QtMobility::QContactGeolocation::latitude(void) const
	?trUtf8@QContactDetailDefinitionRemoveRequest@QtMobility@@SA?AVQString@@PBD0H@Z @ 221 NONAME ; class QString QtMobility::QContactDetailDefinitionRemoveRequest::trUtf8(char const *, char const *, int)
	??0QContactDetailDefinition@QtMobility@@QAE@ABV01@@Z @ 222 NONAME ; QtMobility::QContactDetailDefinition::QContactDetailDefinition(class QtMobility::QContactDetailDefinition const &)
	?prepend@QContactIntersectionFilter@QtMobility@@QAEXABVQContactFilter@2@@Z @ 223 NONAME ; void QtMobility::QContactIntersectionFilter::prepend(class QtMobility::QContactFilter const &)
	?splitUri@QContactManager@QtMobility@@SA_NABVQString@@PAV3@PAV?$QMap@VQString@@V1@@@@Z @ 224 NONAME ; bool QtMobility::QContactManager::splitUri(class QString const &, class QString *, class QMap<class QString, class QString> *)
	?setFilters@QContactUnionFilter@QtMobility@@QAEXABV?$QList@VQContactFilter@QtMobility@@@@@Z @ 225 NONAME ; void QtMobility::QContactUnionFilter::setFilters(class QList<class QtMobility::QContactFilter> const &)
	?saveDetailDefinition@QContactManager@QtMobility@@QAE_NABVQContactDetailDefinition@2@ABVQString@@@Z @ 226 NONAME ; bool QtMobility::QContactManager::saveDetailDefinition(class QtMobility::QContactDetailDefinition const &, class QString const &)
	??0QContactAnniversary@QtMobility@@QAE@XZ @ 227 NONAME ; QtMobility::QContactAnniversary::QContactAnniversary(void)
	?version@QContactManagerEngineFactory@QtMobility@@QBEHXZ @ 228 NONAME ; int QtMobility::QContactManagerEngineFactory::version(void) const
	?waitForFinished@QContactAbstractRequest@QtMobility@@QAE_NH@Z @ 229 NONAME ; bool QtMobility::QContactAbstractRequest::waitForFinished(int)
	?qt_metacast@QContactManager@QtMobility@@UAEPAXPBD@Z @ 230 NONAME ; void * QtMobility::QContactManager::qt_metacast(char const *)
	?detailDefinitions@QContactManagerEngine@QtMobility@@UBE?AV?$QMap@VQString@@VQContactDetailDefinition@QtMobility@@@@ABVQString@@AAW4Error@QContactManager@2@@Z @ 231 NONAME ; class QMap<class QString, class QtMobility::QContactDetailDefinition> QtMobility::QContactManagerEngine::detailDefinitions(class QString const &, enum QtMobility::QContactManager::Error &) const
	?last@QContactName@QtMobility@@QBE?AVQString@@XZ @ 232 NONAME ; class QString QtMobility::QContactName::last(void) const
	?oldAndNewSelfContactId@QContactChangeSet@QtMobility@@QAEAAU?$QPair@II@@XZ @ 233 NONAME ; struct QPair<unsigned int, unsigned int> & QtMobility::QContactChangeSet::oldAndNewSelfContactId(void)
	?contacts@QContactMemoryEngine@QtMobility@@UBE?AV?$QList@I@@ABV?$QList@VQContactSortOrder@QtMobility@@@@AAW4Error@QContactManager@2@@Z @ 234 NONAME ; class QList<unsigned int> QtMobility::QContactMemoryEngine::contacts(class QList<class QtMobility::QContactSortOrder> const &, enum QtMobility::QContactManager::Error &) const
	?trUtf8@QContactRemoveRequest@QtMobility@@SA?AVQString@@PBD0H@Z @ 235 NONAME ; class QString QtMobility::QContactRemoveRequest::trUtf8(char const *, char const *, int)
	??_EQContactSyncTarget@QtMobility@@UAE@I@Z @ 236 NONAME ; QtMobility::QContactSyncTarget::~QContactSyncTarget(unsigned int)
	?title@QContactOrganization@QtMobility@@QBE?AVQString@@XZ @ 237 NONAME ; class QString QtMobility::QContactOrganization::title(void) const
	?FieldLabel@QContactDisplayLabel@QtMobility@@2U?$Latin1Literal@$05@2@B @ 238 NONAME ; struct QtMobility::Latin1Literal<6> const QtMobility::QContactDisplayLabel::FieldLabel
	??1QContactRelationshipSaveRequest@QtMobility@@UAE@XZ @ 239 NONAME ; QtMobility::QContactRelationshipSaveRequest::~QContactRelationshipSaveRequest(void)
	?isEmpty@QContactDetail@QtMobility@@QBE_NXZ @ 240 NONAME ; bool QtMobility::QContactDetail::isEmpty(void) const
	?progress@QContactRelationshipRemoveRequest@QtMobility@@IAEXPAV12@@Z @ 241 NONAME ; void QtMobility::QContactRelationshipRemoveRequest::progress(class QtMobility::QContactRelationshipRemoveRequest *)
	?setFilter@QContactLocalIdFetchRequest@QtMobility@@QAEXABVQContactFilter@2@@Z @ 242 NONAME ; void QtMobility::QContactLocalIdFetchRequest::setFilter(class QtMobility::QContactFilter const &)
	?PresenceAway@QContactOnlineAccount@QtMobility@@2U?$Latin1Literal@$04@2@B @ 243 NONAME ; struct QtMobility::Latin1Literal<5> const QtMobility::QContactOnlineAccount::PresenceAway
	?detailFieldName@QContactDetailFilter@QtMobility@@QBE?AVQString@@XZ @ 244 NONAME ; class QString QtMobility::QContactDetailFilter::detailFieldName(void) const
	?contactType@QContactDetailDefinitionFetchRequest@QtMobility@@QBE?AVQString@@XZ @ 245 NONAME ; class QString QtMobility::QContactDetailDefinitionFetchRequest::contactType(void) const
	?compareVariant@QContactManagerEngine@QtMobility@@SAHABVQVariant@@0W4CaseSensitivity@Qt@@@Z @ 246 NONAME ; int QtMobility::QContactManagerEngine::compareVariant(class QVariant const &, class QVariant const &, enum Qt::CaseSensitivity)
	?setAllowableValues@QContactDetailDefinitionField@QtMobility@@QAEXV?$QList@VQVariant@@@@@Z @ 247 NONAME ; void QtMobility::QContactDetailDefinitionField::setAllowableValues(class QList<class QVariant>)
	?blankPolicy@QContactSortOrder@QtMobility@@QBE?AW4BlankPolicy@12@XZ @ 248 NONAME ; enum QtMobility::QContactSortOrder::BlankPolicy QtMobility::QContactSortOrder::blankPolicy(void) const
	?setSpouse@QContactFamily@QtMobility@@QAEXABVQString@@@Z @ 249 NONAME ; void QtMobility::QContactFamily::setSpouse(class QString const &)
	?progress@QContactAction@QtMobility@@IAEXW4Status@12@ABV?$QMap@VQString@@VQVariant@@@@@Z @ 250 NONAME ; void QtMobility::QContactAction::progress(enum QtMobility::QContactAction::Status, class QMap<class QString, class QVariant> const &)
	?qt_metacast@QContactAbstractRequest@QtMobility@@UAEPAXPBD@Z @ 251 NONAME ; void * QtMobility::QContactAbstractRequest::qt_metacast(char const *)
	??_EQContactIntersectionFilter@QtMobility@@UAE@I@Z @ 252 NONAME ; QtMobility::QContactIntersectionFilter::~QContactIntersectionFilter(unsigned int)
	?allowableValues@QContactDetailDefinitionField@QtMobility@@QBE?AV?$QList@VQVariant@@@@XZ @ 253 NONAME ; class QList<class QVariant> QtMobility::QContactDetailDefinitionField::allowableValues(void) const
	?setActionName@QContactActionDescriptor@QtMobility@@QAEXABVQString@@@Z @ 254 NONAME ; void QtMobility::QContactActionDescriptor::setActionName(class QString const &)
	?SubTypeVoice@QContactPhoneNumber@QtMobility@@2U?$Latin1Literal@$05@2@B @ 255 NONAME ; struct QtMobility::Latin1Literal<6> const QtMobility::QContactPhoneNumber::SubTypeVoice
	?altitudeAccuracy@QContactGeolocation@QtMobility@@QBENXZ @ 256 NONAME ; double QtMobility::QContactGeolocation::altitudeAccuracy(void) const
	?setPreferredDetail@QContact@QtMobility@@QAE_NABVQString@@ABVQContactDetail@2@@Z @ 257 NONAME ; bool QtMobility::QContact::setPreferredDetail(class QString const &, class QtMobility::QContactDetail const &)
	??0QContactActionDescriptor@QtMobility@@QAE@ABVQString@@0H@Z @ 258 NONAME ; QtMobility::QContactActionDescriptor::QContactActionDescriptor(class QString const &, class QString const &, int)
	??0QContactInvalidFilter@QtMobility@@QAE@XZ @ 259 NONAME ; QtMobility::QContactInvalidFilter::QContactInvalidFilter(void)
	?trUtf8@QContactSaveRequest@QtMobility@@SA?AVQString@@PBD0H@Z @ 260 NONAME ; class QString QtMobility::QContactSaveRequest::trUtf8(char const *, char const *, int)
	?staticMetaObject@QContactSaveRequest@QtMobility@@2UQMetaObject@@B @ 261 NONAME ; struct QMetaObject const QtMobility::QContactSaveRequest::staticMetaObject
	?engines@QContactMemoryEngine@QtMobility@@0V?$QMap@VQString@@PAVQContactMemoryEngine@QtMobility@@@@A @ 262 NONAME ; class QMap<class QString, class QtMobility::QContactMemoryEngine *> QtMobility::QContactMemoryEngine::engines
	?setValue@QContactDetail@QtMobility@@QAE_NABVQString@@ABVQVariant@@@Z @ 263 NONAME ; bool QtMobility::QContactDetail::setValue(class QString const &, class QVariant const &)
	??1QContactRelationshipFetchRequest@QtMobility@@UAE@XZ @ 264 NONAME ; QtMobility::QContactRelationshipFetchRequest::~QContactRelationshipFetchRequest(void)
	??_EQContactAvatar@QtMobility@@UAE@I@Z @ 265 NONAME ; QtMobility::QContactAvatar::~QContactAvatar(unsigned int)
	?setStreet@QContactAddress@QtMobility@@QAEXABVQString@@@Z @ 266 NONAME ; void QtMobility::QContactAddress::setStreet(class QString const &)
	?relationships@QContactManager@QtMobility@@QBE?AV?$QList@VQContactRelationship@QtMobility@@@@ABVQContactId@2@W4Role@QContactRelationshipFilter@2@@Z @ 267 NONAME ; class QList<class QtMobility::QContactRelationship> QtMobility::QContactManager::relationships(class QtMobility::QContactId const &, enum QtMobility::QContactRelationshipFilter::Role) const
	??0QContactBirthday@QtMobility@@QAE@XZ @ 268 NONAME ; QtMobility::QContactBirthday::QContactBirthday(void)
	??1QContactAnniversary@QtMobility@@UAE@XZ @ 269 NONAME ; QtMobility::QContactAnniversary::~QContactAnniversary(void)
	?availableActions@QContact@QtMobility@@QBE?AV?$QList@VQContactActionDescriptor@QtMobility@@@@ABVQString@@H@Z @ 270 NONAME ; class QList<class QtMobility::QContactActionDescriptor> QtMobility::QContact::availableActions(class QString const &, int) const
	??4QContactPhoneNumber@QtMobility@@QAEAAV01@ABVQContactDetail@1@@Z @ 271 NONAME ; class QtMobility::QContactPhoneNumber & QtMobility::QContactPhoneNumber::operator=(class QtMobility::QContactDetail const &)
	?updateRequest@QContactManagerEngine@QtMobility@@SAXPAVQContactAbstractRequest@2@ABV?$QList@I@@W4Error@QContactManager@2@ABV?$QList@W4Error@QContactManager@QtMobility@@@@W4Status@32@_N@Z @ 272 NONAME ; void QtMobility::QContactManagerEngine::updateRequest(class QtMobility::QContactAbstractRequest *, class QList<unsigned int> const &, enum QtMobility::QContactManager::Error, class QList<enum QtMobility::QContactManager::Error> const &, enum QtMobility::QContactAbstractRequest::Status, bool)
	?syncTarget@QContactSyncTarget@QtMobility@@QBE?AVQString@@XZ @ 273 NONAME ; class QString QtMobility::QContactSyncTarget::syncTarget(void) const
	?detailDefinitionName@QContactDetailRangeFilter@QtMobility@@QBE?AVQString@@XZ @ 274 NONAME ; class QString QtMobility::QContactDetailRangeFilter::detailDefinitionName(void) const
	?setIds@QContactLocalIdFilter@QtMobility@@QAEXABV?$QList@I@@@Z @ 275 NONAME ; void QtMobility::QContactLocalIdFilter::setIds(class QList<unsigned int> const &)
	?qt_metacast@QContactActionFactory@QtMobility@@UAEPAXPBD@Z @ 276 NONAME ; void * QtMobility::QContactActionFactory::qt_metacast(char const *)
	?d_func@QContactRemoveRequest@QtMobility@@ABEPBVQContactRemoveRequestPrivate@2@XZ @ 277 NONAME ; class QtMobility::QContactRemoveRequestPrivate const * QtMobility::QContactRemoveRequest::d_func(void) const
	?tr@QContactDetailDefinitionRemoveRequest@QtMobility@@SA?AVQString@@PBD0@Z @ 278 NONAME ; class QString QtMobility::QContactDetailDefinitionRemoveRequest::tr(char const *, char const *)
	??4QContactUrl@QtMobility@@QAEAAV01@ABVQContactDetail@1@@Z @ 279 NONAME ; class QtMobility::QContactUrl & QtMobility::QContactUrl::operator=(class QtMobility::QContactDetail const &)
	?setTimestamp@QContactGeolocation@QtMobility@@QAEXABVQDateTime@@@Z @ 280 NONAME ; void QtMobility::QContactGeolocation::setTimestamp(class QDateTime const &)
	?localId@QContact@QtMobility@@QBEIXZ @ 281 NONAME ; unsigned int QtMobility::QContact::localId(void) const
	??0QContactUrl@QtMobility@@QAE@ABVQContactDetail@1@@Z @ 282 NONAME ; QtMobility::QContactUrl::QContactUrl(class QtMobility::QContactDetail const &)
	?DefinitionName@QContactNickname@QtMobility@@2U?$Latin1Literal@$08@2@B @ 283 NONAME ; struct QtMobility::Latin1Literal<9> const QtMobility::QContactNickname::DefinitionName
	?removeContacts@QContactMemoryEngine@QtMobility@@UAE?AV?$QList@W4Error@QContactManager@QtMobility@@@@PAV?$QList@I@@AAW4Error@QContactManager@2@@Z @ 284 NONAME ; class QList<enum QtMobility::QContactManager::Error> QtMobility::QContactMemoryEngine::removeContacts(class QList<unsigned int> *, enum QtMobility::QContactManager::Error &)
	?PresenceExtendedAway@QContactOnlineAccount@QtMobility@@2U?$Latin1Literal@$0N@@2@B @ 285 NONAME ; struct QtMobility::Latin1Literal<13> const QtMobility::QContactOnlineAccount::PresenceExtendedAway
	?setDirection@QContactSortOrder@QtMobility@@QAEXW4SortOrder@Qt@@@Z @ 286 NONAME ; void QtMobility::QContactSortOrder::setDirection(enum Qt::SortOrder)
	?implementationVersion@QContactActionDescriptor@QtMobility@@QBEHXZ @ 287 NONAME ; int QtMobility::QContactActionDescriptor::implementationVersion(void) const
	?d_func@QContactSaveRequest@QtMobility@@AAEPAVQContactSaveRequestPrivate@2@XZ @ 288 NONAME ; class QtMobility::QContactSaveRequestPrivate * QtMobility::QContactSaveRequest::d_func(void)
	?pixmap@QContactAvatar@QtMobility@@QBE?AVQPixmap@@XZ @ 289 NONAME ; class QPixmap QtMobility::QContactAvatar::pixmap(void) const
	?setRole@QContactOrganization@QtMobility@@QAEXABVQString@@@Z @ 290 NONAME ; void QtMobility::QContactOrganization::setRole(class QString const &)
	??8QContactSortOrder@QtMobility@@QBE_NABV01@@Z @ 291 NONAME ; bool QtMobility::QContactSortOrder::operator==(class QtMobility::QContactSortOrder const &) const
	?FieldType@QContactType@QtMobility@@2U?$Latin1Literal@$04@2@B @ 292 NONAME ; struct QtMobility::Latin1Literal<5> const QtMobility::QContactType::FieldType
	?spouse@QContactFamily@QtMobility@@QBE?AVQString@@XZ @ 293 NONAME ; class QString QtMobility::QContactFamily::spouse(void) const
	??_EQContactMemoryEngine@QtMobility@@UAE@I@Z @ 294 NONAME ; QtMobility::QContactMemoryEngine::~QContactMemoryEngine(unsigned int)
	?tr@QContactLocalIdFetchRequest@QtMobility@@SA?AVQString@@PBD0@Z @ 295 NONAME ; class QString QtMobility::QContactLocalIdFetchRequest::tr(char const *, char const *)
	?setDetailDefinitionName@QContactSortOrder@QtMobility@@QAEXABVQString@@0@Z @ 296 NONAME ; void QtMobility::QContactSortOrder::setDetailDefinitionName(class QString const &, class QString const &)
	?FieldLatitude@QContactGeolocation@QtMobility@@2U?$Latin1Literal@$08@2@B @ 297 NONAME ; struct QtMobility::Latin1Literal<9> const QtMobility::QContactGeolocation::FieldLatitude
	?trUtf8@QContactRelationshipRemoveRequest@QtMobility@@SA?AVQString@@PBD0@Z @ 298 NONAME ; class QString QtMobility::QContactRelationshipRemoveRequest::trUtf8(char const *, char const *)
	?role@QContactOrganization@QtMobility@@QBE?AVQString@@XZ @ 299 NONAME ; class QString QtMobility::QContactOrganization::role(void) const
	?removeValue@QContactDetail@QtMobility@@QAE_NABVQString@@@Z @ 300 NONAME ; bool QtMobility::QContactDetail::removeValue(class QString const &)
	??0QContactId@QtMobility@@QAE@ABV01@@Z @ 301 NONAME ; QtMobility::QContactId::QContactId(class QtMobility::QContactId const &)
	??0QContactDetail@QtMobility@@QAE@XZ @ 302 NONAME ; QtMobility::QContactDetail::QContactDetail(void)
	?heading@QContactGeolocation@QtMobility@@QBENXZ @ 303 NONAME ; double QtMobility::QContactGeolocation::heading(void) const
	??0QContactName@QtMobility@@QAE@ABVQContactDetail@1@@Z @ 304 NONAME ; QtMobility::QContactName::QContactName(class QtMobility::QContactDetail const &)
	?removeRelationships@QContactMemoryEngine@QtMobility@@UAE?AV?$QList@W4Error@QContactManager@QtMobility@@@@ABV?$QList@VQContactRelationship@QtMobility@@@@AAW4Error@QContactManager@2@@Z @ 305 NONAME ; class QList<enum QtMobility::QContactManager::Error> QtMobility::QContactMemoryEngine::removeRelationships(class QList<class QtMobility::QContactRelationship> const &, enum QtMobility::QContactManager::Error &)
	?guid@QContactGuid@QtMobility@@QBE?AVQString@@XZ @ 306 NONAME ; class QString QtMobility::QContactGuid::guid(void) const
	??8QContactDetail@QtMobility@@QBE_NABV01@@Z @ 307 NONAME ; bool QtMobility::QContactDetail::operator==(class QtMobility::QContactDetail const &) const
	?FieldCustomLabel@QContactName@QtMobility@@2U?$Latin1Literal@$0M@@2@B @ 308 NONAME ; struct QtMobility::Latin1Literal<12> const QtMobility::QContactName::FieldCustomLabel
	?setPrefix@QContactName@QtMobility@@QAEXABVQString@@@Z @ 309 NONAME ; void QtMobility::QContactName::setPrefix(class QString const &)
	?metaObject@QContactMemoryEngine@QtMobility@@UBEPBUQMetaObject@@XZ @ 310 NONAME ; struct QMetaObject const * QtMobility::QContactMemoryEngine::metaObject(void) const
	?setGender@QContactGender@QtMobility@@QAEXABVQString@@@Z @ 311 NONAME ; void QtMobility::QContactGender::setGender(class QString const &)
	?DefinitionName@QContactFamily@QtMobility@@2U?$Latin1Literal@$06@2@B @ 312 NONAME ; struct QtMobility::Latin1Literal<7> const QtMobility::QContactFamily::DefinitionName
	?qt_metacast@QContactDetailDefinitionFetchRequest@QtMobility@@UAEPAXPBD@Z @ 313 NONAME ; void * QtMobility::QContactDetailDefinitionFetchRequest::qt_metacast(char const *)
	?fromUri@QContactManager@QtMobility@@SAPAV12@ABVQString@@PAVQObject@@@Z @ 314 NONAME ; class QtMobility::QContactManager * QtMobility::QContactManager::fromUri(class QString const &, class QObject *)
	?contact@QContactMemoryEngine@QtMobility@@UBE?AVQContact@2@ABIAAW4Error@QContactManager@2@@Z @ 315 NONAME ; class QtMobility::QContact QtMobility::QContactMemoryEngine::contact(unsigned int const &, enum QtMobility::QContactManager::Error &) const
	?setRelationshipType@QContactRelationshipFilter@QtMobility@@QAEXABVQString@@@Z @ 316 NONAME ; void QtMobility::QContactRelationshipFilter::setRelationshipType(class QString const &)
	?FieldSubTypes@QContactPhoneNumber@QtMobility@@2U?$Latin1Literal@$08@2@B @ 317 NONAME ; struct QtMobility::Latin1Literal<9> const QtMobility::QContactPhoneNumber::FieldSubTypes
	?FieldSuffix@QContactName@QtMobility@@2U?$Latin1Literal@$06@2@B @ 318 NONAME ; struct QtMobility::Latin1Literal<7> const QtMobility::QContactName::FieldSuffix
	?startRequest@QContactMemoryEngine@QtMobility@@UAE_NPAVQContactAbstractRequest@2@@Z @ 319 NONAME ; bool QtMobility::QContactMemoryEngine::startRequest(class QtMobility::QContactAbstractRequest *)
	?staticMetaObject@QContactRelationshipSaveRequest@QtMobility@@2UQMetaObject@@B @ 320 NONAME ; struct QMetaObject const QtMobility::QContactRelationshipSaveRequest::staticMetaObject
	?note@QContactNote@QtMobility@@QBE?AVQString@@XZ @ 321 NONAME ; class QString QtMobility::QContactNote::note(void) const
	??0QContactAbstractRequest@QtMobility@@IAE@PAVQContactAbstractRequestPrivate@1@@Z @ 322 NONAME ; QtMobility::QContactAbstractRequest::QContactAbstractRequest(class QtMobility::QContactAbstractRequestPrivate *)
	?saveContact@QContactMemoryEngine@QtMobility@@UAE_NPAVQContact@2@AAW4Error@QContactManager@2@@Z @ 323 NONAME ; bool QtMobility::QContactMemoryEngine::saveContact(class QtMobility::QContact *, enum QtMobility::QContactManager::Error &)
	?implementationVersion@QContactActionFilter@QtMobility@@QBEHXZ @ 324 NONAME ; int QtMobility::QContactActionFilter::implementationVersion(void) const
	?suffix@QContactName@QtMobility@@QBE?AVQString@@XZ @ 325 NONAME ; class QString QtMobility::QContactName::suffix(void) const
	?FieldSubType@QContactUrl@QtMobility@@2U?$Latin1Literal@$07@2@B @ 326 NONAME ; struct QtMobility::Latin1Literal<8> const QtMobility::QContactUrl::FieldSubType
	??_EQContactNote@QtMobility@@UAE@I@Z @ 327 NONAME ; QtMobility::QContactNote::~QContactNote(unsigned int)
	?d_func@QContactChangeLogFilter@QtMobility@@ABEPBVQContactChangeLogFilterPrivate@2@XZ @ 328 NONAME ; class QtMobility::QContactChangeLogFilterPrivate const * QtMobility::QContactChangeLogFilter::d_func(void) const
	??4QContactOnlineAccount@QtMobility@@QAEAAV01@ABVQContactDetail@1@@Z @ 329 NONAME ; class QtMobility::QContactOnlineAccount & QtMobility::QContactOnlineAccount::operator=(class QtMobility::QContactDetail const &)
	?detailDefinition@QContactManager@QtMobility@@QBE?AVQContactDetailDefinition@2@ABVQString@@0@Z @ 330 NONAME ; class QtMobility::QContactDetailDefinition QtMobility::QContactManager::detailDefinition(class QString const &, class QString const &) const
	?d_func@QContactRelationshipRemoveRequest@QtMobility@@AAEPAVQContactRelationshipRemoveRequestPrivate@2@XZ @ 331 NONAME ; class QtMobility::QContactRelationshipRemoveRequestPrivate * QtMobility::QContactRelationshipRemoveRequest::d_func(void)
	?filterSupported@QContactManager@QtMobility@@QBE_NABVQContactFilter@2@@Z @ 332 NONAME ; bool QtMobility::QContactManager::filterSupported(class QtMobility::QContactFilter const &) const
	?id@QContact@QtMobility@@QBE?AVQContactId@2@XZ @ 333 NONAME ; class QtMobility::QContactId QtMobility::QContact::id(void) const
	?getStaticMetaObject@QContactRelationshipFetchRequest@QtMobility@@SAABUQMetaObject@@XZ @ 334 NONAME ; struct QMetaObject const & QtMobility::QContactRelationshipFetchRequest::getStaticMetaObject(void)
	?TypeGroup@QContactType@QtMobility@@2U?$Latin1Literal@$05@2@B @ 335 NONAME ; struct QtMobility::Latin1Literal<6> const QtMobility::QContactType::TypeGroup
	?maxValue@QContactDetailRangeFilter@QtMobility@@QBE?AVQVariant@@XZ @ 336 NONAME ; class QVariant QtMobility::QContactDetailRangeFilter::maxValue(void) const
	?tr@QContactDetailDefinitionSaveRequest@QtMobility@@SA?AVQString@@PBD0@Z @ 337 NONAME ; class QString QtMobility::QContactDetailDefinitionSaveRequest::tr(char const *, char const *)
	?setSubTypes@QContactOnlineAccount@QtMobility@@QAEXABVQStringList@@@Z @ 338 NONAME ; void QtMobility::QContactOnlineAccount::setSubTypes(class QStringList const &)
	?emitSignals@QContactChangeSet@QtMobility@@QAEXPAVQContactManagerEngine@2@@Z @ 339 NONAME ; void QtMobility::QContactChangeSet::emitSignals(class QtMobility::QContactManagerEngine *)
	?SubTypeVideoRingtone@QContactAvatar@QtMobility@@2U?$Latin1Literal@$0O@@2@B @ 340 NONAME ; struct QtMobility::Latin1Literal<14> const QtMobility::QContactAvatar::SubTypeVideoRingtone
	?FieldServiceProvider@QContactOnlineAccount@QtMobility@@2U?$Latin1Literal@$0BA@@2@B @ 341 NONAME ; struct QtMobility::Latin1Literal<16> const QtMobility::QContactOnlineAccount::FieldServiceProvider
	?PresenceAvailable@QContactOnlineAccount@QtMobility@@2U?$Latin1Literal@$09@2@B @ 342 NONAME ; struct QtMobility::Latin1Literal<10> const QtMobility::QContactOnlineAccount::PresenceAvailable
	??UQtMobility@@YA?BVQContactFilter@0@ABV10@0@Z @ 343 NONAME ; class QtMobility::QContactFilter const QtMobility::operator|(class QtMobility::QContactFilter const &, class QtMobility::QContactFilter const &)
	?calendarId@QContactAnniversary@QtMobility@@QBE?AVQString@@XZ @ 344 NONAME ; class QString QtMobility::QContactAnniversary::calendarId(void) const
	?staticMetaObject@QContactRemoveRequest@QtMobility@@2UQMetaObject@@B @ 345 NONAME ; struct QMetaObject const QtMobility::QContactRemoveRequest::staticMetaObject
	?contactsChanged@QContactManager@QtMobility@@IAEXABV?$QList@I@@@Z @ 346 NONAME ; void QtMobility::QContactManager::contactsChanged(class QList<unsigned int> const &)
	?setCalendarId@QContactAnniversary@QtMobility@@QAEXABVQString@@@Z @ 347 NONAME ; void QtMobility::QContactAnniversary::setCalendarId(class QString const &)
	?removedContacts@QContactChangeSet@QtMobility@@QAEAAV?$QSet@I@@XZ @ 348 NONAME ; class QSet<unsigned int> & QtMobility::QContactChangeSet::removedContacts(void)
	??9QContactActionDescriptor@QtMobility@@QBE_NABV01@@Z @ 349 NONAME ; bool QtMobility::QContactActionDescriptor::operator!=(class QtMobility::QContactActionDescriptor const &) const
	?FieldOriginalDate@QContactAnniversary@QtMobility@@2U?$Latin1Literal@$0N@@2@B @ 350 NONAME ; struct QtMobility::Latin1Literal<13> const QtMobility::QContactAnniversary::FieldOriginalDate
	??1QContactDetailDefinition@QtMobility@@QAE@XZ @ 351 NONAME ; QtMobility::QContactDetailDefinition::~QContactDetailDefinition(void)
	?trUtf8@QContactDetailDefinitionRemoveRequest@QtMobility@@SA?AVQString@@PBD0@Z @ 352 NONAME ; class QString QtMobility::QContactDetailDefinitionRemoveRequest::trUtf8(char const *, char const *)
	?metaObject@QContactDetailDefinitionRemoveRequest@QtMobility@@UBEPBUQMetaObject@@XZ @ 353 NONAME ; struct QMetaObject const * QtMobility::QContactDetailDefinitionRemoveRequest::metaObject(void) const
	??4QContactGender@QtMobility@@QAEAAV01@ABVQContactDetail@1@@Z @ 354 NONAME ; class QtMobility::QContactGender & QtMobility::QContactGender::operator=(class QtMobility::QContactDetail const &)
	?qt_metacast@QContactRemoveRequest@QtMobility@@UAEPAXPBD@Z @ 355 NONAME ; void * QtMobility::QContactRemoveRequest::qt_metacast(char const *)
	?SubTypeVideoShare@QContactOnlineAccount@QtMobility@@2U?$Latin1Literal@$0L@@2@B @ 356 NONAME ; struct QtMobility::Latin1Literal<11> const QtMobility::QContactOnlineAccount::SubTypeVideoShare
	??1QContactDetailDefinitionRemoveRequest@QtMobility@@UAE@XZ @ 357 NONAME ; QtMobility::QContactDetailDefinitionRemoveRequest::~QContactDetailDefinitionRemoveRequest(void)
	??8QContactId@QtMobility@@QBE_NABV01@@Z @ 358 NONAME ; bool QtMobility::QContactId::operator==(class QtMobility::QContactId const &) const
	?FieldSubType@QContactAnniversary@QtMobility@@2U?$Latin1Literal@$07@2@B @ 359 NONAME ; struct QtMobility::Latin1Literal<8> const QtMobility::QContactAnniversary::FieldSubType
	?tr@QContactActionFactory@QtMobility@@SA?AVQString@@PBD0H@Z @ 360 NONAME ; class QString QtMobility::QContactActionFactory::tr(char const *, char const *, int)
	?FieldPresence@QContactOnlineAccount@QtMobility@@2U?$Latin1Literal@$08@2@B @ 361 NONAME ; struct QtMobility::Latin1Literal<9> const QtMobility::QContactOnlineAccount::FieldPresence
	?PresenceOffline@QContactOnlineAccount@QtMobility@@2U?$Latin1Literal@$07@2@B @ 362 NONAME ; struct QtMobility::Latin1Literal<8> const QtMobility::QContactOnlineAccount::PresenceOffline
	?contexts@QContactDetail@QtMobility@@QBE?AVQStringList@@XZ @ 363 NONAME ; class QStringList QtMobility::QContactDetail::contexts(void) const
	??_EQContactDetailFilter@QtMobility@@UAE@I@Z @ 364 NONAME ; QtMobility::QContactDetailFilter::~QContactDetailFilter(unsigned int)
	?setAccountUri@QContactOnlineAccount@QtMobility@@QAEXABVQString@@@Z @ 365 NONAME ; void QtMobility::QContactOnlineAccount::setAccountUri(class QString const &)
	?trUtf8@QContactDetailDefinitionFetchRequest@QtMobility@@SA?AVQString@@PBD0@Z @ 366 NONAME ; class QString QtMobility::QContactDetailDefinitionFetchRequest::trUtf8(char const *, char const *)
	?DefinitionName@QContactGeolocation@QtMobility@@2U?$Latin1Literal@$0M@@2@B @ 367 NONAME ; struct QtMobility::Latin1Literal<12> const QtMobility::QContactGeolocation::DefinitionName
	?SubTypeFavourite@QContactUrl@QtMobility@@2U?$Latin1Literal@$09@2@B @ 368 NONAME ; struct QtMobility::Latin1Literal<10> const QtMobility::QContactUrl::SubTypeFavourite
	?waitForRequestProgress@QContactMemoryEngine@QtMobility@@UAE_NPAVQContactAbstractRequest@2@H@Z @ 369 NONAME ; bool QtMobility::QContactMemoryEngine::waitForRequestProgress(class QtMobility::QContactAbstractRequest *, int)
	?setImplementationVersion@QContactActionDescriptor@QtMobility@@QAEXH@Z @ 370 NONAME ; void QtMobility::QContactActionDescriptor::setImplementationVersion(int)
	?first@QContactRelationship@QtMobility@@QBE?AVQContactId@2@XZ @ 371 NONAME ; class QtMobility::QContactId QtMobility::QContactRelationship::first(void) const
	??1QContactRelationshipRemoveRequest@QtMobility@@UAE@XZ @ 372 NONAME ; QtMobility::QContactRelationshipRemoveRequest::~QContactRelationshipRemoveRequest(void)
	?SubTypeAudioRingtone@QContactAvatar@QtMobility@@2U?$Latin1Literal@$0O@@2@B @ 373 NONAME ; struct QtMobility::Latin1Literal<14> const QtMobility::QContactAvatar::SubTypeAudioRingtone
	?accessConstraint@QContactDetailDefinition@QtMobility@@QBE?AW4AccessConstraint@12@XZ @ 374 NONAME ; enum QtMobility::QContactDetailDefinition::AccessConstraint QtMobility::QContactDetailDefinition::accessConstraint(void) const
	??_EQContactDetailRangeFilter@QtMobility@@UAE@I@Z @ 375 NONAME ; QtMobility::QContactDetailRangeFilter::~QContactDetailRangeFilter(unsigned int)
	??0QContactActionFilter@QtMobility@@QAE@XZ @ 376 NONAME ; QtMobility::QContactActionFilter::QContactActionFilter(void)
	??0QContactDetailRangeFilter@QtMobility@@QAE@ABVQContactFilter@1@@Z @ 377 NONAME ; QtMobility::QContactDetailRangeFilter::QContactDetailRangeFilter(class QtMobility::QContactFilter const &)
	?hasFeature@QContactManager@QtMobility@@QBE_NW4ManagerFeature@12@ABVQString@@@Z @ 378 NONAME ; bool QtMobility::QContactManager::hasFeature(enum QtMobility::QContactManager::ManagerFeature, class QString const &) const
	?SubTypeBulletinBoardSystem@QContactPhoneNumber@QtMobility@@2U?$Latin1Literal@$0BE@@2@B @ 379 NONAME ; struct QtMobility::Latin1Literal<20> const QtMobility::QContactPhoneNumber::SubTypeBulletinBoardSystem
	?detailFieldName@QContactSortOrder@QtMobility@@QBE?AVQString@@XZ @ 380 NONAME ; class QString QtMobility::QContactSortOrder::detailFieldName(void) const
	?setRange@QContactDetailRangeFilter@QtMobility@@QAEXABVQVariant@@0V?$QFlags@W4RangeFlag@QContactDetailRangeFilter@QtMobility@@@@@Z @ 381 NONAME ; void QtMobility::QContactDetailRangeFilter::setRange(class QVariant const &, class QVariant const &, class QFlags<enum QtMobility::QContactDetailRangeFilter::RangeFlag>)
	?removeDetail@QContact@QtMobility@@QAE_NPAVQContactDetail@2@@Z @ 382 NONAME ; bool QtMobility::QContact::removeDetail(class QtMobility::QContactDetail *)
	?FieldGender@QContactGender@QtMobility@@2U?$Latin1Literal@$06@2@B @ 383 NONAME ; struct QtMobility::Latin1Literal<7> const QtMobility::QContactGender::FieldGender
	?setDetailDefinitionName@QContactDetailRangeFilter@QtMobility@@QAEXABVQString@@0@Z @ 384 NONAME ; void QtMobility::QContactDetailRangeFilter::setDetailDefinitionName(class QString const &, class QString const &)
	?setLocation@QContactOrganization@QtMobility@@QAEXABVQString@@@Z @ 385 NONAME ; void QtMobility::QContactOrganization::setLocation(class QString const &)
	??_EQContactFetchRequest@QtMobility@@UAE@I@Z @ 386 NONAME ; QtMobility::QContactFetchRequest::~QContactFetchRequest(unsigned int)
	?relationships@QContactManager@QtMobility@@QBE?AV?$QList@VQContactRelationship@QtMobility@@@@ABVQString@@ABVQContactId@2@W4Role@QContactRelationshipFilter@2@@Z @ 387 NONAME ; class QList<class QtMobility::QContactRelationship> QtMobility::QContactManager::relationships(class QString const &, class QtMobility::QContactId const &, enum QtMobility::QContactRelationshipFilter::Role) const
	?names@QContactDetailDefinitionRemoveRequest@QtMobility@@QBE?AVQStringList@@XZ @ 388 NONAME ; class QStringList QtMobility::QContactDetailDefinitionRemoveRequest::names(void) const
	?rangeFlags@QContactDetailRangeFilter@QtMobility@@QBE?AV?$QFlags@W4RangeFlag@QContactDetailRangeFilter@QtMobility@@@@XZ @ 389 NONAME ; class QFlags<enum QtMobility::QContactDetailRangeFilter::RangeFlag> QtMobility::QContactDetailRangeFilter::rangeFlags(void) const
	?compareContact@QContactManagerEngine@QtMobility@@SAHABVQContact@2@0ABV?$QList@VQContactSortOrder@QtMobility@@@@@Z @ 390 NONAME ; int QtMobility::QContactManagerEngine::compareContact(class QtMobility::QContact const &, class QtMobility::QContact const &, class QList<class QtMobility::QContactSortOrder> const &)
	??_EQContactTimestamp@QtMobility@@UAE@I@Z @ 391 NONAME ; QtMobility::QContactTimestamp::~QContactTimestamp(unsigned int)
	?setManagerUri@QContactId@QtMobility@@QAEXABVQString@@@Z @ 392 NONAME ; void QtMobility::QContactId::setManagerUri(class QString const &)
	??1QContactRemoveRequest@QtMobility@@UAE@XZ @ 393 NONAME ; QtMobility::QContactRemoveRequest::~QContactRemoveRequest(void)
	?speed@QContactGeolocation@QtMobility@@QBENXZ @ 394 NONAME ; double QtMobility::QContactGeolocation::speed(void) const
	?addedContacts@QContactChangeSet@QtMobility@@QAEAAV?$QSet@I@@XZ @ 395 NONAME ; class QSet<unsigned int> & QtMobility::QContactChangeSet::addedContacts(void)
	?setSorting@QContactFetchRequest@QtMobility@@QAEXABV?$QList@VQContactSortOrder@QtMobility@@@@@Z @ 396 NONAME ; void QtMobility::QContactFetchRequest::setSorting(class QList<class QtMobility::QContactSortOrder> const &)
	?matchFlags@QContactDetailFilter@QtMobility@@QBE?AV?$QFlags@W4MatchFlag@QContactFilter@QtMobility@@@@XZ @ 397 NONAME ; class QFlags<enum QtMobility::QContactFilter::MatchFlag> QtMobility::QContactDetailFilter::matchFlags(void) const
	?FieldPostcode@QContactAddress@QtMobility@@2U?$Latin1Literal@$08@2@B @ 398 NONAME ; struct QtMobility::Latin1Literal<9> const QtMobility::QContactAddress::FieldPostcode
	??0QContactSortOrder@QtMobility@@QAE@XZ @ 399 NONAME ; QtMobility::QContactSortOrder::QContactSortOrder(void)
	??0QContactEmailAddress@QtMobility@@QAE@ABVQContactDetail@1@@Z @ 400 NONAME ; QtMobility::QContactEmailAddress::QContactEmailAddress(class QtMobility::QContactDetail const &)
	?staticMetaObject@QContactAction@QtMobility@@2UQMetaObject@@B @ 401 NONAME ; struct QMetaObject const QtMobility::QContactAction::staticMetaObject
	?contact@QContactManagerEngine@QtMobility@@UBE?AVQContact@2@ABIAAW4Error@QContactManager@2@@Z @ 402 NONAME ; class QtMobility::QContact QtMobility::QContactManagerEngine::contact(unsigned int const &, enum QtMobility::QContactManager::Error &) const
	?metaObject@QContactRelationshipSaveRequest@QtMobility@@UBEPBUQMetaObject@@XZ @ 403 NONAME ; struct QMetaObject const * QtMobility::QContactRelationshipSaveRequest::metaObject(void) const
	?setSecond@QContactRelationshipRemoveRequest@QtMobility@@QAEXABVQContactId@2@@Z @ 404 NONAME ; void QtMobility::QContactRelationshipRemoveRequest::setSecond(class QtMobility::QContactId const &)
	?setDefinitionRestrictions@QContactFetchRequest@QtMobility@@QAEXABVQStringList@@@Z @ 405 NONAME ; void QtMobility::QContactFetchRequest::setDefinitionRestrictions(class QStringList const &)
	?progress@QContactRelationshipSaveRequest@QtMobility@@IAEXPAV12@@Z @ 406 NONAME ; void QtMobility::QContactRelationshipSaveRequest::progress(class QtMobility::QContactRelationshipSaveRequest *)
	?saveRelationships@QContactManagerEngine@QtMobility@@UAE?AV?$QList@W4Error@QContactManager@QtMobility@@@@PAV?$QList@VQContactRelationship@QtMobility@@@@AAW4Error@QContactManager@2@@Z @ 407 NONAME ; class QList<enum QtMobility::QContactManager::Error> QtMobility::QContactManagerEngine::saveRelationships(class QList<class QtMobility::QContactRelationship> *, enum QtMobility::QContactManager::Error &)
	?setRegion@QContactAddress@QtMobility@@QAEXABVQString@@@Z @ 408 NONAME ; void QtMobility::QContactAddress::setRegion(class QString const &)
	?contacts@QContactManager@QtMobility@@QBE?AV?$QList@I@@ABVQContactFilter@2@ABV?$QList@VQContactSortOrder@QtMobility@@@@@Z @ 409 NONAME ; class QList<unsigned int> QtMobility::QContactManager::contacts(class QtMobility::QContactFilter const &, class QList<class QtMobility::QContactSortOrder> const &) const
	??0QContactDetailFilter@QtMobility@@QAE@ABVQContactFilter@1@@Z @ 410 NONAME ; QtMobility::QContactDetailFilter::QContactDetailFilter(class QtMobility::QContactFilter const &)
	?qt_metacall@QContactManager@QtMobility@@UAEHW4Call@QMetaObject@@HPAPAX@Z @ 411 NONAME ; int QtMobility::QContactManager::qt_metacall(enum QMetaObject::Call, int, void * *)
	??1QContactAbstractRequest@QtMobility@@UAE@XZ @ 412 NONAME ; QtMobility::QContactAbstractRequest::~QContactAbstractRequest(void)
	?synthesizeDisplayLabel@QContactManager@QtMobility@@QBE?AVQString@@ABVQContact@2@@Z @ 413 NONAME ; class QString QtMobility::QContactManager::synthesizeDisplayLabel(class QtMobility::QContact const &) const
	?setLogo@QContactOrganization@QtMobility@@QAEXABVQString@@@Z @ 414 NONAME ; void QtMobility::QContactOrganization::setLogo(class QString const &)
	??0QContactUnionFilter@QtMobility@@QAE@XZ @ 415 NONAME ; QtMobility::QContactUnionFilter::QContactUnionFilter(void)
	?tr@QContactRelationshipRemoveRequest@QtMobility@@SA?AVQString@@PBD0@Z @ 416 NONAME ; class QString QtMobility::QContactRelationshipRemoveRequest::tr(char const *, char const *)
	??9QContactFilter@QtMobility@@QBE_NABV01@@Z @ 417 NONAME ; bool QtMobility::QContactFilter::operator!=(class QtMobility::QContactFilter const &) const
	?relationships@QContactManagerEngine@QtMobility@@UBE?AV?$QList@VQContactRelationship@QtMobility@@@@ABVQString@@ABVQContactId@2@W4Role@QContactRelationshipFilter@2@AAW4Error@QContactManager@2@@Z @ 418 NONAME ; class QList<class QtMobility::QContactRelationship> QtMobility::QContactManagerEngine::relationships(class QString const &, class QtMobility::QContactId const &, enum QtMobility::QContactRelationshipFilter::Role, enum QtMobility::QContactManager::Error &) const
	?setContacts@QContactSaveRequest@QtMobility@@QAEXABV?$QList@VQContact@QtMobility@@@@@Z @ 419 NONAME ; void QtMobility::QContactSaveRequest::setContacts(class QList<class QtMobility::QContact> const &)
	?FieldAltitudeAccuracy@QContactGeolocation@QtMobility@@2U?$Latin1Literal@$0BB@@2@B @ 420 NONAME ; struct QtMobility::Latin1Literal<17> const QtMobility::QContactGeolocation::FieldAltitudeAccuracy
	?setDataChanged@QContactChangeSet@QtMobility@@QAEX_N@Z @ 421 NONAME ; void QtMobility::QContactChangeSet::setDataChanged(bool)
	?setAccuracy@QContactGeolocation@QtMobility@@QAEXN@Z @ 422 NONAME ; void QtMobility::QContactGeolocation::setAccuracy(double)
	?staticMetaObject@QContactActionFactory@QtMobility@@2UQMetaObject@@B @ 423 NONAME ; struct QMetaObject const QtMobility::QContactActionFactory::staticMetaObject
	?DefinitionName@QContactAnniversary@QtMobility@@2U?$Latin1Literal@$0M@@2@B @ 424 NONAME ; struct QtMobility::Latin1Literal<12> const QtMobility::QContactAnniversary::DefinitionName
	?FieldPrefix@QContactName@QtMobility@@2U?$Latin1Literal@$06@2@B @ 425 NONAME ; struct QtMobility::Latin1Literal<7> const QtMobility::QContactName::FieldPrefix
	??0QContactLocalIdFilter@QtMobility@@QAE@ABVQContactFilter@1@@Z @ 426 NONAME ; QtMobility::QContactLocalIdFilter::QContactLocalIdFilter(class QtMobility::QContactFilter const &)
	?subTypes@QContactOnlineAccount@QtMobility@@QBE?AVQStringList@@XZ @ 427 NONAME ; class QStringList QtMobility::QContactOnlineAccount::subTypes(void) const
	??_EQContactLocalIdFilter@QtMobility@@UAE@I@Z @ 428 NONAME ; QtMobility::QContactLocalIdFilter::~QContactLocalIdFilter(unsigned int)
	??_EQContactUnionFilter@QtMobility@@UAE@I@Z @ 429 NONAME ; QtMobility::QContactUnionFilter::~QContactUnionFilter(unsigned int)
	?d_func@QContactFetchRequest@QtMobility@@AAEPAVQContactFetchRequestPrivate@2@XZ @ 430 NONAME ; class QtMobility::QContactFetchRequestPrivate * QtMobility::QContactFetchRequest::d_func(void)
	??0QContactNickname@QtMobility@@QAE@ABVQContactDetail@1@@Z @ 431 NONAME ; QtMobility::QContactNickname::QContactNickname(class QtMobility::QContactDetail const &)
	?d_func@QContactSaveRequest@QtMobility@@ABEPBVQContactSaveRequestPrivate@2@XZ @ 432 NONAME ; class QtMobility::QContactSaveRequestPrivate const * QtMobility::QContactSaveRequest::d_func(void) const
	?SubTypeFacsimile@QContactPhoneNumber@QtMobility@@2U?$Latin1Literal@$09@2@B @ 433 NONAME ; struct QtMobility::Latin1Literal<10> const QtMobility::QContactPhoneNumber::SubTypeFacsimile
	?SubTypeWedding@QContactAnniversary@QtMobility@@2U?$Latin1Literal@$07@2@B @ 434 NONAME ; struct QtMobility::Latin1Literal<8> const QtMobility::QContactAnniversary::SubTypeWedding
	??0QContactTimestamp@QtMobility@@QAE@ABVQContactDetail@1@@Z @ 435 NONAME ; QtMobility::QContactTimestamp::QContactTimestamp(class QtMobility::QContactDetail const &)
	??4QContactGeolocation@QtMobility@@QAEAAV01@ABVQContactDetail@1@@Z @ 436 NONAME ; class QtMobility::QContactGeolocation & QtMobility::QContactGeolocation::operator=(class QtMobility::QContactDetail const &)
	?setContexts@QContactDetail@QtMobility@@QAEXABVQStringList@@@Z @ 437 NONAME ; void QtMobility::QContactDetail::setContexts(class QStringList const &)
	??_EQContactType@QtMobility@@UAE@I@Z @ 438 NONAME ; QtMobility::QContactType::~QContactType(unsigned int)
	?FieldNickname@QContactNickname@QtMobility@@2U?$Latin1Literal@$08@2@B @ 439 NONAME ; struct QtMobility::Latin1Literal<9> const QtMobility::QContactNickname::FieldNickname
	??0QContactDetailDefinitionRemoveRequest@QtMobility@@QAE@XZ @ 440 NONAME ; QtMobility::QContactDetailDefinitionRemoveRequest::QContactDetailDefinitionRemoveRequest(void)
	??0QContactDetail@QtMobility@@QAE@ABVQString@@@Z @ 441 NONAME ; QtMobility::QContactDetail::QContactDetail(class QString const &)
	?d_func@QContactLocalIdFetchRequest@QtMobility@@AAEPAVQContactLocalIdFetchRequestPrivate@2@XZ @ 442 NONAME ; class QtMobility::QContactLocalIdFetchRequestPrivate * QtMobility::QContactLocalIdFetchRequest::d_func(void)
	?hasValue@QContactDetail@QtMobility@@QBE_NABVQString@@@Z @ 443 NONAME ; bool QtMobility::QContactDetail::hasValue(class QString const &) const
	??0QContactAddress@QtMobility@@QAE@XZ @ 444 NONAME ; QtMobility::QContactAddress::QContactAddress(void)
	?DefinitionName@QContactDisplayLabel@QtMobility@@2U?$Latin1Literal@$0N@@2@B @ 445 NONAME ; struct QtMobility::Latin1Literal<13> const QtMobility::QContactDisplayLabel::DefinitionName
	?fields@QContactDetailDefinition@QtMobility@@QAEAAV?$QMap@VQString@@VQContactDetailDefinitionField@QtMobility@@@@XZ @ 446 NONAME ; class QMap<class QString, class QtMobility::QContactDetailDefinitionField> & QtMobility::QContactDetailDefinition::fields(void)
	??1QContactFamily@QtMobility@@UAE@XZ @ 447 NONAME ; QtMobility::QContactFamily::~QContactFamily(void)
	?SubTypeMobile@QContactPhoneNumber@QtMobility@@2U?$Latin1Literal@$06@2@B @ 448 NONAME ; struct QtMobility::Latin1Literal<7> const QtMobility::QContactPhoneNumber::SubTypeMobile
	?testFilter@QContactManagerEngine@QtMobility@@SA_NABVQContactFilter@2@ABVQContact@2@@Z @ 449 NONAME ; bool QtMobility::QContactManagerEngine::testFilter(class QtMobility::QContactFilter const &, class QtMobility::QContact const &)
	??0QContactIntersectionFilter@QtMobility@@QAE@ABVQContactFilter@1@@Z @ 450 NONAME ; QtMobility::QContactIntersectionFilter::QContactIntersectionFilter(class QtMobility::QContactFilter const &)
	?getStaticMetaObject@QContactSaveRequest@QtMobility@@SAABUQMetaObject@@XZ @ 451 NONAME ; struct QMetaObject const & QtMobility::QContactSaveRequest::getStaticMetaObject(void)
	?SubTypePager@QContactPhoneNumber@QtMobility@@2U?$Latin1Literal@$05@2@B @ 452 NONAME ; struct QtMobility::Latin1Literal<6> const QtMobility::QContactPhoneNumber::SubTypePager
	?setContactType@QContactDetailDefinitionFetchRequest@QtMobility@@QAEXABVQString@@@Z @ 453 NONAME ; void QtMobility::QContactDetailDefinitionFetchRequest::setContactType(class QString const &)
	??1QContactUnionFilter@QtMobility@@UAE@XZ @ 454 NONAME ; QtMobility::QContactUnionFilter::~QContactUnionFilter(void)
	?managerParameters@QContactManager@QtMobility@@QBE?AV?$QMap@VQString@@V1@@@XZ @ 455 NONAME ; class QMap<class QString, class QString> QtMobility::QContactManager::managerParameters(void) const
	?relationshipType@QContactRelationshipRemoveRequest@QtMobility@@QBE?AVQString@@XZ @ 456 NONAME ; class QString QtMobility::QContactRelationshipRemoveRequest::relationshipType(void) const
	??4QContactType@QtMobility@@QAEAAV01@ABVQContactDetail@1@@Z @ 457 NONAME ; class QtMobility::QContactType & QtMobility::QContactType::operator=(class QtMobility::QContactDetail const &)
	?DefinitionName@QContactPhoneNumber@QtMobility@@2U?$Latin1Literal@$0M@@2@B @ 458 NONAME ; struct QtMobility::Latin1Literal<12> const QtMobility::QContactPhoneNumber::DefinitionName
	?setLocalId@QContactId@QtMobility@@QAEXABI@Z @ 459 NONAME ; void QtMobility::QContactId::setLocalId(unsigned int const &)
	?getStaticMetaObject@QContactDetailDefinitionFetchRequest@QtMobility@@SAABUQMetaObject@@XZ @ 460 NONAME ; struct QMetaObject const & QtMobility::QContactDetailDefinitionFetchRequest::getStaticMetaObject(void)
	?contact@QContactManager@QtMobility@@QBE?AVQContact@2@ABI@Z @ 461 NONAME ; class QtMobility::QContact QtMobility::QContactManager::contact(unsigned int const &) const
	??0QContactName@QtMobility@@QAE@XZ @ 462 NONAME ; QtMobility::QContactName::QContactName(void)
	?filter@QContactLocalIdFetchRequest@QtMobility@@QBE?AVQContactFilter@2@XZ @ 463 NONAME ; class QtMobility::QContactFilter QtMobility::QContactLocalIdFetchRequest::filter(void) const
	?trUtf8@QContactLocalIdFetchRequest@QtMobility@@SA?AVQString@@PBD0H@Z @ 464 NONAME ; class QString QtMobility::QContactLocalIdFetchRequest::trUtf8(char const *, char const *, int)
	?setValue@QContactActionFilter@QtMobility@@QAEXABVQVariant@@@Z @ 465 NONAME ; void QtMobility::QContactActionFilter::setValue(class QVariant const &)
	??_EQContactSaveRequest@QtMobility@@UAE@I@Z @ 466 NONAME ; QtMobility::QContactSaveRequest::~QContactSaveRequest(unsigned int)
	?relationshipsAdded@QContactManager@QtMobility@@IAEXABV?$QList@I@@@Z @ 467 NONAME ; void QtMobility::QContactManager::relationshipsAdded(class QList<unsigned int> const &)
	?d_func@QContactRemoveRequest@QtMobility@@AAEPAVQContactRemoveRequestPrivate@2@XZ @ 468 NONAME ; class QtMobility::QContactRemoveRequestPrivate * QtMobility::QContactRemoveRequest::d_func(void)
	??0QContactGeolocation@QtMobility@@QAE@ABVQContactDetail@1@@Z @ 469 NONAME ; QtMobility::QContactGeolocation::QContactGeolocation(class QtMobility::QContactDetail const &)
	??0QContactGuid@QtMobility@@QAE@XZ @ 470 NONAME ; QtMobility::QContactGuid::QContactGuid(void)
	?setAltitudeAccuracy@QContactGeolocation@QtMobility@@QAEXN@Z @ 471 NONAME ; void QtMobility::QContactGeolocation::setAltitudeAccuracy(double)
	??1QContactManagerEngineFactory@QtMobility@@UAE@XZ @ 472 NONAME ; QtMobility::QContactManagerEngineFactory::~QContactManagerEngineFactory(void)
	?saveDetail@QContact@QtMobility@@QAE_NPAVQContactDetail@2@@Z @ 473 NONAME ; bool QtMobility::QContact::saveDetail(class QtMobility::QContactDetail *)
	?updateRequest@QContactManagerEngine@QtMobility@@SAXPAVQContactAbstractRequest@2@ABV?$QList@VQContactRelationship@QtMobility@@@@W4Error@QContactManager@2@ABV?$QList@W4Error@QContactManager@QtMobility@@@@W4Status@32@_N@Z @ 474 NONAME ; void QtMobility::QContactManagerEngine::updateRequest(class QtMobility::QContactAbstractRequest *, class QList<class QtMobility::QContactRelationship> const &, enum QtMobility::QContactManager::Error, class QList<enum QtMobility::QContactManager::Error> const &, enum QtMobility::QContactAbstractRequest::Status, bool)
	?trUtf8@QContactRemoveRequest@QtMobility@@SA?AVQString@@PBD0@Z @ 475 NONAME ; class QString QtMobility::QContactRemoveRequest::trUtf8(char const *, char const *)
	??9QContactDetailDefinition@QtMobility@@QBE_NABV01@@Z @ 476 NONAME ; bool QtMobility::QContactDetailDefinition::operator!=(class QtMobility::QContactDetailDefinition const &) const
	?trUtf8@QContactDetailDefinitionSaveRequest@QtMobility@@SA?AVQString@@PBD0H@Z @ 477 NONAME ; class QString QtMobility::QContactDetailDefinitionSaveRequest::trUtf8(char const *, char const *, int)
	?setContactDisplayLabel@QContactManagerEngine@QtMobility@@QBE?AVQContact@2@ABVQString@@ABV32@@Z @ 478 NONAME ; class QtMobility::QContact QtMobility::QContactManagerEngine::setContactDisplayLabel(class QString const &, class QtMobility::QContact const &) const
	?filterSupported@QContactMemoryEngine@QtMobility@@UBE_NABVQContactFilter@2@@Z @ 479 NONAME ; bool QtMobility::QContactMemoryEngine::filterSupported(class QtMobility::QContactFilter const &) const
	?FieldCalendarId@QContactAnniversary@QtMobility@@2U?$Latin1Literal@$0L@@2@B @ 480 NONAME ; struct QtMobility::Latin1Literal<11> const QtMobility::QContactAnniversary::FieldCalendarId
	?metaObject@QContactSaveRequest@QtMobility@@UBEPBUQMetaObject@@XZ @ 481 NONAME ; struct QMetaObject const * QtMobility::QContactSaveRequest::metaObject(void) const
	?postOfficeBox@QContactAddress@QtMobility@@QBE?AVQString@@XZ @ 482 NONAME ; class QString QtMobility::QContactAddress::postOfficeBox(void) const
	?originalDate@QContactAnniversary@QtMobility@@QBE?AVQDate@@XZ @ 483 NONAME ; class QDate QtMobility::QContactAnniversary::originalDate(void) const
	?HasAssistant@QContactRelationship@QtMobility@@2U?$Latin1Literal@$0N@@2@B @ 484 NONAME ; struct QtMobility::Latin1Literal<13> const QtMobility::QContactRelationship::HasAssistant
	??_EQContactName@QtMobility@@UAE@I@Z @ 485 NONAME ; QtMobility::QContactName::~QContactName(unsigned int)
	?saveContact@QContactManagerEngine@QtMobility@@UAE_NPAVQContact@2@AAW4Error@QContactManager@2@@Z @ 486 NONAME ; bool QtMobility::QContactManagerEngine::saveContact(class QtMobility::QContact *, enum QtMobility::QContactManager::Error &)
	?waitForRequestFinished@QContactManagerEngine@QtMobility@@UAE_NPAVQContactAbstractRequest@2@H@Z @ 487 NONAME ; bool QtMobility::QContactManagerEngine::waitForRequestFinished(class QtMobility::QContactAbstractRequest *, int)
	??4QContactChangeSet@QtMobility@@QAEAAV01@ABV01@@Z @ 488 NONAME ; class QtMobility::QContactChangeSet & QtMobility::QContactChangeSet::operator=(class QtMobility::QContactChangeSet const &)
	?staticMetaObject@QContactDetailDefinitionRemoveRequest@QtMobility@@2UQMetaObject@@B @ 489 NONAME ; struct QMetaObject const QtMobility::QContactDetailDefinitionRemoveRequest::staticMetaObject
	?qt_metacast@QContactLocalIdFetchRequest@QtMobility@@UAEPAXPBD@Z @ 490 NONAME ; void * QtMobility::QContactLocalIdFetchRequest::qt_metacast(char const *)
	?second@QContactRelationshipRemoveRequest@QtMobility@@QBE?AVQContactId@2@XZ @ 491 NONAME ; class QtMobility::QContactId QtMobility::QContactRelationshipRemoveRequest::second(void) const
	??_EQContactDisplayLabel@QtMobility@@UAE@I@Z @ 492 NONAME ; QtMobility::QContactDisplayLabel::~QContactDisplayLabel(unsigned int)
	?getStaticMetaObject@QContactDetailDefinitionSaveRequest@QtMobility@@SAABUQMetaObject@@XZ @ 493 NONAME ; struct QMetaObject const & QtMobility::QContactDetailDefinitionSaveRequest::getStaticMetaObject(void)
	??0QContactTimestamp@QtMobility@@QAE@XZ @ 494 NONAME ; QtMobility::QContactTimestamp::QContactTimestamp(void)
	?removeContact@QContactMemoryEngine@QtMobility@@AAE_NABIAAVQContactChangeSet@2@AAW4Error@QContactManager@2@@Z @ 495 NONAME ; bool QtMobility::QContactMemoryEngine::removeContact(unsigned int const &, class QtMobility::QContactChangeSet &, enum QtMobility::QContactManager::Error &)
	?qt_metacall@QContactDetailDefinitionFetchRequest@QtMobility@@UAEHW4Call@QMetaObject@@HPAPAX@Z @ 496 NONAME ; int QtMobility::QContactDetailDefinitionFetchRequest::qt_metacall(enum QMetaObject::Call, int, void * *)
	??1QContactNickname@QtMobility@@UAE@XZ @ 497 NONAME ; QtMobility::QContactNickname::~QContactNickname(void)
	?d_func@QContactDetailRangeFilter@QtMobility@@AAEPAVQContactDetailRangeFilterPrivate@2@XZ @ 498 NONAME ; class QtMobility::QContactDetailRangeFilterPrivate * QtMobility::QContactDetailRangeFilter::d_func(void)
	??0QContactDetailRangeFilter@QtMobility@@QAE@XZ @ 499 NONAME ; QtMobility::QContactDetailRangeFilter::QContactDetailRangeFilter(void)
	?created@QContactTimestamp@QtMobility@@QBE?AVQDateTime@@XZ @ 500 NONAME ; class QDateTime QtMobility::QContactTimestamp::created(void) const
	??1QContactUrl@QtMobility@@UAE@XZ @ 501 NONAME ; QtMobility::QContactUrl::~QContactUrl(void)
	??1QContactFilter@QtMobility@@UAE@XZ @ 502 NONAME ; QtMobility::QContactFilter::~QContactFilter(void)
	?setPixmap@QContactAvatar@QtMobility@@QAE_NABVQPixmap@@@Z @ 503 NONAME ; bool QtMobility::QContactAvatar::setPixmap(class QPixmap const &)
	?first@QContactRelationshipRemoveRequest@QtMobility@@QBE?AVQContactId@2@XZ @ 504 NONAME ; class QtMobility::QContactId QtMobility::QContactRelationshipRemoveRequest::first(void) const
	?label@QContactGeolocation@QtMobility@@QBE?AVQString@@XZ @ 505 NONAME ; class QString QtMobility::QContactGeolocation::label(void) const
	?updateRequest@QContactManagerEngine@QtMobility@@SAXPAVQContactAbstractRequest@2@ABV?$QList@VQContactDetailDefinition@QtMobility@@@@W4Error@QContactManager@2@ABV?$QList@W4Error@QContactManager@QtMobility@@@@W4Status@32@@Z @ 506 NONAME ; void QtMobility::QContactManagerEngine::updateRequest(class QtMobility::QContactAbstractRequest *, class QList<class QtMobility::QContactDetailDefinition> const &, enum QtMobility::QContactManager::Error, class QList<enum QtMobility::QContactManager::Error> const &, enum QtMobility::QContactAbstractRequest::Status)
	?contactsAdded@QContactManager@QtMobility@@IAEXABV?$QList@I@@@Z @ 507 NONAME ; void QtMobility::QContactManager::contactsAdded(class QList<unsigned int> const &)
	??_EQContactDetailDefinitionRemoveRequest@QtMobility@@UAE@I@Z @ 508 NONAME ; QtMobility::QContactDetailDefinitionRemoveRequest::~QContactDetailDefinitionRemoveRequest(unsigned int)
	?staticMetaObject@QContactDetailDefinitionSaveRequest@QtMobility@@2UQMetaObject@@B @ 509 NONAME ; struct QMetaObject const QtMobility::QContactDetailDefinitionSaveRequest::staticMetaObject
	?version@QContactManager@QtMobility@@SAHXZ @ 510 NONAME ; int QtMobility::QContactManager::version(void)
	?GenderMale@QContactGender@QtMobility@@2U?$Latin1Literal@$04@2@B @ 511 NONAME ; struct QtMobility::Latin1Literal<5> const QtMobility::QContactGender::GenderMale
	?setRelationshipType@QContactRelationshipRemoveRequest@QtMobility@@QAEXABVQString@@@Z @ 512 NONAME ; void QtMobility::QContactRelationshipRemoveRequest::setRelationshipType(class QString const &)
	?supportedDataTypes@QContactManagerEngine@QtMobility@@UBE?AV?$QList@W4Type@QVariant@@@@XZ @ 513 NONAME ; class QList<enum QVariant::Type> QtMobility::QContactManagerEngine::supportedDataTypes(void) const
	?removeRelationship@QContactMemoryEngine@QtMobility@@UAE_NABVQContactRelationship@2@AAW4Error@QContactManager@2@@Z @ 514 NONAME ; bool QtMobility::QContactMemoryEngine::removeRelationship(class QtMobility::QContactRelationship const &, enum QtMobility::QContactManager::Error &)
	?setPostcode@QContactAddress@QtMobility@@QAEXABVQString@@@Z @ 515 NONAME ; void QtMobility::QContactAddress::setPostcode(class QString const &)
	?setActionName@QContactActionFilter@QtMobility@@QAEXABVQString@@@Z @ 516 NONAME ; void QtMobility::QContactActionFilter::setActionName(class QString const &)
	??4QContactFilter@QtMobility@@QAEAAV01@ABV01@@Z @ 517 NONAME ; class QtMobility::QContactFilter & QtMobility::QContactFilter::operator=(class QtMobility::QContactFilter const &)
	?relationships@QContactRelationshipSaveRequest@QtMobility@@QBE?AV?$QList@VQContactRelationship@QtMobility@@@@XZ @ 518 NONAME ; class QList<class QtMobility::QContactRelationship> QtMobility::QContactRelationshipSaveRequest::relationships(void) const
	?removeRelationship@QContactManager@QtMobility@@QAE_NABVQContactRelationship@2@@Z @ 519 NONAME ; bool QtMobility::QContactManager::removeRelationship(class QtMobility::QContactRelationship const &)
	?setFirst@QContactRelationshipFetchRequest@QtMobility@@QAEXABVQContactId@2@@Z @ 520 NONAME ; void QtMobility::QContactRelationshipFetchRequest::setFirst(class QtMobility::QContactId const &)
	?FieldCountry@QContactAddress@QtMobility@@2U?$Latin1Literal@$07@2@B @ 521 NONAME ; struct QtMobility::Latin1Literal<8> const QtMobility::QContactAddress::FieldCountry
	??4QContactGuid@QtMobility@@QAEAAV01@ABVQContactDetail@1@@Z @ 522 NONAME ; class QtMobility::QContactGuid & QtMobility::QContactGuid::operator=(class QtMobility::QContactDetail const &)
	?d_func@QContactRelationshipFetchRequest@QtMobility@@AAEPAVQContactRelationshipFetchRequestPrivate@2@XZ @ 523 NONAME ; class QtMobility::QContactRelationshipFetchRequestPrivate * QtMobility::QContactRelationshipFetchRequest::d_func(void)
	?setFirst@QContactRelationshipRemoveRequest@QtMobility@@QAEXABVQContactId@2@@Z @ 524 NONAME ; void QtMobility::QContactRelationshipRemoveRequest::setFirst(class QtMobility::QContactId const &)
	?supportedImplementationVersions@QContactManagerEngineFactory@QtMobility@@UBE?AV?$QList@H@@XZ @ 525 NONAME ; class QList<int> QtMobility::QContactManagerEngineFactory::supportedImplementationVersions(void) const
	??0QContactAnniversary@QtMobility@@QAE@ABVQContactDetail@1@@Z @ 526 NONAME ; QtMobility::QContactAnniversary::QContactAnniversary(class QtMobility::QContactDetail const &)
	?manager@QContactAbstractRequest@QtMobility@@QBEPAVQContactManager@2@XZ @ 527 NONAME ; class QtMobility::QContactManager * QtMobility::QContactAbstractRequest::manager(void) const
	?saveDetailDefinition@QContactMemoryEngine@QtMobility@@UAE_NABVQContactDetailDefinition@2@ABVQString@@AAW4Error@QContactManager@2@@Z @ 528 NONAME ; bool QtMobility::QContactMemoryEngine::saveDetailDefinition(class QtMobility::QContactDetailDefinition const &, class QString const &, enum QtMobility::QContactManager::Error &)
	??0QContact@QtMobility@@QAE@ABV01@@Z @ 529 NONAME ; QtMobility::QContact::QContact(class QtMobility::QContact const &)
	?setType@QContact@QtMobility@@QAEXABVQContactType@2@@Z @ 530 NONAME ; void QtMobility::QContact::setType(class QtMobility::QContactType const &)
	?setUrl@QContactUrl@QtMobility@@QAEXABVQString@@@Z @ 531 NONAME ; void QtMobility::QContactUrl::setUrl(class QString const &)
	?setGuid@QContactGuid@QtMobility@@QAEXABVQString@@@Z @ 532 NONAME ; void QtMobility::QContactGuid::setGuid(class QString const &)
	?nickname@QContactNickname@QtMobility@@QBE?AVQString@@XZ @ 533 NONAME ; class QString QtMobility::QContactNickname::nickname(void) const
	?trUtf8@QContactMemoryEngine@QtMobility@@SA?AVQString@@PBD0H@Z @ 534 NONAME ; class QString QtMobility::QContactMemoryEngine::trUtf8(char const *, char const *, int)
	??1QContactActionFilter@QtMobility@@UAE@XZ @ 535 NONAME ; QtMobility::QContactActionFilter::~QContactActionFilter(void)
	??0QContactDetail@QtMobility@@IAE@ABV01@ABVQString@@@Z @ 536 NONAME ; QtMobility::QContactDetail::QContactDetail(class QtMobility::QContactDetail const &, class QString const &)
	??1QContactChangeSet@QtMobility@@QAE@XZ @ 537 NONAME ; QtMobility::QContactChangeSet::~QContactChangeSet(void)
	?avatar@QContactAvatar@QtMobility@@QBE?AVQString@@XZ @ 538 NONAME ; class QString QtMobility::QContactAvatar::avatar(void) const
	?FieldSyncTarget@QContactSyncTarget@QtMobility@@2U?$Latin1Literal@$0L@@2@B @ 539 NONAME ; struct QtMobility::Latin1Literal<11> const QtMobility::QContactSyncTarget::FieldSyncTarget
	?name@QContactOrganization@QtMobility@@QBE?AVQString@@XZ @ 540 NONAME ; class QString QtMobility::QContactOrganization::name(void) const
	?validateActionFilter@QContactManagerEngine@QtMobility@@SA_NABVQContactFilter@2@@Z @ 541 NONAME ; bool QtMobility::QContactManagerEngine::validateActionFilter(class QtMobility::QContactFilter const &)
	?setManager@QContactAbstractRequest@QtMobility@@QAEXPAVQContactManager@2@@Z @ 542 NONAME ; void QtMobility::QContactAbstractRequest::setManager(class QtMobility::QContactManager *)
	?subTypes@QContactAddress@QtMobility@@QBE?AVQStringList@@XZ @ 543 NONAME ; class QStringList QtMobility::QContactAddress::subTypes(void) const
	?relationshipsAdded@QContactManagerEngine@QtMobility@@IAEXABV?$QList@I@@@Z @ 544 NONAME ; void QtMobility::QContactManagerEngine::relationshipsAdded(class QList<unsigned int> const &)
	??0QContactFilter@QtMobility@@QAE@ABV01@@Z @ 545 NONAME ; QtMobility::QContactFilter::QContactFilter(class QtMobility::QContactFilter const &)
	?SubTypeSip@QContactOnlineAccount@QtMobility@@2U?$Latin1Literal@$03@2@B @ 546 NONAME ; struct QtMobility::Latin1Literal<4> const QtMobility::QContactOnlineAccount::SubTypeSip
	??_EQContactAction@QtMobility@@UAE@I@Z @ 547 NONAME ; QtMobility::QContactAction::~QContactAction(unsigned int)
	??_EQContactRemoveRequest@QtMobility@@UAE@I@Z @ 548 NONAME ; QtMobility::QContactRemoveRequest::~QContactRemoveRequest(unsigned int)
	?supportedRelationshipTypes@QContactManagerEngine@QtMobility@@UBE?AVQStringList@@ABVQString@@@Z @ 549 NONAME ; class QStringList QtMobility::QContactManagerEngine::supportedRelationshipTypes(class QString const &) const
	??0QContactDetailDefinition@QtMobility@@QAE@XZ @ 550 NONAME ; QtMobility::QContactDetailDefinition::QContactDetailDefinition(void)
	?setSyncTarget@QContactSyncTarget@QtMobility@@QAEXABVQString@@@Z @ 551 NONAME ; void QtMobility::QContactSyncTarget::setSyncTarget(class QString const &)
	??4QContactAvatar@QtMobility@@QAEAAV01@ABVQContactDetail@1@@Z @ 552 NONAME ; class QtMobility::QContactAvatar & QtMobility::QContactAvatar::operator=(class QtMobility::QContactDetail const &)
	?synthesizeDisplayLabel@QContactManagerEngine@QtMobility@@UBE?AVQString@@ABVQContact@2@AAW4Error@QContactManager@2@@Z @ 553 NONAME ; class QString QtMobility::QContactManagerEngine::synthesizeDisplayLabel(class QtMobility::QContact const &, enum QtMobility::QContactManager::Error &) const
	?setFields@QContactDetailDefinition@QtMobility@@QAEXABV?$QMap@VQString@@VQContactDetailDefinitionField@QtMobility@@@@@Z @ 554 NONAME ; void QtMobility::QContactDetailDefinition::setFields(class QMap<class QString, class QtMobility::QContactDetailDefinitionField> const &)
	?FieldContext@QContactDetail@QtMobility@@2U?$Latin1Literal@$07@2@B @ 555 NONAME ; struct QtMobility::Latin1Literal<8> const QtMobility::QContactDetail::FieldContext
	??0QContactManager@QtMobility@@QAE@ABVQString@@ABV?$QMap@VQString@@V1@@@PAVQObject@@@Z @ 556 NONAME ; QtMobility::QContactManager::QContactManager(class QString const &, class QMap<class QString, class QString> const &, class QObject *)
	?trUtf8@QContactActionFactory@QtMobility@@SA?AVQString@@PBD0H@Z @ 557 NONAME ; class QString QtMobility::QContactActionFactory::trUtf8(char const *, char const *, int)
	??0QContactPhoneNumber@QtMobility@@QAE@ABVQContactDetail@1@@Z @ 558 NONAME ; QtMobility::QContactPhoneNumber::QContactPhoneNumber(class QtMobility::QContactDetail const &)
	?d_func@QContactLocalIdFilter@QtMobility@@ABEPBVQContactLocalIdFilterPrivate@2@XZ @ 559 NONAME ; class QtMobility::QContactLocalIdFilterPrivate const * QtMobility::QContactLocalIdFilter::d_func(void) const
	?FieldStreet@QContactAddress@QtMobility@@2U?$Latin1Literal@$06@2@B @ 560 NONAME ; struct QtMobility::Latin1Literal<7> const QtMobility::QContactAddress::FieldStreet
	?FieldAvatar@QContactAvatar@QtMobility@@2U?$Latin1Literal@$06@2@B @ 561 NONAME ; struct QtMobility::Latin1Literal<7> const QtMobility::QContactAvatar::FieldAvatar
	?detailDefinitionName@QContactSortOrder@QtMobility@@QBE?AVQString@@XZ @ 562 NONAME ; class QString QtMobility::QContactSortOrder::detailDefinitionName(void) const
	?type@QContactAbstractRequest@QtMobility@@QBE?AW4RequestType@12@XZ @ 563 NONAME ; enum QtMobility::QContactAbstractRequest::RequestType QtMobility::QContactAbstractRequest::type(void) const
	??0QContactDetail@QtMobility@@QAE@ABV01@@Z @ 564 NONAME ; QtMobility::QContactDetail::QContactDetail(class QtMobility::QContactDetail const &)
	?definitions@QContactDetailDefinitionSaveRequest@QtMobility@@QBE?AV?$QList@VQContactDetailDefinition@QtMobility@@@@XZ @ 565 NONAME ; class QList<class QtMobility::QContactDetailDefinition> QtMobility::QContactDetailDefinitionSaveRequest::definitions(void) const
	?supportedDataTypes@QContactMemoryEngine@QtMobility@@UBE?AV?$QList@W4Type@QVariant@@@@XZ @ 566 NONAME ; class QList<enum QVariant::Type> QtMobility::QContactMemoryEngine::supportedDataTypes(void) const
	?removedRelationshipsContacts@QContactChangeSet@QtMobility@@QAEAAV?$QSet@I@@XZ @ 567 NONAME ; class QSet<unsigned int> & QtMobility::QContactChangeSet::removedRelationshipsContacts(void)
	?type@QContactFilter@QtMobility@@QBE?AW4FilterType@12@XZ @ 568 NONAME ; enum QtMobility::QContactFilter::FilterType QtMobility::QContactFilter::type(void) const
	?street@QContactAddress@QtMobility@@QBE?AVQString@@XZ @ 569 NONAME ; class QString QtMobility::QContactAddress::street(void) const
	?FieldModificationTimestamp@QContactTimestamp@QtMobility@@2U?$Latin1Literal@$0BG@@2@B @ 570 NONAME ; struct QtMobility::Latin1Literal<22> const QtMobility::QContactTimestamp::FieldModificationTimestamp
	?localId@QContactId@QtMobility@@QBEIXZ @ 571 NONAME ; unsigned int QtMobility::QContactId::localId(void) const
	?updateRequestStatus@QContactManagerEngine@QtMobility@@SAXPAVQContactAbstractRequest@2@W4Error@QContactManager@2@AAV?$QList@W4Error@QContactManager@QtMobility@@@@W4Status@32@_N@Z @ 572 NONAME ; void QtMobility::QContactManagerEngine::updateRequestStatus(class QtMobility::QContactAbstractRequest *, enum QtMobility::QContactManager::Error, class QList<enum QtMobility::QContactManager::Error> &, enum QtMobility::QContactAbstractRequest::Status, bool)
	??_EQContactOnlineAccount@QtMobility@@UAE@I@Z @ 573 NONAME ; QtMobility::QContactOnlineAccount::~QContactOnlineAccount(unsigned int)
	?supportedContactTypes@QContactManager@QtMobility@@QBE?AVQStringList@@XZ @ 574 NONAME ; class QStringList QtMobility::QContactManager::supportedContactTypes(void) const
	?tr@QContactLocalIdFetchRequest@QtMobility@@SA?AVQString@@PBD0H@Z @ 575 NONAME ; class QString QtMobility::QContactLocalIdFetchRequest::tr(char const *, char const *, int)
	?trUtf8@QContactActionFactory@QtMobility@@SA?AVQString@@PBD0@Z @ 576 NONAME ; class QString QtMobility::QContactActionFactory::trUtf8(char const *, char const *)
	?qt_metacall@QContactActionFactory@QtMobility@@UAEHW4Call@QMetaObject@@HPAPAX@Z @ 577 NONAME ; int QtMobility::QContactActionFactory::qt_metacall(enum QMetaObject::Call, int, void * *)
	?relationshipOrder@QContact@QtMobility@@QBE?AV?$QList@VQContactRelationship@QtMobility@@@@XZ @ 578 NONAME ; class QList<class QtMobility::QContactRelationship> QtMobility::QContact::relationshipOrder(void) const
	?setSubTypes@QContactOnlineAccount@QtMobility@@QAEXABVQString@@@Z @ 579 NONAME ; void QtMobility::QContactOnlineAccount::setSubTypes(class QString const &)
	?tr@QContactAction@QtMobility@@SA?AVQString@@PBD0H@Z @ 580 NONAME ; class QString QtMobility::QContactAction::tr(char const *, char const *, int)
	??8QContactFilter@QtMobility@@QBE_NABV01@@Z @ 581 NONAME ; bool QtMobility::QContactFilter::operator==(class QtMobility::QContactFilter const &) const
	?metaObject@QContactFetchRequest@QtMobility@@UBEPBUQMetaObject@@XZ @ 582 NONAME ; struct QMetaObject const * QtMobility::QContactFetchRequest::metaObject(void) const
	??0QContactRelationshipFetchRequest@QtMobility@@QAE@XZ @ 583 NONAME ; QtMobility::QContactRelationshipFetchRequest::QContactRelationshipFetchRequest(void)
	?logo@QContactOrganization@QtMobility@@QBE?AVQString@@XZ @ 584 NONAME ; class QString QtMobility::QContactOrganization::logo(void) const
	?SubTypeHomePage@QContactUrl@QtMobility@@2U?$Latin1Literal@$08@2@B @ 585 NONAME ; struct QtMobility::Latin1Literal<9> const QtMobility::QContactUrl::SubTypeHomePage
	?isEmpty@QContactDetailDefinition@QtMobility@@QBE_NXZ @ 586 NONAME ; bool QtMobility::QContactDetailDefinition::isEmpty(void) const
	?caseSensitivity@QContactSortOrder@QtMobility@@QBE?AW4CaseSensitivity@Qt@@XZ @ 587 NONAME ; enum Qt::CaseSensitivity QtMobility::QContactSortOrder::caseSensitivity(void) const
	?d_func@QContactIntersectionFilter@QtMobility@@ABEPBVQContactIntersectionFilterPrivate@2@XZ @ 588 NONAME ; class QtMobility::QContactIntersectionFilterPrivate const * QtMobility::QContactIntersectionFilter::d_func(void) const
	??_EQContactBirthday@QtMobility@@UAE@I@Z @ 589 NONAME ; QtMobility::QContactBirthday::~QContactBirthday(unsigned int)
	?FieldCreationTimestamp@QContactTimestamp@QtMobility@@2U?$Latin1Literal@$0BC@@2@B @ 590 NONAME ; struct QtMobility::Latin1Literal<18> const QtMobility::QContactTimestamp::FieldCreationTimestamp
	?tr@QContactRemoveRequest@QtMobility@@SA?AVQString@@PBD0@Z @ 591 NONAME ; class QString QtMobility::QContactRemoveRequest::tr(char const *, char const *)
	?FieldGuid@QContactGuid@QtMobility@@2U?$Latin1Literal@$04@2@B @ 592 NONAME ; struct QtMobility::Latin1Literal<5> const QtMobility::QContactGuid::FieldGuid
	?getStaticMetaObject@QContactRemoveRequest@QtMobility@@SAABUQMetaObject@@XZ @ 593 NONAME ; struct QMetaObject const & QtMobility::QContactRemoveRequest::getStaticMetaObject(void)
	?setSpeed@QContactGeolocation@QtMobility@@QAEXN@Z @ 594 NONAME ; void QtMobility::QContactGeolocation::setSpeed(double)
	?DefinitionName@QContactAddress@QtMobility@@2U?$Latin1Literal@$0O@@2@B @ 595 NONAME ; struct QtMobility::Latin1Literal<14> const QtMobility::QContactAddress::DefinitionName
	??0QContactRelationship@QtMobility@@QAE@ABV01@@Z @ 596 NONAME ; QtMobility::QContactRelationship::QContactRelationship(class QtMobility::QContactRelationship const &)
	?setAltitude@QContactGeolocation@QtMobility@@QAEXN@Z @ 597 NONAME ; void QtMobility::QContactGeolocation::setAltitude(double)
	?supportedContactTypes@QContactManagerEngine@QtMobility@@UBE?AVQStringList@@XZ @ 598 NONAME ; class QStringList QtMobility::QContactManagerEngine::supportedContactTypes(void) const
	?serviceProvider@QContactOnlineAccount@QtMobility@@QBE?AVQString@@XZ @ 599 NONAME ; class QString QtMobility::QContactOnlineAccount::serviceProvider(void) const
	?FieldLast@QContactName@QtMobility@@2U?$Latin1Literal@$04@2@B @ 600 NONAME ; struct QtMobility::Latin1Literal<5> const QtMobility::QContactName::FieldLast
	?d_func@QContactDetailDefinitionRemoveRequest@QtMobility@@ABEPBVQContactDetailDefinitionRemoveRequestPrivate@2@XZ @ 601 NONAME ; class QtMobility::QContactDetailDefinitionRemoveRequestPrivate const * QtMobility::QContactDetailDefinitionRemoveRequest::d_func(void) const
	?SubTypeMemorial@QContactAnniversary@QtMobility@@2U?$Latin1Literal@$08@2@B @ 602 NONAME ; struct QtMobility::Latin1Literal<9> const QtMobility::QContactAnniversary::SubTypeMemorial
	?customLabel@QContactName@QtMobility@@QBE?AVQString@@XZ @ 603 NONAME ; class QString QtMobility::QContactName::customLabel(void) const
	?hasFeature@QContactMemoryEngine@QtMobility@@UBE_NW4ManagerFeature@QContactManager@2@ABVQString@@@Z @ 604 NONAME ; bool QtMobility::QContactMemoryEngine::hasFeature(enum QtMobility::QContactManager::ManagerFeature, class QString const &) const
	?sorting@QContactLocalIdFetchRequest@QtMobility@@QBE?AV?$QList@VQContactSortOrder@QtMobility@@@@XZ @ 605 NONAME ; class QList<class QtMobility::QContactSortOrder> QtMobility::QContactLocalIdFetchRequest::sorting(void) const
	?name@QContactDetailDefinition@QtMobility@@QBE?AVQString@@XZ @ 606 NONAME ; class QString QtMobility::QContactDetailDefinition::name(void) const
	?preferredDetail@QContact@QtMobility@@QBE?AVQContactDetail@2@ABVQString@@@Z @ 607 NONAME ; class QtMobility::QContactDetail QtMobility::QContact::preferredDetail(class QString const &) const
	?trUtf8@QContactDetailDefinitionSaveRequest@QtMobility@@SA?AVQString@@PBD0@Z @ 608 NONAME ; class QString QtMobility::QContactDetailDefinitionSaveRequest::trUtf8(char const *, char const *)
	?definitionName@QContactDetail@QtMobility@@QBE?AVQString@@XZ @ 609 NONAME ; class QString QtMobility::QContactDetail::definitionName(void) const
	?d_func@QContactDetailFilter@QtMobility@@AAEPAVQContactDetailFilterPrivate@2@XZ @ 610 NONAME ; class QtMobility::QContactDetailFilterPrivate * QtMobility::QContactDetailFilter::d_func(void)
	?requestDestroyed@QContactMemoryEngine@QtMobility@@UAEXPAVQContactAbstractRequest@2@@Z @ 611 NONAME ; void QtMobility::QContactMemoryEngine::requestDestroyed(class QtMobility::QContactAbstractRequest *)
	?saveRelationship@QContactManager@QtMobility@@QAE_NPAVQContactRelationship@2@@Z @ 612 NONAME ; bool QtMobility::QContactManager::saveRelationship(class QtMobility::QContactRelationship *)
	?setFilter@QContactFetchRequest@QtMobility@@QAEXABVQContactFilter@2@@Z @ 613 NONAME ; void QtMobility::QContactFetchRequest::setFilter(class QtMobility::QContactFilter const &)
	?tr@QContactDetailDefinitionFetchRequest@QtMobility@@SA?AVQString@@PBD0H@Z @ 614 NONAME ; class QString QtMobility::QContactDetailDefinitionFetchRequest::tr(char const *, char const *, int)
	?eventType@QContactChangeLogFilter@QtMobility@@QBE?AW4EventType@12@XZ @ 615 NONAME ; enum QtMobility::QContactChangeLogFilter::EventType QtMobility::QContactChangeLogFilter::eventType(void) const
	?setSubTypes@QContactPhoneNumber@QtMobility@@QAEXABVQStringList@@@Z @ 616 NONAME ; void QtMobility::QContactPhoneNumber::setSubTypes(class QStringList const &)
	??0QContactRemoveRequest@QtMobility@@QAE@XZ @ 617 NONAME ; QtMobility::QContactRemoveRequest::QContactRemoveRequest(void)
	?SubTypePostal@QContactAddress@QtMobility@@2U?$Latin1Literal@$06@2@B @ 618 NONAME ; struct QtMobility::Latin1Literal<7> const QtMobility::QContactAddress::SubTypePostal
	?progress@QContactFetchRequest@QtMobility@@IAEXPAV12@_N@Z @ 619 NONAME ; void QtMobility::QContactFetchRequest::progress(class QtMobility::QContactFetchRequest *, bool)
	?remove@QContactUnionFilter@QtMobility@@QAEXABVQContactFilter@2@@Z @ 620 NONAME ; void QtMobility::QContactUnionFilter::remove(class QtMobility::QContactFilter const &)
	?managerUri@QContactManager@QtMobility@@QBE?AVQString@@XZ @ 621 NONAME ; class QString QtMobility::QContactManager::managerUri(void) const
	?FieldHeading@QContactGeolocation@QtMobility@@2U?$Latin1Literal@$07@2@B @ 622 NONAME ; struct QtMobility::Latin1Literal<8> const QtMobility::QContactGeolocation::FieldHeading
	??0QContactChangeLogFilter@QtMobility@@QAE@W4EventType@01@@Z @ 623 NONAME ; QtMobility::QContactChangeLogFilter::QContactChangeLogFilter(enum QtMobility::QContactChangeLogFilter::EventType)
	?trUtf8@QContactAbstractRequest@QtMobility@@SA?AVQString@@PBD0H@Z @ 624 NONAME ; class QString QtMobility::QContactAbstractRequest::trUtf8(char const *, char const *, int)
	?trUtf8@QContactManagerEngine@QtMobility@@SA?AVQString@@PBD0@Z @ 625 NONAME ; class QString QtMobility::QContactManagerEngine::trUtf8(char const *, char const *)
	?FieldRole@QContactOrganization@QtMobility@@2U?$Latin1Literal@$04@2@B @ 626 NONAME ; struct QtMobility::Latin1Literal<5> const QtMobility::QContactOrganization::FieldRole
	?setContexts@QContactDetail@QtMobility@@QAEXABVQString@@@Z @ 627 NONAME ; void QtMobility::QContactDetail::setContexts(class QString const &)
	?value@QContactDetailFilter@QtMobility@@QBE?AVQVariant@@XZ @ 628 NONAME ; class QVariant QtMobility::QContactDetailFilter::value(void) const
	?getStaticMetaObject@QContactMemoryEngine@QtMobility@@SAABUQMetaObject@@XZ @ 629 NONAME ; struct QMetaObject const & QtMobility::QContactMemoryEngine::getStaticMetaObject(void)
	?setRole@QContactRelationshipFilter@QtMobility@@QAEXW4Role@12@@Z @ 630 NONAME ; void QtMobility::QContactRelationshipFilter::setRole(enum QtMobility::QContactRelationshipFilter::Role)
	??1QContactDetailDefinitionSaveRequest@QtMobility@@UAE@XZ @ 631 NONAME ; QtMobility::QContactDetailDefinitionSaveRequest::~QContactDetailDefinitionSaveRequest(void)
	?number@QContactPhoneNumber@QtMobility@@QBE?AVQString@@XZ @ 632 NONAME ; class QString QtMobility::QContactPhoneNumber::number(void) const
	?trUtf8@QContactRelationshipFetchRequest@QtMobility@@SA?AVQString@@PBD0H@Z @ 633 NONAME ; class QString QtMobility::QContactRelationshipFetchRequest::trUtf8(char const *, char const *, int)
	?trUtf8@QContactSaveRequest@QtMobility@@SA?AVQString@@PBD0@Z @ 634 NONAME ; class QString QtMobility::QContactSaveRequest::trUtf8(char const *, char const *)
	?selfContactId@QContactManagerEngine@QtMobility@@UBEIAAW4Error@QContactManager@2@@Z @ 635 NONAME ; unsigned int QtMobility::QContactManagerEngine::selfContactId(enum QtMobility::QContactManager::Error &) const
	??0QContactDetailDefinitionField@QtMobility@@QAE@XZ @ 636 NONAME ; QtMobility::QContactDetailDefinitionField::QContactDetailDefinitionField(void)
	?DefinitionName@QContactName@QtMobility@@2U?$Latin1Literal@$04@2@B @ 637 NONAME ; struct QtMobility::Latin1Literal<5> const QtMobility::QContactName::DefinitionName
	?d_func@QContactFetchRequest@QtMobility@@ABEPBVQContactFetchRequestPrivate@2@XZ @ 638 NONAME ; class QtMobility::QContactFetchRequestPrivate const * QtMobility::QContactFetchRequest::d_func(void) const
	??4QContactBirthday@QtMobility@@QAEAAV01@ABVQContactDetail@1@@Z @ 639 NONAME ; class QtMobility::QContactBirthday & QtMobility::QContactBirthday::operator=(class QtMobility::QContactDetail const &)
	??0QContactDisplayLabel@QtMobility@@QAE@XZ @ 640 NONAME ; QtMobility::QContactDisplayLabel::QContactDisplayLabel(void)
	?accountUri@QContactOnlineAccount@QtMobility@@QBE?AVQString@@XZ @ 641 NONAME ; class QString QtMobility::QContactOnlineAccount::accountUri(void) const
	??4QContactRelationship@QtMobility@@QAEAAV01@ABV01@@Z @ 642 NONAME ; class QtMobility::QContactRelationship & QtMobility::QContactRelationship::operator=(class QtMobility::QContactRelationship const &)
	?date@QContactBirthday@QtMobility@@QBE?AVQDate@@XZ @ 643 NONAME ; class QDate QtMobility::QContactBirthday::date(void) const
	?validateDefinition@QContactManagerEngine@QtMobility@@UBE_NABVQContactDetailDefinition@2@AAW4Error@QContactManager@2@@Z @ 644 NONAME ; bool QtMobility::QContactManagerEngine::validateDefinition(class QtMobility::QContactDetailDefinition const &, enum QtMobility::QContactManager::Error &) const
	??_EQContactOrganization@QtMobility@@UAE@I@Z @ 645 NONAME ; QtMobility::QContactOrganization::~QContactOrganization(unsigned int)
	?trUtf8@QContactRelationshipRemoveRequest@QtMobility@@SA?AVQString@@PBD0H@Z @ 646 NONAME ; class QString QtMobility::QContactRelationshipRemoveRequest::trUtf8(char const *, char const *, int)
	?setPresence@QContactOnlineAccount@QtMobility@@QAEXABVQString@@@Z @ 647 NONAME ; void QtMobility::QContactOnlineAccount::setPresence(class QString const &)
	?setBlankPolicy@QContactSortOrder@QtMobility@@QAEXW4BlankPolicy@12@@Z @ 648 NONAME ; void QtMobility::QContactSortOrder::setBlankPolicy(enum QtMobility::QContactSortOrder::BlankPolicy)
	?tr@QContactMemoryEngine@QtMobility@@SA?AVQString@@PBD0H@Z @ 649 NONAME ; class QString QtMobility::QContactMemoryEngine::tr(char const *, char const *, int)
	?progress@QContactDetailDefinitionRemoveRequest@QtMobility@@IAEXPAV12@@Z @ 650 NONAME ; void QtMobility::QContactDetailDefinitionRemoveRequest::progress(class QtMobility::QContactDetailDefinitionRemoveRequest *)
	??0QContactEmailAddress@QtMobility@@QAE@XZ @ 651 NONAME ; QtMobility::QContactEmailAddress::QContactEmailAddress(void)
	?tr@QContactManager@QtMobility@@SA?AVQString@@PBD0H@Z @ 652 NONAME ; class QString QtMobility::QContactManager::tr(char const *, char const *, int)
	?staticMetaObject@QContactRelationshipFetchRequest@QtMobility@@2UQMetaObject@@B @ 653 NONAME ; struct QMetaObject const QtMobility::QContactRelationshipFetchRequest::staticMetaObject
	??0QContactActionDescriptor@QtMobility@@QAE@ABV01@@Z @ 654 NONAME ; QtMobility::QContactActionDescriptor::QContactActionDescriptor(class QtMobility::QContactActionDescriptor const &)
	?lastModified@QContactTimestamp@QtMobility@@QBE?AVQDateTime@@XZ @ 655 NONAME ; class QDateTime QtMobility::QContactTimestamp::lastModified(void) const
	?setSuffix@QContactName@QtMobility@@QAEXABVQString@@@Z @ 656 NONAME ; void QtMobility::QContactName::setSuffix(class QString const &)
	?filters@QContactIntersectionFilter@QtMobility@@QBE?AV?$QList@VQContactFilter@QtMobility@@@@XZ @ 657 NONAME ; class QList<class QtMobility::QContactFilter> QtMobility::QContactIntersectionFilter::filters(void) const
	??6QContactIntersectionFilter@QtMobility@@QAEAAV01@ABVQContactFilter@1@@Z @ 658 NONAME ; class QtMobility::QContactIntersectionFilter & QtMobility::QContactIntersectionFilter::operator<<(class QtMobility::QContactFilter const &)
	??9QContact@QtMobility@@QBE_NABV01@@Z @ 659 NONAME ; bool QtMobility::QContact::operator!=(class QtMobility::QContact const &) const
	?cancelRequest@QContactMemoryEngine@QtMobility@@UAE_NPAVQContactAbstractRequest@2@@Z @ 660 NONAME ; bool QtMobility::QContactMemoryEngine::cancelRequest(class QtMobility::QContactAbstractRequest *)
	?setServiceProvider@QContactOnlineAccount@QtMobility@@QAEXABVQString@@@Z @ 661 NONAME ; void QtMobility::QContactOnlineAccount::setServiceProvider(class QString const &)
	??4QContactNickname@QtMobility@@QAEAAV01@ABVQContactDetail@1@@Z @ 662 NONAME ; class QtMobility::QContactNickname & QtMobility::QContactNickname::operator=(class QtMobility::QContactDetail const &)
	??0QContactAvatar@QtMobility@@QAE@ABVQContactDetail@1@@Z @ 663 NONAME ; QtMobility::QContactAvatar::QContactAvatar(class QtMobility::QContactDetail const &)
	?setNickname@QContactOnlineAccount@QtMobility@@QAEXABVQString@@@Z @ 664 NONAME ; void QtMobility::QContactOnlineAccount::setNickname(class QString const &)
	??_EQContactAddress@QtMobility@@UAE@I@Z @ 665 NONAME ; QtMobility::QContactAddress::~QContactAddress(unsigned int)
	?tr@QContactMemoryEngine@QtMobility@@SA?AVQString@@PBD0@Z @ 666 NONAME ; class QString QtMobility::QContactMemoryEngine::tr(char const *, char const *)
	?contacts@QContactManagerEngine@QtMobility@@UBE?AV?$QList@I@@ABV?$QList@VQContactSortOrder@QtMobility@@@@AAW4Error@QContactManager@2@@Z @ 667 NONAME ; class QList<unsigned int> QtMobility::QContactManagerEngine::contacts(class QList<class QtMobility::QContactSortOrder> const &, enum QtMobility::QContactManager::Error &) const
	?start@QContactAbstractRequest@QtMobility@@QAE_NXZ @ 668 NONAME ; bool QtMobility::QContactAbstractRequest::start(void)
	?setLastModified@QContactTimestamp@QtMobility@@QAEXABVQDateTime@@@Z @ 669 NONAME ; void QtMobility::QContactTimestamp::setLastModified(class QDateTime const &)
	?isUnique@QContactDetailDefinition@QtMobility@@QBE_NXZ @ 670 NONAME ; bool QtMobility::QContactDetailDefinition::isUnique(void) const
	?setEmailAddress@QContactEmailAddress@QtMobility@@QAEXABVQString@@@Z @ 671 NONAME ; void QtMobility::QContactEmailAddress::setEmailAddress(class QString const &)
	?ContextHome@QContactDetail@QtMobility@@2U?$Latin1Literal@$04@2@B @ 672 NONAME ; struct QtMobility::Latin1Literal<5> const QtMobility::QContactDetail::ContextHome
	?metaObject@QContactManagerEngine@QtMobility@@UBEPBUQMetaObject@@XZ @ 673 NONAME ; struct QMetaObject const * QtMobility::QContactManagerEngine::metaObject(void) const
	?setNames@QContactDetailDefinitionRemoveRequest@QtMobility@@QAEXABVQStringList@@@Z @ 674 NONAME ; void QtMobility::QContactDetailDefinitionRemoveRequest::setNames(class QStringList const &)
	?qt_metacall@QContactFetchRequest@QtMobility@@UAEHW4Call@QMetaObject@@HPAPAX@Z @ 675 NONAME ; int QtMobility::QContactFetchRequest::qt_metacall(enum QMetaObject::Call, int, void * *)
	?trUtf8@QContactDetailDefinitionFetchRequest@QtMobility@@SA?AVQString@@PBD0H@Z @ 676 NONAME ; class QString QtMobility::QContactDetailDefinitionFetchRequest::trUtf8(char const *, char const *, int)
	??_EQContactFilter@QtMobility@@UAE@I@Z @ 677 NONAME ; QtMobility::QContactFilter::~QContactFilter(unsigned int)
	??_EQContactFamily@QtMobility@@UAE@I@Z @ 678 NONAME ; QtMobility::QContactFamily::~QContactFamily(unsigned int)
	??0QContactOrganization@QtMobility@@QAE@ABVQContactDetail@1@@Z @ 679 NONAME ; QtMobility::QContactOrganization::QContactOrganization(class QtMobility::QContactDetail const &)
	?metaObject@QContactManager@QtMobility@@UBEPBUQMetaObject@@XZ @ 680 NONAME ; struct QMetaObject const * QtMobility::QContactManager::metaObject(void) const
	?qt_metacall@QContactAction@QtMobility@@UAEHW4Call@QMetaObject@@HPAPAX@Z @ 681 NONAME ; int QtMobility::QContactAction::qt_metacall(enum QMetaObject::Call, int, void * *)
	?setFirst@QContactName@QtMobility@@QAEXABVQString@@@Z @ 682 NONAME ; void QtMobility::QContactName::setFirst(class QString const &)
	?metaObject@QContactLocalIdFetchRequest@QtMobility@@UBEPBUQMetaObject@@XZ @ 683 NONAME ; struct QMetaObject const * QtMobility::QContactLocalIdFetchRequest::metaObject(void) const
	?setCountry@QContactAddress@QtMobility@@QAEXABVQString@@@Z @ 684 NONAME ; void QtMobility::QContactAddress::setCountry(class QString const &)
	?setSubType@QContactAvatar@QtMobility@@QAEXABVQString@@@Z @ 685 NONAME ; void QtMobility::QContactAvatar::setSubType(class QString const &)
	?HasSpouse@QContactRelationship@QtMobility@@2U?$Latin1Literal@$09@2@B @ 686 NONAME ; struct QtMobility::Latin1Literal<10> const QtMobility::QContactRelationship::HasSpouse
	?changedContacts@QContactChangeSet@QtMobility@@QAEAAV?$QSet@I@@XZ @ 687 NONAME ; class QSet<unsigned int> & QtMobility::QContactChangeSet::changedContacts(void)
	?SubTypeVideo@QContactPhoneNumber@QtMobility@@2U?$Latin1Literal@$05@2@B @ 688 NONAME ; struct QtMobility::Latin1Literal<6> const QtMobility::QContactPhoneNumber::SubTypeVideo
	??4QContactDisplayLabel@QtMobility@@QAEAAV01@ABVQContactDetail@1@@Z @ 689 NONAME ; class QtMobility::QContactDisplayLabel & QtMobility::QContactDisplayLabel::operator=(class QtMobility::QContactDetail const &)
	?FieldTitle@QContactOrganization@QtMobility@@2U?$Latin1Literal@$05@2@B @ 690 NONAME ; struct QtMobility::Latin1Literal<6> const QtMobility::QContactOrganization::FieldTitle
	?sortContacts@QContactManagerEngine@QtMobility@@SA?AV?$QList@I@@ABV?$QList@VQContact@QtMobility@@@@ABV?$QList@VQContactSortOrder@QtMobility@@@@@Z @ 691 NONAME ; class QList<unsigned int> QtMobility::QContactManagerEngine::sortContacts(class QList<class QtMobility::QContact> const &, class QList<class QtMobility::QContactSortOrder> const &)
	?tr@QContactActionFactory@QtMobility@@SA?AVQString@@PBD0@Z @ 692 NONAME ; class QString QtMobility::QContactActionFactory::tr(char const *, char const *)
	??0QContactNickname@QtMobility@@QAE@XZ @ 693 NONAME ; QtMobility::QContactNickname::QContactNickname(void)
	?getStaticMetaObject@QContactActionFactory@QtMobility@@SAABUQMetaObject@@XZ @ 694 NONAME ; struct QMetaObject const & QtMobility::QContactActionFactory::getStaticMetaObject(void)
	?Is@QContactRelationship@QtMobility@@2U?$Latin1Literal@$02@2@B @ 695 NONAME ; struct QtMobility::Latin1Literal<3> const QtMobility::QContactRelationship::Is
	?setCustomLabel@QContactName@QtMobility@@QAEXABVQString@@@Z @ 696 NONAME ; void QtMobility::QContactName::setCustomLabel(class QString const &)
	?relationshipsRemoved@QContactManager@QtMobility@@IAEXABV?$QList@I@@@Z @ 697 NONAME ; void QtMobility::QContactManager::relationshipsRemoved(class QList<unsigned int> const &)
	?contacts@QContactFetchRequest@QtMobility@@QBE?AV?$QList@VQContact@QtMobility@@@@XZ @ 698 NONAME ; class QList<class QtMobility::QContact> QtMobility::QContactFetchRequest::contacts(void) const
	??0QContactSortOrder@QtMobility@@QAE@ABV01@@Z @ 699 NONAME ; QtMobility::QContactSortOrder::QContactSortOrder(class QtMobility::QContactSortOrder const &)
	?metaObject@QContactDetailDefinitionSaveRequest@QtMobility@@UBEPBUQMetaObject@@XZ @ 700 NONAME ; struct QMetaObject const * QtMobility::QContactDetailDefinitionSaveRequest::metaObject(void) const
	??0QContactPhoneNumber@QtMobility@@QAE@XZ @ 701 NONAME ; QtMobility::QContactPhoneNumber::QContactPhoneNumber(void)
	?d_func@QContactChangeLogFilter@QtMobility@@AAEPAVQContactChangeLogFilterPrivate@2@XZ @ 702 NONAME ; class QtMobility::QContactChangeLogFilterPrivate * QtMobility::QContactChangeLogFilter::d_func(void)
	?performAsynchronousOperation@QContactMemoryEngine@QtMobility@@AAEXXZ @ 703 NONAME ; void QtMobility::QContactMemoryEngine::performAsynchronousOperation(void)
	?progress@QContactDetailDefinitionSaveRequest@QtMobility@@IAEXPAV12@@Z @ 704 NONAME ; void QtMobility::QContactDetailDefinitionSaveRequest::progress(class QtMobility::QContactDetailDefinitionSaveRequest *)
	?trUtf8@QContactRelationshipFetchRequest@QtMobility@@SA?AVQString@@PBD0@Z @ 705 NONAME ; class QString QtMobility::QContactRelationshipFetchRequest::trUtf8(char const *, char const *)
	??0QContactOrganization@QtMobility@@QAE@XZ @ 706 NONAME ; QtMobility::QContactOrganization::QContactOrganization(void)
	?removeContacts@QContactManager@QtMobility@@QAE?AV?$QList@W4Error@QContactManager@QtMobility@@@@PAV?$QList@I@@@Z @ 707 NONAME ; class QList<enum QtMobility::QContactManager::Error> QtMobility::QContactManager::removeContacts(class QList<unsigned int> *)
	?subType@QContactAvatar@QtMobility@@QBE?AVQString@@XZ @ 708 NONAME ; class QString QtMobility::QContactAvatar::subType(void) const
	?relationshipsRemoved@QContactManagerEngine@QtMobility@@IAEXABV?$QList@I@@@Z @ 709 NONAME ; void QtMobility::QContactManagerEngine::relationshipsRemoved(class QList<unsigned int> const &)
	?setId@QContact@QtMobility@@QAEXABVQContactId@2@@Z @ 710 NONAME ; void QtMobility::QContact::setId(class QtMobility::QContactId const &)
	?metaObject@QContactAction@QtMobility@@UBEPBUQMetaObject@@XZ @ 711 NONAME ; struct QMetaObject const * QtMobility::QContactAction::metaObject(void) const
	?setAccessConstraint@QContactDetailDefinition@QtMobility@@QAEXABW4AccessConstraint@12@@Z @ 712 NONAME ; void QtMobility::QContactDetailDefinition::setAccessConstraint(enum QtMobility::QContactDetailDefinition::AccessConstraint const &)
	?setSince@QContactChangeLogFilter@QtMobility@@QAEXABVQDateTime@@@Z @ 713 NONAME ; void QtMobility::QContactChangeLogFilter::setSince(class QDateTime const &)
	?metaObject@QContactAbstractRequest@QtMobility@@UBEPBUQMetaObject@@XZ @ 714 NONAME ; struct QMetaObject const * QtMobility::QContactAbstractRequest::metaObject(void) const
	?filterSupported@QContactManagerEngine@QtMobility@@UBE_NABVQContactFilter@2@@Z @ 715 NONAME ; bool QtMobility::QContactManagerEngine::filterSupported(class QtMobility::QContactFilter const &) const
	?setOtherParticipantId@QContactRelationshipFilter@QtMobility@@QAEXABVQContactId@2@@Z @ 716 NONAME ; void QtMobility::QContactRelationshipFilter::setOtherParticipantId(class QtMobility::QContactId const &)
	??IQtMobility@@YA?BVQContactFilter@0@ABV10@0@Z @ 717 NONAME ; class QtMobility::QContactFilter const QtMobility::operator&(class QtMobility::QContactFilter const &, class QtMobility::QContactFilter const &)
	?event@QContactAnniversary@QtMobility@@QBE?AVQString@@XZ @ 718 NONAME ; class QString QtMobility::QContactAnniversary::event(void) const
	?removeDetailDefinition@QContactManager@QtMobility@@QAE_NABVQString@@0@Z @ 719 NONAME ; bool QtMobility::QContactManager::removeDetailDefinition(class QString const &, class QString const &)
	??4QContactActionDescriptor@QtMobility@@QAEAAV01@ABV01@@Z @ 720 NONAME ; class QtMobility::QContactActionDescriptor & QtMobility::QContactActionDescriptor::operator=(class QtMobility::QContactActionDescriptor const &)
	??0QContactFamily@QtMobility@@QAE@XZ @ 721 NONAME ; QtMobility::QContactFamily::QContactFamily(void)
	?setEvent@QContactAnniversary@QtMobility@@QAEXABVQString@@@Z @ 722 NONAME ; void QtMobility::QContactAnniversary::setEvent(class QString const &)
	?metaObject@QContactDetailDefinitionFetchRequest@QtMobility@@UBEPBUQMetaObject@@XZ @ 723 NONAME ; struct QMetaObject const * QtMobility::QContactDetailDefinitionFetchRequest::metaObject(void) const
	?preferredActions@QContactDetail@QtMobility@@QBE?AV?$QList@VQContactActionDescriptor@QtMobility@@@@XZ @ 724 NONAME ; class QList<class QtMobility::QContactActionDescriptor> QtMobility::QContactDetail::preferredActions(void) const
	?setFilter@QContactRemoveRequest@QtMobility@@QAEXABVQContactFilter@2@@Z @ 725 NONAME ; void QtMobility::QContactRemoveRequest::setFilter(class QtMobility::QContactFilter const &)
	??1QContactType@QtMobility@@UAE@XZ @ 726 NONAME ; QtMobility::QContactType::~QContactType(void)
	??_EQContactAnniversary@QtMobility@@UAE@I@Z @ 727 NONAME ; QtMobility::QContactAnniversary::~QContactAnniversary(unsigned int)
	?trUtf8@QContactLocalIdFetchRequest@QtMobility@@SA?AVQString@@PBD0@Z @ 728 NONAME ; class QString QtMobility::QContactLocalIdFetchRequest::trUtf8(char const *, char const *)
	?FieldFirst@QContactName@QtMobility@@2U?$Latin1Literal@$05@2@B @ 729 NONAME ; struct QtMobility::Latin1Literal<6> const QtMobility::QContactName::FieldFirst
	?first@QContactName@QtMobility@@QBE?AVQString@@XZ @ 730 NONAME ; class QString QtMobility::QContactName::first(void) const
	??1QContactManager@QtMobility@@UAE@XZ @ 731 NONAME ; QtMobility::QContactManager::~QContactManager(void)
	?qt_metacast@QContactMemoryEngine@QtMobility@@UAEPAXPBD@Z @ 732 NONAME ; void * QtMobility::QContactMemoryEngine::qt_metacast(char const *)
	?DefinitionName@QContactSyncTarget@QtMobility@@2U?$Latin1Literal@$0L@@2@B @ 733 NONAME ; struct QtMobility::Latin1Literal<11> const QtMobility::QContactSyncTarget::DefinitionName
	?FieldAccountUri@QContactOnlineAccount@QtMobility@@2U?$Latin1Literal@$0L@@2@B @ 734 NONAME ; struct QtMobility::Latin1Literal<11> const QtMobility::QContactOnlineAccount::FieldAccountUri
	?saveContacts@QContactManagerEngine@QtMobility@@UAE?AV?$QList@W4Error@QContactManager@QtMobility@@@@PAV?$QList@VQContact@QtMobility@@@@AAW4Error@QContactManager@2@@Z @ 735 NONAME ; class QList<enum QtMobility::QContactManager::Error> QtMobility::QContactManagerEngine::saveContacts(class QList<class QtMobility::QContact> *, enum QtMobility::QContactManager::Error &)
	??_EQContactManagerEngineFactory@QtMobility@@UAE@I@Z @ 736 NONAME ; QtMobility::QContactManagerEngineFactory::~QContactManagerEngineFactory(unsigned int)
	??_EQContactGuid@QtMobility@@UAE@I@Z @ 737 NONAME ; QtMobility::QContactGuid::~QContactGuid(unsigned int)
	??_EQContactRelationshipSaveRequest@QtMobility@@UAE@I@Z @ 738 NONAME ; QtMobility::QContactRelationshipSaveRequest::~QContactRelationshipSaveRequest(unsigned int)
	?tr@QContactRelationshipFetchRequest@QtMobility@@SA?AVQString@@PBD0H@Z @ 739 NONAME ; class QString QtMobility::QContactRelationshipFetchRequest::tr(char const *, char const *, int)
	?status@QContactAbstractRequest@QtMobility@@QBE?AW4Status@12@XZ @ 740 NONAME ; enum QtMobility::QContactAbstractRequest::Status QtMobility::QContactAbstractRequest::status(void) const
	?SubTypeLandline@QContactPhoneNumber@QtMobility@@2U?$Latin1Literal@$08@2@B @ 741 NONAME ; struct QtMobility::Latin1Literal<9> const QtMobility::QContactPhoneNumber::SubTypeLandline
	?validateContact@QContactManagerEngine@QtMobility@@UBE_NABVQContact@2@AAW4Error@QContactManager@2@@Z @ 742 NONAME ; bool QtMobility::QContactManagerEngine::validateContact(class QtMobility::QContact const &, enum QtMobility::QContactManager::Error &) const
	?dataChanged@QContactChangeSet@QtMobility@@QAE_NXZ @ 743 NONAME ; bool QtMobility::QContactChangeSet::dataChanged(void)
	?timestamp@QContactGeolocation@QtMobility@@QBE?AVQDateTime@@XZ @ 744 NONAME ; class QDateTime QtMobility::QContactGeolocation::timestamp(void) const
	?managerParameters@QContactManagerEngine@QtMobility@@UBE?AV?$QMap@VQString@@V1@@@XZ @ 745 NONAME ; class QMap<class QString, class QString> QtMobility::QContactManagerEngine::managerParameters(void) const
	?tr@QContactManagerEngine@QtMobility@@SA?AVQString@@PBD0@Z @ 746 NONAME ; class QString QtMobility::QContactManagerEngine::tr(char const *, char const *)
	?getStaticMetaObject@QContactManagerEngine@QtMobility@@SAABUQMetaObject@@XZ @ 747 NONAME ; struct QMetaObject const & QtMobility::QContactManagerEngine::getStaticMetaObject(void)
	?removeRelationships@QContactManager@QtMobility@@QAE?AV?$QList@W4Error@QContactManager@QtMobility@@@@ABV?$QList@VQContactRelationship@QtMobility@@@@@Z @ 748 NONAME ; class QList<enum QtMobility::QContactManager::Error> QtMobility::QContactManager::removeRelationships(class QList<class QtMobility::QContactRelationship> const &)
	?DefinitionName@QContactNote@QtMobility@@2U?$Latin1Literal@$04@2@B @ 749 NONAME ; struct QtMobility::Latin1Literal<5> const QtMobility::QContactNote::DefinitionName
	?qt_metacast@QContactAction@QtMobility@@UAEPAXPBD@Z @ 750 NONAME ; void * QtMobility::QContactAction::qt_metacast(char const *)
	?detailDefinitions@QContactMemoryEngine@QtMobility@@UBE?AV?$QMap@VQString@@VQContactDetailDefinition@QtMobility@@@@ABVQString@@AAW4Error@QContactManager@2@@Z @ 751 NONAME ; class QMap<class QString, class QtMobility::QContactDetailDefinition> QtMobility::QContactMemoryEngine::detailDefinitions(class QString const &, enum QtMobility::QContactManager::Error &) const
	?qt_metacast@QContactSaveRequest@QtMobility@@UAEPAXPBD@Z @ 752 NONAME ; void * QtMobility::QContactSaveRequest::qt_metacast(char const *)
	?emailAddress@QContactEmailAddress@QtMobility@@QBE?AVQString@@XZ @ 753 NONAME ; class QString QtMobility::QContactEmailAddress::emailAddress(void) const
	??1QContactPhoneNumber@QtMobility@@UAE@XZ @ 754 NONAME ; QtMobility::QContactPhoneNumber::~QContactPhoneNumber(void)
	?d_func@QContactLocalIdFilter@QtMobility@@AAEPAVQContactLocalIdFilterPrivate@2@XZ @ 755 NONAME ; class QtMobility::QContactLocalIdFilterPrivate * QtMobility::QContactLocalIdFilter::d_func(void)
	??8QContactRelationship@QtMobility@@QBE_NABV01@@Z @ 756 NONAME ; bool QtMobility::QContactRelationship::operator==(class QtMobility::QContactRelationship const &) const
	?SubTypeTexturedMesh@QContactAvatar@QtMobility@@2U?$Latin1Literal@$0N@@2@B @ 757 NONAME ; struct QtMobility::Latin1Literal<13> const QtMobility::QContactAvatar::SubTypeTexturedMesh
	?since@QContactChangeLogFilter@QtMobility@@QBE?AVQDateTime@@XZ @ 758 NONAME ; class QDateTime QtMobility::QContactChangeLogFilter::since(void) const
	?FieldMiddle@QContactName@QtMobility@@2U?$Latin1Literal@$06@2@B @ 759 NONAME ; struct QtMobility::Latin1Literal<7> const QtMobility::QContactName::FieldMiddle
	?setNickname@QContactNickname@QtMobility@@QAEXABVQString@@@Z @ 760 NONAME ; void QtMobility::QContactNickname::setNickname(class QString const &)
	?d_func@QContactIntersectionFilter@QtMobility@@AAEPAVQContactIntersectionFilterPrivate@2@XZ @ 761 NONAME ; class QtMobility::QContactIntersectionFilterPrivate * QtMobility::QContactIntersectionFilter::d_func(void)
	?d_func@QContactRelationshipFilter@QtMobility@@ABEPBVQContactRelationshipFilterPrivate@2@XZ @ 762 NONAME ; class QtMobility::QContactRelationshipFilterPrivate const * QtMobility::QContactRelationshipFilter::d_func(void) const
	??_EQContactUrl@QtMobility@@UAE@I@Z @ 763 NONAME ; QtMobility::QContactUrl::~QContactUrl(unsigned int)
	?setPreferredActions@QContactDetail@QtMobility@@QAEXABV?$QList@VQContactActionDescriptor@QtMobility@@@@@Z @ 764 NONAME ; void QtMobility::QContactDetail::setPreferredActions(class QList<class QtMobility::QContactActionDescriptor> const &)
	?qt_metacast@QContactFetchRequest@QtMobility@@UAEPAXPBD@Z @ 765 NONAME ; void * QtMobility::QContactFetchRequest::qt_metacast(char const *)
	?relationshipType@QContactRelationship@QtMobility@@QBE?AVQString@@XZ @ 766 NONAME ; class QString QtMobility::QContactRelationship::relationshipType(void) const
	?d_func@QContactActionFilter@QtMobility@@AAEPAVQContactActionFilterPrivate@2@XZ @ 767 NONAME ; class QtMobility::QContactActionFilterPrivate * QtMobility::QContactActionFilter::d_func(void)
	?waitForRequestProgress@QContactManagerEngine@QtMobility@@UAE_NPAVQContactAbstractRequest@2@H@Z @ 768 NONAME ; bool QtMobility::QContactManagerEngine::waitForRequestProgress(class QtMobility::QContactAbstractRequest *, int)
	?variantValue@QContactDetail@QtMobility@@QBE?AVQVariant@@ABVQString@@@Z @ 769 NONAME ; class QVariant QtMobility::QContactDetail::variantValue(class QString const &) const
	?FieldEmailAddress@QContactEmailAddress@QtMobility@@2U?$Latin1Literal@$0N@@2@B @ 770 NONAME ; struct QtMobility::Latin1Literal<13> const QtMobility::QContactEmailAddress::FieldEmailAddress
	?tr@QContactDetailDefinitionFetchRequest@QtMobility@@SA?AVQString@@PBD0@Z @ 771 NONAME ; class QString QtMobility::QContactDetailDefinitionFetchRequest::tr(char const *, char const *)
	?staticMetaObject@QContactManager@QtMobility@@2UQMetaObject@@B @ 772 NONAME ; struct QMetaObject const QtMobility::QContactManager::staticMetaObject
	?qt_metacast@QContactDetailDefinitionSaveRequest@QtMobility@@UAEPAXPBD@Z @ 773 NONAME ; void * QtMobility::QContactDetailDefinitionSaveRequest::qt_metacast(char const *)
	?qt_metacast@QContactManagerEngine@QtMobility@@UAEPAXPBD@Z @ 774 NONAME ; void * QtMobility::QContactManagerEngine::qt_metacast(char const *)
	?implementationVersion@QContactManager@QtMobility@@QBEHXZ @ 775 NONAME ; int QtMobility::QContactManager::implementationVersion(void) const
	??0QContactRelationshipFilter@QtMobility@@QAE@ABVQContactFilter@1@@Z @ 776 NONAME ; QtMobility::QContactRelationshipFilter::QContactRelationshipFilter(class QtMobility::QContactFilter const &)
	?clearDetails@QContact@QtMobility@@QAEXXZ @ 777 NONAME ; void QtMobility::QContact::clearDetails(void)
	?d_func@QContactDetailDefinitionRemoveRequest@QtMobility@@AAEPAVQContactDetailDefinitionRemoveRequestPrivate@2@XZ @ 778 NONAME ; class QtMobility::QContactDetailDefinitionRemoveRequestPrivate * QtMobility::QContactDetailDefinitionRemoveRequest::d_func(void)
	?requestDestroyed@QContactManagerEngine@QtMobility@@UAEXPAVQContactAbstractRequest@2@@Z @ 779 NONAME ; void QtMobility::QContactManagerEngine::requestDestroyed(class QtMobility::QContactAbstractRequest *)
	?trUtf8@QContactAction@QtMobility@@SA?AVQString@@PBD0@Z @ 780 NONAME ; class QString QtMobility::QContactAction::trUtf8(char const *, char const *)
	??0QContactNote@QtMobility@@QAE@ABVQContactDetail@1@@Z @ 781 NONAME ; QtMobility::QContactNote::QContactNote(class QtMobility::QContactDetail const &)
	?filter@QContactRemoveRequest@QtMobility@@QBE?AVQContactFilter@2@XZ @ 782 NONAME ; class QtMobility::QContactFilter QtMobility::QContactRemoveRequest::filter(void) const
	?progress@QContactSaveRequest@QtMobility@@IAEXPAV12@@Z @ 783 NONAME ; void QtMobility::QContactSaveRequest::progress(class QtMobility::QContactSaveRequest *)
	??0QContactFilter@QtMobility@@IAE@PAVQContactFilterPrivate@1@@Z @ 784 NONAME ; QtMobility::QContactFilter::QContactFilter(class QtMobility::QContactFilterPrivate *)
	?prefix@QContactName@QtMobility@@QBE?AVQString@@XZ @ 785 NONAME ; class QString QtMobility::QContactName::prefix(void) const
	?selfContactIdChanged@QContactManager@QtMobility@@IAEXABI0@Z @ 786 NONAME ; void QtMobility::QContactManager::selfContactIdChanged(unsigned int const &, unsigned int const &)
	??0QContactSaveRequest@QtMobility@@QAE@XZ @ 787 NONAME ; QtMobility::QContactSaveRequest::QContactSaveRequest(void)
	?setContactType@QContactDetailDefinitionSaveRequest@QtMobility@@QAEXABVQString@@@Z @ 788 NONAME ; void QtMobility::QContactDetailDefinitionSaveRequest::setContactType(class QString const &)
	?HasMember@QContactRelationship@QtMobility@@2U?$Latin1Literal@$09@2@B @ 789 NONAME ; struct QtMobility::Latin1Literal<10> const QtMobility::QContactRelationship::HasMember
	??_EQContactRelationshipFilter@QtMobility@@UAE@I@Z @ 790 NONAME ; QtMobility::QContactRelationshipFilter::~QContactRelationshipFilter(unsigned int)
	??0QContactFilter@QtMobility@@QAE@XZ @ 791 NONAME ; QtMobility::QContactFilter::QContactFilter(void)
	?participantRole@QContactRelationshipFetchRequest@QtMobility@@QBE?AW4Role@QContactRelationshipFilter@2@XZ @ 792 NONAME ; enum QtMobility::QContactRelationshipFilter::Role QtMobility::QContactRelationshipFetchRequest::participantRole(void) const
	??0QContactUrl@QtMobility@@QAE@XZ @ 793 NONAME ; QtMobility::QContactUrl::QContactUrl(void)
	?qt_metacall@QContactMemoryEngine@QtMobility@@UAEHW4Call@QMetaObject@@HPAPAX@Z @ 794 NONAME ; int QtMobility::QContactMemoryEngine::qt_metacall(enum QMetaObject::Call, int, void * *)
	??9QContactId@QtMobility@@QBE_NABV01@@Z @ 795 NONAME ; bool QtMobility::QContactId::operator!=(class QtMobility::QContactId const &) const
	?setLongitude@QContactGeolocation@QtMobility@@QAEXN@Z @ 796 NONAME ; void QtMobility::QContactGeolocation::setLongitude(double)
	?GenderUnspecified@QContactGender@QtMobility@@2U?$Latin1Literal@$0M@@2@B @ 797 NONAME ; struct QtMobility::Latin1Literal<12> const QtMobility::QContactGender::GenderUnspecified
	??1QContactSyncTarget@QtMobility@@UAE@XZ @ 798 NONAME ; QtMobility::QContactSyncTarget::~QContactSyncTarget(void)
	??1QContactLocalIdFilter@QtMobility@@UAE@XZ @ 799 NONAME ; QtMobility::QContactLocalIdFilter::~QContactLocalIdFilter(void)
	?TypeContact@QContactType@QtMobility@@2U?$Latin1Literal@$07@2@B @ 800 NONAME ; struct QtMobility::Latin1Literal<8> const QtMobility::QContactType::TypeContact
	?dataChanged@QContactManagerEngine@QtMobility@@IAEXXZ @ 801 NONAME ; void QtMobility::QContactManagerEngine::dataChanged(void)
	?saveRelationship@QContactMemoryEngine@QtMobility@@AAE_NPAVQContactRelationship@2@AAVQContactChangeSet@2@AAW4Error@QContactManager@2@@Z @ 802 NONAME ; bool QtMobility::QContactMemoryEngine::saveRelationship(class QtMobility::QContactRelationship *, class QtMobility::QContactChangeSet &, enum QtMobility::QContactManager::Error &)
	??8QContactDetailDefinitionField@QtMobility@@QBE_NABV01@@Z @ 803 NONAME ; bool QtMobility::QContactDetailDefinitionField::operator==(class QtMobility::QContactDetailDefinitionField const &) const
	?getStaticMetaObject@QContactAbstractRequest@QtMobility@@SAABUQMetaObject@@XZ @ 804 NONAME ; struct QMetaObject const & QtMobility::QContactAbstractRequest::getStaticMetaObject(void)
	?qt_metacall@QContactRelationshipRemoveRequest@QtMobility@@UAEHW4Call@QMetaObject@@HPAPAX@Z @ 805 NONAME ; int QtMobility::QContactRelationshipRemoveRequest::qt_metacall(enum QMetaObject::Call, int, void * *)
	??0QContactActionFilter@QtMobility@@QAE@ABVQContactFilter@1@@Z @ 806 NONAME ; QtMobility::QContactActionFilter::QContactActionFilter(class QtMobility::QContactFilter const &)
	??1QContactDisplayLabel@QtMobility@@UAE@XZ @ 807 NONAME ; QtMobility::QContactDisplayLabel::~QContactDisplayLabel(void)
	??0QContactDetailDefinitionField@QtMobility@@QAE@ABV01@@Z @ 808 NONAME ; QtMobility::QContactDetailDefinitionField::QContactDetailDefinitionField(class QtMobility::QContactDetailDefinitionField const &)
	?value@QContactDetail@QtMobility@@QBE?AVQString@@ABV3@@Z @ 809 NONAME ; class QString QtMobility::QContactDetail::value(class QString const &) const
	?DefinitionName@QContactBirthday@QtMobility@@2U?$Latin1Literal@$08@2@B @ 810 NONAME ; struct QtMobility::Latin1Literal<9> const QtMobility::QContactBirthday::DefinitionName
	?setRelationshipOrder@QContact@QtMobility@@QAEXABV?$QList@VQContactRelationship@QtMobility@@@@@Z @ 811 NONAME ; void QtMobility::QContact::setRelationshipOrder(class QList<class QtMobility::QContactRelationship> const &)
	?relationships@QContact@QtMobility@@QBE?AV?$QList@VQContactRelationship@QtMobility@@@@ABVQString@@@Z @ 812 NONAME ; class QList<class QtMobility::QContactRelationship> QtMobility::QContact::relationships(class QString const &) const
	?assistantName@QContactOrganization@QtMobility@@QBE?AVQString@@XZ @ 813 NONAME ; class QString QtMobility::QContactOrganization::assistantName(void) const
	?trUtf8@QContactFetchRequest@QtMobility@@SA?AVQString@@PBD0H@Z @ 814 NONAME ; class QString QtMobility::QContactFetchRequest::trUtf8(char const *, char const *, int)
	??1QContactActionFactory@QtMobility@@UAE@XZ @ 815 NONAME ; QtMobility::QContactActionFactory::~QContactActionFactory(void)
	?append@QContactIntersectionFilter@QtMobility@@QAEXABVQContactFilter@2@@Z @ 816 NONAME ; void QtMobility::QContactIntersectionFilter::append(class QtMobility::QContactFilter const &)
	??1QContactEmailAddress@QtMobility@@UAE@XZ @ 817 NONAME ; QtMobility::QContactEmailAddress::~QContactEmailAddress(void)
	?definitionRestrictions@QContactFetchRequest@QtMobility@@QBE?AVQStringList@@XZ @ 818 NONAME ; class QStringList QtMobility::QContactFetchRequest::definitionRestrictions(void) const
	?setType@QContactType@QtMobility@@QAEXABVQString@@@Z @ 819 NONAME ; void QtMobility::QContactType::setType(class QString const &)
	?FieldDepartment@QContactOrganization@QtMobility@@2U?$Latin1Literal@$0L@@2@B @ 820 NONAME ; struct QtMobility::Latin1Literal<11> const QtMobility::QContactOrganization::FieldDepartment
	?relationshipType@QContactRelationshipFilter@QtMobility@@QBE?AVQString@@XZ @ 821 NONAME ; class QString QtMobility::QContactRelationshipFilter::relationshipType(void) const
	?buildUri@QContactManager@QtMobility@@SA?AVQString@@ABV3@ABV?$QMap@VQString@@V1@@@H@Z @ 822 NONAME ; class QString QtMobility::QContactManager::buildUri(class QString const &, class QMap<class QString, class QString> const &, int)
	??_EQContactManager@QtMobility@@UAE@I@Z @ 823 NONAME ; QtMobility::QContactManager::~QContactManager(unsigned int)
	??4QContactFamily@QtMobility@@QAEAAV01@ABVQContactDetail@1@@Z @ 824 NONAME ; class QtMobility::QContactFamily & QtMobility::QContactFamily::operator=(class QtMobility::QContactDetail const &)
	?trUtf8@QContactRelationshipSaveRequest@QtMobility@@SA?AVQString@@PBD0H@Z @ 825 NONAME ; class QString QtMobility::QContactRelationshipSaveRequest::trUtf8(char const *, char const *, int)
	?qt_metacast@QContactRelationshipSaveRequest@QtMobility@@UAEPAXPBD@Z @ 826 NONAME ; void * QtMobility::QContactRelationshipSaveRequest::qt_metacast(char const *)
	?setOriginalDate@QContactAnniversary@QtMobility@@QAEXABVQDate@@@Z @ 827 NONAME ; void QtMobility::QContactAnniversary::setOriginalDate(class QDate const &)
	?DefinitionName@QContactEmailAddress@QtMobility@@2U?$Latin1Literal@$0N@@2@B @ 828 NONAME ; struct QtMobility::Latin1Literal<13> const QtMobility::QContactEmailAddress::DefinitionName
	?altitude@QContactGeolocation@QtMobility@@QBENXZ @ 829 NONAME ; double QtMobility::QContactGeolocation::altitude(void) const
	??0QContactDetailFilter@QtMobility@@QAE@XZ @ 830 NONAME ; QtMobility::QContactDetailFilter::QContactDetailFilter(void)
	?d_func@QContactDetailFilter@QtMobility@@ABEPBVQContactDetailFilterPrivate@2@XZ @ 831 NONAME ; class QtMobility::QContactDetailFilterPrivate const * QtMobility::QContactDetailFilter::d_func(void) const
	?setFilters@QContactIntersectionFilter@QtMobility@@QAEXABV?$QList@VQContactFilter@QtMobility@@@@@Z @ 832 NONAME ; void QtMobility::QContactIntersectionFilter::setFilters(class QList<class QtMobility::QContactFilter> const &)
	?progress@QContactRemoveRequest@QtMobility@@IAEXPAV12@@Z @ 833 NONAME ; void QtMobility::QContactRemoveRequest::progress(class QtMobility::QContactRemoveRequest *)
	??1QContactSaveRequest@QtMobility@@UAE@XZ @ 834 NONAME ; QtMobility::QContactSaveRequest::~QContactSaveRequest(void)
	?contactsAdded@QContactManagerEngine@QtMobility@@IAEXABV?$QList@I@@@Z @ 835 NONAME ; void QtMobility::QContactManagerEngine::contactsAdded(class QList<unsigned int> const &)
	?DefinitionName@QContactGender@QtMobility@@2U?$Latin1Literal@$06@2@B @ 836 NONAME ; struct QtMobility::Latin1Literal<7> const QtMobility::QContactGender::DefinitionName
	?trUtf8@QContactAbstractRequest@QtMobility@@SA?AVQString@@PBD0@Z @ 837 NONAME ; class QString QtMobility::QContactAbstractRequest::trUtf8(char const *, char const *)
	?FieldAccuracy@QContactGeolocation@QtMobility@@2U?$Latin1Literal@$08@2@B @ 838 NONAME ; struct QtMobility::Latin1Literal<9> const QtMobility::QContactGeolocation::FieldAccuracy
	?filter@QContactFetchRequest@QtMobility@@QBE?AVQContactFilter@2@XZ @ 839 NONAME ; class QtMobility::QContactFilter QtMobility::QContactFetchRequest::filter(void) const
	?tr@QContactManager@QtMobility@@SA?AVQString@@PBD0@Z @ 840 NONAME ; class QString QtMobility::QContactManager::tr(char const *, char const *)
	?staticMetaObject@QContactRelationshipRemoveRequest@QtMobility@@2UQMetaObject@@B @ 841 NONAME ; struct QMetaObject const QtMobility::QContactRelationshipRemoveRequest::staticMetaObject
	?tr@QContactRelationshipFetchRequest@QtMobility@@SA?AVQString@@PBD0@Z @ 842 NONAME ; class QString QtMobility::QContactRelationshipFetchRequest::tr(char const *, char const *)
	??1QContactSortOrder@QtMobility@@QAE@XZ @ 843 NONAME ; QtMobility::QContactSortOrder::~QContactSortOrder(void)
	??0QContactAbstractRequest@QtMobility@@QAE@XZ @ 844 NONAME ; QtMobility::QContactAbstractRequest::QContactAbstractRequest(void)
	?setRelationshipType@QContactRelationshipFetchRequest@QtMobility@@QAEXABVQString@@@Z @ 845 NONAME ; void QtMobility::QContactRelationshipFetchRequest::setRelationshipType(class QString const &)
	?setSubTypes@QContactAddress@QtMobility@@QAEXABVQStringList@@@Z @ 846 NONAME ; void QtMobility::QContactAddress::setSubTypes(class QStringList const &)
	?saveDetailDefinition@QContactMemoryEngine@QtMobility@@AAE_NABVQContactDetailDefinition@2@ABVQString@@AAVQContactChangeSet@2@AAW4Error@QContactManager@2@@Z @ 847 NONAME ; bool QtMobility::QContactMemoryEngine::saveDetailDefinition(class QtMobility::QContactDetailDefinition const &, class QString const &, class QtMobility::QContactChangeSet &, enum QtMobility::QContactManager::Error &)
	?subType@QContactUrl@QtMobility@@QBE?AVQString@@XZ @ 848 NONAME ; class QString QtMobility::QContactUrl::subType(void) const
	?saveContact@QContactMemoryEngine@QtMobility@@AAE_NPAVQContact@2@AAVQContactChangeSet@2@AAW4Error@QContactManager@2@@Z @ 849 NONAME ; bool QtMobility::QContactMemoryEngine::saveContact(class QtMobility::QContact *, class QtMobility::QContactChangeSet &, enum QtMobility::QContactManager::Error &)
	??1QContactManagerEngine@QtMobility@@UAE@XZ @ 850 NONAME ; QtMobility::QContactManagerEngine::~QContactManagerEngine(void)
	??0QContactGuid@QtMobility@@QAE@ABVQContactDetail@1@@Z @ 851 NONAME ; QtMobility::QContactGuid::QContactGuid(class QtMobility::QContactDetail const &)
	??0QContactSyncTarget@QtMobility@@QAE@XZ @ 852 NONAME ; QtMobility::QContactSyncTarget::QContactSyncTarget(void)
	?qt_metacall@QContactDetailDefinitionSaveRequest@QtMobility@@UAEHW4Call@QMetaObject@@HPAPAX@Z @ 853 NONAME ; int QtMobility::QContactDetailDefinitionSaveRequest::qt_metacall(enum QMetaObject::Call, int, void * *)
	?staticMetaObject@QContactLocalIdFetchRequest@QtMobility@@2UQMetaObject@@B @ 854 NONAME ; struct QMetaObject const QtMobility::QContactLocalIdFetchRequest::staticMetaObject
	?implementationVersion@QContactManagerEngine@QtMobility@@UBEHXZ @ 855 NONAME ; int QtMobility::QContactManagerEngine::implementationVersion(void) const
	??4QContactAddress@QtMobility@@QAEAAV01@ABVQContactDetail@1@@Z @ 856 NONAME ; class QtMobility::QContactAddress & QtMobility::QContactAddress::operator=(class QtMobility::QContactDetail const &)
	?contactType@QContactDetailDefinitionSaveRequest@QtMobility@@QBE?AVQString@@XZ @ 857 NONAME ; class QString QtMobility::QContactDetailDefinitionSaveRequest::contactType(void) const
	??0QContactRelationshipFilter@QtMobility@@QAE@XZ @ 858 NONAME ; QtMobility::QContactRelationshipFilter::QContactRelationshipFilter(void)
	?FieldStatusMessage@QContactOnlineAccount@QtMobility@@2U?$Latin1Literal@$0O@@2@B @ 859 NONAME ; struct QtMobility::Latin1Literal<14> const QtMobility::QContactOnlineAccount::FieldStatusMessage
	??0QContactBirthday@QtMobility@@QAE@ABVQContactDetail@1@@Z @ 860 NONAME ; QtMobility::QContactBirthday::QContactBirthday(class QtMobility::QContactDetail const &)
	?SubTypeEmployment@QContactAnniversary@QtMobility@@2U?$Latin1Literal@$0L@@2@B @ 861 NONAME ; struct QtMobility::Latin1Literal<11> const QtMobility::QContactAnniversary::SubTypeEmployment
	??0QContactDetailDefinitionFetchRequest@QtMobility@@QAE@XZ @ 862 NONAME ; QtMobility::QContactDetailDefinitionFetchRequest::QContactDetailDefinitionFetchRequest(void)
	?SubTypeVideo@QContactAvatar@QtMobility@@2U?$Latin1Literal@$05@2@B @ 863 NONAME ; struct QtMobility::Latin1Literal<6> const QtMobility::QContactAvatar::SubTypeVideo
	?SubTypeDtmfMenu@QContactPhoneNumber@QtMobility@@2U?$Latin1Literal@$08@2@B @ 864 NONAME ; struct QtMobility::Latin1Literal<9> const QtMobility::QContactPhoneNumber::SubTypeDtmfMenu
	?SubTypeEngagement@QContactAnniversary@QtMobility@@2U?$Latin1Literal@$0L@@2@B @ 865 NONAME ; struct QtMobility::Latin1Literal<11> const QtMobility::QContactAnniversary::SubTypeEngagement
	??8QContact@QtMobility@@QBE_NABV01@@Z @ 866 NONAME ; bool QtMobility::QContact::operator==(class QtMobility::QContact const &) const
	?trUtf8@QContactMemoryEngine@QtMobility@@SA?AVQString@@PBD0@Z @ 867 NONAME ; class QString QtMobility::QContactMemoryEngine::trUtf8(char const *, char const *)
	??0QContactChangeLogFilter@QtMobility@@QAE@ABVQContactFilter@1@@Z @ 868 NONAME ; QtMobility::QContactChangeLogFilter::QContactChangeLogFilter(class QtMobility::QContactFilter const &)
	??0QContactRelationshipSaveRequest@QtMobility@@QAE@XZ @ 869 NONAME ; QtMobility::QContactRelationshipSaveRequest::QContactRelationshipSaveRequest(void)
	?removeDetailDefinition@QContactMemoryEngine@QtMobility@@AAE_NABVQString@@0AAVQContactChangeSet@2@AAW4Error@QContactManager@2@@Z @ 870 NONAME ; bool QtMobility::QContactMemoryEngine::removeDetailDefinition(class QString const &, class QString const &, class QtMobility::QContactChangeSet &, enum QtMobility::QContactManager::Error &)
	?relationships@QContactMemoryEngine@QtMobility@@UBE?AV?$QList@VQContactRelationship@QtMobility@@@@ABVQString@@ABVQContactId@2@W4Role@QContactRelationshipFilter@2@AAW4Error@QContactManager@2@@Z @ 871 NONAME ; class QList<class QtMobility::QContactRelationship> QtMobility::QContactMemoryEngine::relationships(class QString const &, class QtMobility::QContactId const &, enum QtMobility::QContactRelationshipFilter::Role, enum QtMobility::QContactManager::Error &) const
	?contactsChanged@QContactManagerEngine@QtMobility@@IAEXABV?$QList@I@@@Z @ 872 NONAME ; void QtMobility::QContactManagerEngine::contactsChanged(class QList<unsigned int> const &)
	?setDataType@QContactDetailDefinitionField@QtMobility@@QAEXW4Type@QVariant@@@Z @ 873 NONAME ; void QtMobility::QContactDetailDefinitionField::setDataType(enum QVariant::Type)
	?setDepartment@QContactOrganization@QtMobility@@QAEXABVQStringList@@@Z @ 874 NONAME ; void QtMobility::QContactOrganization::setDepartment(class QStringList const &)
	?tr@QContactManagerEngine@QtMobility@@SA?AVQString@@PBD0H@Z @ 875 NONAME ; class QString QtMobility::QContactManagerEngine::tr(char const *, char const *, int)
	?contactsRemoved@QContactManager@QtMobility@@IAEXABV?$QList@I@@@Z @ 876 NONAME ; void QtMobility::QContactManager::contactsRemoved(class QList<unsigned int> const &)
	?contactType@QContactDetailDefinitionRemoveRequest@QtMobility@@QBE?AVQString@@XZ @ 877 NONAME ; class QString QtMobility::QContactDetailDefinitionRemoveRequest::contactType(void) const
	??0QContactLocalIdFetchRequest@QtMobility@@QAE@XZ @ 878 NONAME ; QtMobility::QContactLocalIdFetchRequest::QContactLocalIdFetchRequest(void)
	??1QContactOrganization@QtMobility@@UAE@XZ @ 879 NONAME ; QtMobility::QContactOrganization::~QContactOrganization(void)
	?FieldPostOfficeBox@QContactAddress@QtMobility@@2U?$Latin1Literal@$0O@@2@B @ 880 NONAME ; struct QtMobility::Latin1Literal<14> const QtMobility::QContactAddress::FieldPostOfficeBox
	?metaObject@QContactRemoveRequest@QtMobility@@UBEPBUQMetaObject@@XZ @ 881 NONAME ; struct QMetaObject const * QtMobility::QContactRemoveRequest::metaObject(void) const
	?error@QContactAbstractRequest@QtMobility@@QBE?AW4Error@QContactManager@2@XZ @ 882 NONAME ; enum QtMobility::QContactManager::Error QtMobility::QContactAbstractRequest::error(void) const
	?supportedRelationshipTypes@QContactManager@QtMobility@@QBE?AVQStringList@@ABVQString@@@Z @ 883 NONAME ; class QStringList QtMobility::QContactManager::supportedRelationshipTypes(class QString const &) const
	?error@QContactManager@QtMobility@@QBE?AW4Error@12@XZ @ 884 NONAME ; enum QtMobility::QContactManager::Error QtMobility::QContactManager::error(void) const
	??0QContactRelationshipRemoveRequest@QtMobility@@QAE@XZ @ 885 NONAME ; QtMobility::QContactRelationshipRemoveRequest::QContactRelationshipRemoveRequest(void)
	?setSorting@QContactLocalIdFetchRequest@QtMobility@@QAEXABV?$QList@VQContactSortOrder@QtMobility@@@@@Z @ 886 NONAME ; void QtMobility::QContactLocalIdFetchRequest::setSorting(class QList<class QtMobility::QContactSortOrder> const &)
	??_EQContactEmailAddress@QtMobility@@UAE@I@Z @ 887 NONAME ; QtMobility::QContactEmailAddress::~QContactEmailAddress(unsigned int)
	?trUtf8@QContactAction@QtMobility@@SA?AVQString@@PBD0H@Z @ 888 NONAME ; class QString QtMobility::QContactAction::trUtf8(char const *, char const *, int)
	?startRequest@QContactManagerEngine@QtMobility@@UAE_NPAVQContactAbstractRequest@2@@Z @ 889 NONAME ; bool QtMobility::QContactManagerEngine::startRequest(class QtMobility::QContactAbstractRequest *)
	?setNumber@QContactPhoneNumber@QtMobility@@QAEXABVQString@@@Z @ 890 NONAME ; void QtMobility::QContactPhoneNumber::setNumber(class QString const &)
	?progress@QContactRelationshipFetchRequest@QtMobility@@IAEXPAV12@_N@Z @ 891 NONAME ; void QtMobility::QContactRelationshipFetchRequest::progress(class QtMobility::QContactRelationshipFetchRequest *, bool)
	?otherParticipantId@QContactRelationshipFilter@QtMobility@@QBE?AVQContactId@2@XZ @ 892 NONAME ; class QtMobility::QContactId QtMobility::QContactRelationshipFilter::otherParticipantId(void) const
	?tr@QContactDetailDefinitionSaveRequest@QtMobility@@SA?AVQString@@PBD0H@Z @ 893 NONAME ; class QString QtMobility::QContactDetailDefinitionSaveRequest::tr(char const *, char const *, int)
	?detail@QContact@QtMobility@@QBE?AVQContactDetail@2@ABVQString@@@Z @ 894 NONAME ; class QtMobility::QContactDetail QtMobility::QContact::detail(class QString const &) const
	??_EQContactDetailDefinitionFetchRequest@QtMobility@@UAE@I@Z @ 895 NONAME ; QtMobility::QContactDetailDefinitionFetchRequest::~QContactDetailDefinitionFetchRequest(unsigned int)
	??4QContactDetailDefinition@QtMobility@@QAEAAV01@ABV01@@Z @ 896 NONAME ; class QtMobility::QContactDetailDefinition & QtMobility::QContactDetailDefinition::operator=(class QtMobility::QContactDetailDefinition const &)
	??1QContactTimestamp@QtMobility@@UAE@XZ @ 897 NONAME ; QtMobility::QContactTimestamp::~QContactTimestamp(void)
	?qt_metacall@QContactManagerEngine@QtMobility@@UAEHW4Call@QMetaObject@@HPAPAX@Z @ 898 NONAME ; int QtMobility::QContactManagerEngine::qt_metacall(enum QMetaObject::Call, int, void * *)
	??9QContactDetailDefinitionField@QtMobility@@QBE_NABV01@@Z @ 899 NONAME ; bool QtMobility::QContactDetailDefinitionField::operator!=(class QtMobility::QContactDetailDefinitionField const &) const
	?managerName@QContactMemoryEngine@QtMobility@@UBE?AVQString@@XZ @ 900 NONAME ; class QString QtMobility::QContactMemoryEngine::managerName(void) const
	??1QContactActionDescriptor@QtMobility@@QAE@XZ @ 901 NONAME ; QtMobility::QContactActionDescriptor::~QContactActionDescriptor(void)
	??1QContactDetailDefinitionFetchRequest@QtMobility@@UAE@XZ @ 902 NONAME ; QtMobility::QContactDetailDefinitionFetchRequest::~QContactDetailDefinitionFetchRequest(void)
	?setAssistantName@QContactOrganization@QtMobility@@QAEXABVQString@@@Z @ 903 NONAME ; void QtMobility::QContactOrganization::setAssistantName(class QString const &)
	?staticMetaObject@QContactManagerEngine@QtMobility@@2UQMetaObject@@B @ 904 NONAME ; struct QMetaObject const QtMobility::QContactManagerEngine::staticMetaObject
	?values@QContactDetail@QtMobility@@QBE?AV?$QMap@VQString@@VQVariant@@@@XZ @ 905 NONAME ; class QMap<class QString, class QVariant> QtMobility::QContactDetail::values(void) const
	??0QContactIntersectionFilter@QtMobility@@QAE@XZ @ 906 NONAME ; QtMobility::QContactIntersectionFilter::QContactIntersectionFilter(void)
	??_EQContactActionFilter@QtMobility@@UAE@I@Z @ 907 NONAME ; QtMobility::QContactActionFilter::~QContactActionFilter(unsigned int)
	?SubTypeHouse@QContactAnniversary@QtMobility@@2U?$Latin1Literal@$05@2@B @ 908 NONAME ; struct QtMobility::Latin1Literal<6> const QtMobility::QContactAnniversary::SubTypeHouse
	?progress@QContactLocalIdFetchRequest@QtMobility@@IAEXPAV12@_N@Z @ 909 NONAME ; void QtMobility::QContactLocalIdFetchRequest::progress(class QtMobility::QContactLocalIdFetchRequest *, bool)
	?qt_metacall@QContactRemoveRequest@QtMobility@@UAEHW4Call@QMetaObject@@HPAPAX@Z @ 910 NONAME ; int QtMobility::QContactRemoveRequest::qt_metacall(enum QMetaObject::Call, int, void * *)
	??_EQContactActionFactory@QtMobility@@UAE@I@Z @ 911 NONAME ; QtMobility::QContactActionFactory::~QContactActionFactory(unsigned int)
	?FieldRegion@QContactAddress@QtMobility@@2U?$Latin1Literal@$06@2@B @ 912 NONAME ; struct QtMobility::Latin1Literal<7> const QtMobility::QContactAddress::FieldRegion
	?detailWithAction@QContact@QtMobility@@QBE?AVQContactDetail@2@ABVQString@@@Z @ 913 NONAME ; class QtMobility::QContactDetail QtMobility::QContact::detailWithAction(class QString const &) const
	?details@QContact@QtMobility@@QBE?AV?$QList@VQContactDetail@QtMobility@@@@ABVQString@@@Z @ 914 NONAME ; class QList<class QtMobility::QContactDetail> QtMobility::QContact::details(class QString const &) const
	?d_func@QContactDetailDefinitionSaveRequest@QtMobility@@AAEPAVQContactDetailDefinitionSaveRequestPrivate@2@XZ @ 915 NONAME ; class QtMobility::QContactDetailDefinitionSaveRequestPrivate * QtMobility::QContactDetailDefinitionSaveRequest::d_func(void)
	?removeDetailDefinition@QContactMemoryEngine@QtMobility@@UAE_NABVQString@@0AAW4Error@QContactManager@2@@Z @ 916 NONAME ; bool QtMobility::QContactMemoryEngine::removeDetailDefinition(class QString const &, class QString const &, enum QtMobility::QContactManager::Error &)
	??BQContactSortOrder@QtMobility@@QBE?AV?$QList@VQContactSortOrder@QtMobility@@@@XZ @ 917 NONAME ; QtMobility::QContactSortOrder::operator class QList<class QtMobility::QContactSortOrder>(void) const
	?qt_metacast@QContactDetailDefinitionRemoveRequest@QtMobility@@UAEPAXPBD@Z @ 918 NONAME ; void * QtMobility::QContactDetailDefinitionRemoveRequest::qt_metacast(char const *)
	??0QContactUnionFilter@QtMobility@@QAE@ABVQContactFilter@1@@Z @ 919 NONAME ; QtMobility::QContactUnionFilter::QContactUnionFilter(class QtMobility::QContactFilter const &)
	?d_func@QContactDetailDefinitionFetchRequest@QtMobility@@ABEPBVQContactDetailDefinitionFetchRequestPrivate@2@XZ @ 920 NONAME ; class QtMobility::QContactDetailDefinitionFetchRequestPrivate const * QtMobility::QContactDetailDefinitionFetchRequest::d_func(void) const
	?SubTypeImage@QContactAvatar@QtMobility@@2U?$Latin1Literal@$05@2@B @ 921 NONAME ; struct QtMobility::Latin1Literal<6> const QtMobility::QContactAvatar::SubTypeImage
	??1QContactNote@QtMobility@@UAE@XZ @ 922 NONAME ; QtMobility::QContactNote::~QContactNote(void)
	?setMatchFlags@QContactDetailFilter@QtMobility@@QAEXV?$QFlags@W4MatchFlag@QContactFilter@QtMobility@@@@@Z @ 923 NONAME ; void QtMobility::QContactDetailFilter::setMatchFlags(class QFlags<enum QtMobility::QContactFilter::MatchFlag>)
	?setParticipant@QContactRelationshipFetchRequest@QtMobility@@QAEXABVQContactId@2@W4Role@QContactRelationshipFilter@2@@Z @ 924 NONAME ; void QtMobility::QContactRelationshipFetchRequest::setParticipant(class QtMobility::QContactId const &, enum QtMobility::QContactRelationshipFilter::Role)
	??8QContactActionDescriptor@QtMobility@@QBE_NABV01@@Z @ 925 NONAME ; bool QtMobility::QContactActionDescriptor::operator==(class QtMobility::QContactActionDescriptor const &) const
	??_EQContactDetailDefinitionSaveRequest@QtMobility@@UAE@I@Z @ 926 NONAME ; QtMobility::QContactDetailDefinitionSaveRequest::~QContactDetailDefinitionSaveRequest(unsigned int)
	?region@QContactAddress@QtMobility@@QBE?AVQString@@XZ @ 927 NONAME ; class QString QtMobility::QContactAddress::region(void) const
	?setVendorName@QContactActionDescriptor@QtMobility@@QAEXABVQString@@@Z @ 928 NONAME ; void QtMobility::QContactActionDescriptor::setVendorName(class QString const &)
	?setSubTypes@QContactPhoneNumber@QtMobility@@QAEXABVQString@@@Z @ 929 NONAME ; void QtMobility::QContactPhoneNumber::setSubTypes(class QString const &)
	?saveRelationship@QContactMemoryEngine@QtMobility@@UAE_NPAVQContactRelationship@2@AAW4Error@QContactManager@2@@Z @ 930 NONAME ; bool QtMobility::QContactMemoryEngine::saveRelationship(class QtMobility::QContactRelationship *, enum QtMobility::QContactManager::Error &)
	??0QContactRelationship@QtMobility@@QAE@XZ @ 931 NONAME ; QtMobility::QContactRelationship::QContactRelationship(void)
	??0QContactGender@QtMobility@@QAE@ABVQContactDetail@1@@Z @ 932 NONAME ; QtMobility::QContactGender::QContactGender(class QtMobility::QContactDetail const &)
	?FieldSubTypes@QContactAddress@QtMobility@@2U?$Latin1Literal@$08@2@B @ 933 NONAME ; struct QtMobility::Latin1Literal<9> const QtMobility::QContactAddress::FieldSubTypes
	?d_func@QContactRelationshipFilter@QtMobility@@AAEPAVQContactRelationshipFilterPrivate@2@XZ @ 934 NONAME ; class QtMobility::QContactRelationshipFilterPrivate * QtMobility::QContactRelationshipFilter::d_func(void)
	?staticMetaObject@QContactMemoryEngine@QtMobility@@2UQMetaObject@@B @ 935 NONAME ; struct QMetaObject const QtMobility::QContactMemoryEngine::staticMetaObject
	?tr@QContactFetchRequest@QtMobility@@SA?AVQString@@PBD0H@Z @ 936 NONAME ; class QString QtMobility::QContactFetchRequest::tr(char const *, char const *, int)
	?managerUri@QContactId@QtMobility@@QBE?AVQString@@XZ @ 937 NONAME ; class QString QtMobility::QContactId::managerUri(void) const
	?setNote@QContactNote@QtMobility@@QAEXABVQString@@@Z @ 938 NONAME ; void QtMobility::QContactNote::setNote(class QString const &)
	?d_func@QContactRelationshipRemoveRequest@QtMobility@@ABEPBVQContactRelationshipRemoveRequestPrivate@2@XZ @ 939 NONAME ; class QtMobility::QContactRelationshipRemoveRequestPrivate const * QtMobility::QContactRelationshipRemoveRequest::d_func(void) const
	??1QContactGender@QtMobility@@UAE@XZ @ 940 NONAME ; QtMobility::QContactGender::~QContactGender(void)
	?setChildren@QContactFamily@QtMobility@@QAEXABVQStringList@@@Z @ 941 NONAME ; void QtMobility::QContactFamily::setChildren(class QStringList const &)
	?FieldAssistantName@QContactOrganization@QtMobility@@2U?$Latin1Literal@$0O@@2@B @ 942 NONAME ; struct QtMobility::Latin1Literal<14> const QtMobility::QContactOrganization::FieldAssistantName
	?dataType@QContactDetailDefinitionField@QtMobility@@QBE?AW4Type@QVariant@@XZ @ 943 NONAME ; enum QVariant::Type QtMobility::QContactDetailDefinitionField::dataType(void) const
	??0QContactMemoryEngine@QtMobility@@IAE@ABV?$QMap@VQString@@V1@@@@Z @ 944 NONAME ; QtMobility::QContactMemoryEngine::QContactMemoryEngine(class QMap<class QString, class QString> const &)
	?SubTypeAssistant@QContactPhoneNumber@QtMobility@@2U?$Latin1Literal@$09@2@B @ 945 NONAME ; struct QtMobility::Latin1Literal<10> const QtMobility::QContactPhoneNumber::SubTypeAssistant
	?FieldEvent@QContactAnniversary@QtMobility@@2U?$Latin1Literal@$05@2@B @ 946 NONAME ; struct QtMobility::Latin1Literal<6> const QtMobility::QContactAnniversary::FieldEvent
	??0QContactSyncTarget@QtMobility@@QAE@ABVQContactDetail@1@@Z @ 947 NONAME ; QtMobility::QContactSyncTarget::QContactSyncTarget(class QtMobility::QContactDetail const &)
	?selfContactId@QContactMemoryEngine@QtMobility@@UBEIAAW4Error@QContactManager@2@@Z @ 948 NONAME ; unsigned int QtMobility::QContactMemoryEngine::selfContactId(enum QtMobility::QContactManager::Error &) const
	?longitude@QContactGeolocation@QtMobility@@QBENXZ @ 949 NONAME ; double QtMobility::QContactGeolocation::longitude(void) const
	?setLocality@QContactAddress@QtMobility@@QAEXABVQString@@@Z @ 950 NONAME ; void QtMobility::QContactAddress::setLocality(class QString const &)
	?accuracy@QContactGeolocation@QtMobility@@QBENXZ @ 951 NONAME ; double QtMobility::QContactGeolocation::accuracy(void) const
	?removeRelationship@QContactMemoryEngine@QtMobility@@AAE_NABVQContactRelationship@2@AAVQContactChangeSet@2@AAW4Error@QContactManager@2@@Z @ 952 NONAME ; bool QtMobility::QContactMemoryEngine::removeRelationship(class QtMobility::QContactRelationship const &, class QtMobility::QContactChangeSet &, enum QtMobility::QContactManager::Error &)
	??6QContactUnionFilter@QtMobility@@QAEAAV01@ABVQContactFilter@1@@Z @ 953 NONAME ; class QtMobility::QContactUnionFilter & QtMobility::QContactUnionFilter::operator<<(class QtMobility::QContactFilter const &)
	?removeContact@QContactManager@QtMobility@@QAE_NABI@Z @ 954 NONAME ; bool QtMobility::QContactManager::removeContact(unsigned int const &)
	?tr@QContactRelationshipSaveRequest@QtMobility@@SA?AVQString@@PBD0H@Z @ 955 NONAME ; class QString QtMobility::QContactRelationshipSaveRequest::tr(char const *, char const *, int)
	??1QContactId@QtMobility@@QAE@XZ @ 956 NONAME ; QtMobility::QContactId::~QContactId(void)
	?getStaticMetaObject@QContactFetchRequest@QtMobility@@SAABUQMetaObject@@XZ @ 957 NONAME ; struct QMetaObject const & QtMobility::QContactFetchRequest::getStaticMetaObject(void)
	?detailDefinitions@QContactManager@QtMobility@@QBE?AV?$QMap@VQString@@VQContactDetailDefinition@QtMobility@@@@ABVQString@@@Z @ 958 NONAME ; class QMap<class QString, class QtMobility::QContactDetailDefinition> QtMobility::QContactManager::detailDefinitions(class QString const &) const
	?type@QContact@QtMobility@@QBE?AVQString@@XZ @ 959 NONAME ; class QString QtMobility::QContact::type(void) const
	?sorting@QContactFetchRequest@QtMobility@@QBE?AV?$QList@VQContactSortOrder@QtMobility@@@@XZ @ 960 NONAME ; class QList<class QtMobility::QContactSortOrder> QtMobility::QContactFetchRequest::sorting(void) const
	?setDate@QContactBirthday@QtMobility@@QAEXABVQDate@@@Z @ 961 NONAME ; void QtMobility::QContactBirthday::setDate(class QDate const &)
	?staticMetaObject@QContactAbstractRequest@QtMobility@@2UQMetaObject@@B @ 962 NONAME ; struct QMetaObject const QtMobility::QContactAbstractRequest::staticMetaObject
	?removeDetailDefinition@QContactManagerEngine@QtMobility@@UAE_NABVQString@@0AAW4Error@QContactManager@2@@Z @ 963 NONAME ; bool QtMobility::QContactManagerEngine::removeDetailDefinition(class QString const &, class QString const &, enum QtMobility::QContactManager::Error &)
	?vendorName@QContactActionDescriptor@QtMobility@@QBE?AVQString@@XZ @ 964 NONAME ; class QString QtMobility::QContactActionDescriptor::vendorName(void) const
	??1QContactDetailRangeFilter@QtMobility@@UAE@XZ @ 965 NONAME ; QtMobility::QContactDetailRangeFilter::~QContactDetailRangeFilter(void)
	?FieldUrl@QContactUrl@QtMobility@@2U?$Latin1Literal@$03@2@B @ 966 NONAME ; struct QtMobility::Latin1Literal<4> const QtMobility::QContactUrl::FieldUrl
	??0QContactDetailDefinitionSaveRequest@QtMobility@@QAE@XZ @ 967 NONAME ; QtMobility::QContactDetailDefinitionSaveRequest::QContactDetailDefinitionSaveRequest(void)
	?isPreferredDetail@QContact@QtMobility@@QBE_NABVQString@@ABVQContactDetail@2@@Z @ 968 NONAME ; bool QtMobility::QContact::isPreferredDetail(class QString const &, class QtMobility::QContactDetail const &) const
	??1QContactAvatar@QtMobility@@UAE@XZ @ 969 NONAME ; QtMobility::QContactAvatar::~QContactAvatar(void)
	?clear@QContactChangeSet@QtMobility@@QAEXXZ @ 970 NONAME ; void QtMobility::QContactChangeSet::clear(void)
	?isEmpty@QContact@QtMobility@@QBE_NXZ @ 971 NONAME ; bool QtMobility::QContact::isEmpty(void) const
	?implementationVersion@QContactMemoryEngine@QtMobility@@UBEHXZ @ 972 NONAME ; int QtMobility::QContactMemoryEngine::implementationVersion(void) const
	?FieldSubTypes@QContactOnlineAccount@QtMobility@@2U?$Latin1Literal@$08@2@B @ 973 NONAME ; struct QtMobility::Latin1Literal<9> const QtMobility::QContactOnlineAccount::FieldSubTypes
	?FieldNote@QContactNote@QtMobility@@2U?$Latin1Literal@$04@2@B @ 974 NONAME ; struct QtMobility::Latin1Literal<5> const QtMobility::QContactNote::FieldNote
	?version@QContactManagerEngine@QtMobility@@SAHXZ @ 975 NONAME ; int QtMobility::QContactManagerEngine::version(void)
	??0QContactType@QtMobility@@QAE@ABVQContactDetail@1@@Z @ 976 NONAME ; QtMobility::QContactType::QContactType(class QtMobility::QContactDetail const &)
	??1QContactAction@QtMobility@@UAE@XZ @ 977 NONAME ; QtMobility::QContactAction::~QContactAction(void)
	?role@QContactRelationshipFilter@QtMobility@@QBE?AW4Role@12@XZ @ 978 NONAME ; enum QtMobility::QContactRelationshipFilter::Role QtMobility::QContactRelationshipFilter::role(void) const
	?setRelationships@QContactRelationshipSaveRequest@QtMobility@@QAEXABV?$QList@VQContactRelationship@QtMobility@@@@@Z @ 979 NONAME ; void QtMobility::QContactRelationshipSaveRequest::setRelationships(class QList<class QtMobility::QContactRelationship> const &)
	?tr@QContactAbstractRequest@QtMobility@@SA?AVQString@@PBD0H@Z @ 980 NONAME ; class QString QtMobility::QContactAbstractRequest::tr(char const *, char const *, int)
	??4QContactTimestamp@QtMobility@@QAEAAV01@ABVQContactDetail@1@@Z @ 981 NONAME ; class QtMobility::QContactTimestamp & QtMobility::QContactTimestamp::operator=(class QtMobility::QContactDetail const &)
	?names@QContactDetailDefinitionFetchRequest@QtMobility@@QBE?AVQStringList@@XZ @ 982 NONAME ; class QStringList QtMobility::QContactDetailDefinitionFetchRequest::names(void) const
	?d_func@QContactActionFilter@QtMobility@@ABEPBVQContactActionFilterPrivate@2@XZ @ 983 NONAME ; class QtMobility::QContactActionFilterPrivate const * QtMobility::QContactActionFilter::d_func(void) const
	??_EQContactManagerEngine@QtMobility@@UAE@I@Z @ 984 NONAME ; QtMobility::QContactManagerEngine::~QContactManagerEngine(unsigned int)
	?waitForRequestFinished@QContactMemoryEngine@QtMobility@@UAE_NPAVQContactAbstractRequest@2@H@Z @ 985 NONAME ; bool QtMobility::QContactMemoryEngine::waitForRequestFinished(class QtMobility::QContactAbstractRequest *, int)
	?managerUri@QContactManagerEngine@QtMobility@@QBE?AVQString@@XZ @ 986 NONAME ; class QString QtMobility::QContactManagerEngine::managerUri(void) const
	?hasFeature@QContactManagerEngine@QtMobility@@UBE_NW4ManagerFeature@QContactManager@2@ABVQString@@@Z @ 987 NONAME ; bool QtMobility::QContactManagerEngine::hasFeature(enum QtMobility::QContactManager::ManagerFeature, class QString const &) const
	?setDefinitions@QContactDetailDefinitionSaveRequest@QtMobility@@QAEXABV?$QList@VQContactDetailDefinition@QtMobility@@@@@Z @ 988 NONAME ; void QtMobility::QContactDetailDefinitionSaveRequest::setDefinitions(class QList<class QtMobility::QContactDetailDefinition> const &)
	?locality@QContactAddress@QtMobility@@QBE?AVQString@@XZ @ 989 NONAME ; class QString QtMobility::QContactAddress::locality(void) const
	?FieldSpeed@QContactGeolocation@QtMobility@@2U?$Latin1Literal@$05@2@B @ 990 NONAME ; struct QtMobility::Latin1Literal<6> const QtMobility::QContactGeolocation::FieldSpeed
	??1QContactDetailFilter@QtMobility@@UAE@XZ @ 991 NONAME ; QtMobility::QContactDetailFilter::~QContactDetailFilter(void)
	?isEmpty@QContactActionDescriptor@QtMobility@@QBE_NXZ @ 992 NONAME ; bool QtMobility::QContactActionDescriptor::isEmpty(void) const
	?setSelfContactId@QContactManager@QtMobility@@QAE_NABI@Z @ 993 NONAME ; bool QtMobility::QContactManager::setSelfContactId(unsigned int const &)
	?setContactRelationships@QContactManagerEngine@QtMobility@@SAXPAVQContact@2@ABV?$QList@VQContactRelationship@QtMobility@@@@@Z @ 994 NONAME ; void QtMobility::QContactManagerEngine::setContactRelationships(class QtMobility::QContact *, class QList<class QtMobility::QContactRelationship> const &)
	?fields@QContactDetailDefinition@QtMobility@@QBE?AV?$QMap@VQString@@VQContactDetailDefinitionField@QtMobility@@@@XZ @ 995 NONAME ; class QMap<class QString, class QtMobility::QContactDetailDefinitionField> QtMobility::QContactDetailDefinition::fields(void) const
	?getStaticMetaObject@QContactRelationshipRemoveRequest@QtMobility@@SAABUQMetaObject@@XZ @ 996 NONAME ; struct QMetaObject const & QtMobility::QContactRelationshipRemoveRequest::getStaticMetaObject(void)
	?contactsRemoved@QContactManagerEngine@QtMobility@@IAEXABV?$QList@I@@@Z @ 997 NONAME ; void QtMobility::QContactManagerEngine::contactsRemoved(class QList<unsigned int> const &)
	?isValid@QContactSortOrder@QtMobility@@QBE_NXZ @ 998 NONAME ; bool QtMobility::QContactSortOrder::isValid(void) const
	?metaObject@QContactRelationshipFetchRequest@QtMobility@@UBEPBUQMetaObject@@XZ @ 999 NONAME ; struct QMetaObject const * QtMobility::QContactRelationshipFetchRequest::metaObject(void) const
	?FieldTimestamp@QContactGeolocation@QtMobility@@2U?$Latin1Literal@$09@2@B @ 1000 NONAME ; struct QtMobility::Latin1Literal<10> const QtMobility::QContactGeolocation::FieldTimestamp
	?FieldName@QContactOrganization@QtMobility@@2U?$Latin1Literal@$04@2@B @ 1001 NONAME ; struct QtMobility::Latin1Literal<5> const QtMobility::QContactOrganization::FieldName
	?tr@QContactFetchRequest@QtMobility@@SA?AVQString@@PBD0@Z @ 1002 NONAME ; class QString QtMobility::QContactFetchRequest::tr(char const *, char const *)
	?removeContact@QContactManagerEngine@QtMobility@@UAE_NABIAAW4Error@QContactManager@2@@Z @ 1003 NONAME ; bool QtMobility::QContactManagerEngine::removeContact(unsigned int const &, enum QtMobility::QContactManager::Error &)
	??1QContactRelationshipFilter@QtMobility@@UAE@XZ @ 1004 NONAME ; QtMobility::QContactRelationshipFilter::~QContactRelationshipFilter(void)
	??0QContactChangeSet@QtMobility@@QAE@ABV01@@Z @ 1005 NONAME ; QtMobility::QContactChangeSet::QContactChangeSet(class QtMobility::QContactChangeSet const &)
	?filters@QContactUnionFilter@QtMobility@@QBE?AV?$QList@VQContactFilter@QtMobility@@@@XZ @ 1006 NONAME ; class QList<class QtMobility::QContactFilter> QtMobility::QContactUnionFilter::filters(void) const
	?waitForProgress@QContactAbstractRequest@QtMobility@@QAE_NH@Z @ 1007 NONAME ; bool QtMobility::QContactAbstractRequest::waitForProgress(int)
	?qt_metacast@QContactRelationshipFetchRequest@QtMobility@@UAEPAXPBD@Z @ 1008 NONAME ; void * QtMobility::QContactRelationshipFetchRequest::qt_metacast(char const *)
	?managerName@QContactManager@QtMobility@@QBE?AVQString@@XZ @ 1009 NONAME ; class QString QtMobility::QContactManager::managerName(void) const
	?DefinitionName@QContactOnlineAccount@QtMobility@@2U?$Latin1Literal@$0O@@2@B @ 1010 NONAME ; struct QtMobility::Latin1Literal<14> const QtMobility::QContactOnlineAccount::DefinitionName
	?FieldNickname@QContactOnlineAccount@QtMobility@@2U?$Latin1Literal@$08@2@B @ 1011 NONAME ; struct QtMobility::Latin1Literal<9> const QtMobility::QContactOnlineAccount::FieldNickname
	??4QContactSyncTarget@QtMobility@@QAEAAV01@ABVQContactDetail@1@@Z @ 1012 NONAME ; class QtMobility::QContactSyncTarget & QtMobility::QContactSyncTarget::operator=(class QtMobility::QContactDetail const &)
	?qt_metacall@QContactSaveRequest@QtMobility@@UAEHW4Call@QMetaObject@@HPAPAX@Z @ 1013 NONAME ; int QtMobility::QContactSaveRequest::qt_metacall(enum QMetaObject::Call, int, void * *)
	?label@QContactDisplayLabel@QtMobility@@QBE?AVQString@@XZ @ 1014 NONAME ; class QString QtMobility::QContactDisplayLabel::label(void) const
	?ids@QContactLocalIdFetchRequest@QtMobility@@QBE?AV?$QList@I@@XZ @ 1015 NONAME ; class QList<unsigned int> QtMobility::QContactLocalIdFetchRequest::ids(void) const
	??_EQContactPhoneNumber@QtMobility@@UAE@I@Z @ 1016 NONAME ; QtMobility::QContactPhoneNumber::~QContactPhoneNumber(unsigned int)
	?presence@QContactOnlineAccount@QtMobility@@QBE?AVQString@@XZ @ 1017 NONAME ; class QString QtMobility::QContactOnlineAccount::presence(void) const
	?nickname@QContactOnlineAccount@QtMobility@@QBE?AVQString@@XZ @ 1018 NONAME ; class QString QtMobility::QContactOnlineAccount::nickname(void) const
	?dataChanged@QContactManager@QtMobility@@IAEXXZ @ 1019 NONAME ; void QtMobility::QContactManager::dataChanged(void)
	?contacts@QContactManager@QtMobility@@QBE?AV?$QList@I@@ABV?$QList@VQContactSortOrder@QtMobility@@@@@Z @ 1020 NONAME ; class QList<unsigned int> QtMobility::QContactManager::contacts(class QList<class QtMobility::QContactSortOrder> const &) const
	?contacts@QContactSaveRequest@QtMobility@@QBE?AV?$QList@VQContact@QtMobility@@@@XZ @ 1021 NONAME ; class QList<class QtMobility::QContact> QtMobility::QContactSaveRequest::contacts(void) const
	??1QContactOnlineAccount@QtMobility@@UAE@XZ @ 1022 NONAME ; QtMobility::QContactOnlineAccount::~QContactOnlineAccount(void)
	??4QContactAnniversary@QtMobility@@QAEAAV01@ABVQContactDetail@1@@Z @ 1023 NONAME ; class QtMobility::QContactAnniversary & QtMobility::QContactAnniversary::operator=(class QtMobility::QContactDetail const &)
	?staticMetaObject@QContactDetailDefinitionFetchRequest@QtMobility@@2UQMetaObject@@B @ 1024 NONAME ; struct QMetaObject const QtMobility::QContactDetailDefinitionFetchRequest::staticMetaObject
	?createMemoryEngine@QContactMemoryEngine@QtMobility@@SAPAV12@ABV?$QMap@VQString@@V1@@@@Z @ 1025 NONAME ; class QtMobility::QContactMemoryEngine * QtMobility::QContactMemoryEngine::createMemoryEngine(class QMap<class QString, class QString> const &)
	?SubTypeDomestic@QContactAddress@QtMobility@@2U?$Latin1Literal@$08@2@B @ 1026 NONAME ; struct QtMobility::Latin1Literal<9> const QtMobility::QContactAddress::SubTypeDomestic
	??0QContactLocalIdFilter@QtMobility@@QAE@XZ @ 1027 NONAME ; QtMobility::QContactLocalIdFilter::QContactLocalIdFilter(void)
	??4QContactOrganization@QtMobility@@QAEAAV01@ABVQContactDetail@1@@Z @ 1028 NONAME ; class QtMobility::QContactOrganization & QtMobility::QContactOrganization::operator=(class QtMobility::QContactDetail const &)
	?matchFlags@QContactDetailRangeFilter@QtMobility@@QBE?AV?$QFlags@W4MatchFlag@QContactFilter@QtMobility@@@@XZ @ 1029 NONAME ; class QFlags<enum QtMobility::QContactFilter::MatchFlag> QtMobility::QContactDetailRangeFilter::matchFlags(void) const
	??0QContactType@QtMobility@@QAE@XZ @ 1030 NONAME ; QtMobility::QContactType::QContactType(void)
	?setRelationshipType@QContactRelationship@QtMobility@@QAEXABVQString@@@Z @ 1031 NONAME ; void QtMobility::QContactRelationship::setRelationshipType(class QString const &)
	?setSelfContactId@QContactManagerEngine@QtMobility@@UAE_NABIAAW4Error@QContactManager@2@@Z @ 1032 NONAME ; bool QtMobility::QContactManagerEngine::setSelfContactId(unsigned int const &, enum QtMobility::QContactManager::Error &)
	?setMiddle@QContactName@QtMobility@@QAEXABVQString@@@Z @ 1033 NONAME ; void QtMobility::QContactName::setMiddle(class QString const &)
	?children@QContactFamily@QtMobility@@QBE?AVQStringList@@XZ @ 1034 NONAME ; class QStringList QtMobility::QContactFamily::children(void) const
	?department@QContactOrganization@QtMobility@@QBE?AVQStringList@@XZ @ 1035 NONAME ; class QStringList QtMobility::QContactOrganization::department(void) const
	?d_func@QContactUnionFilter@QtMobility@@AAEPAVQContactUnionFilterPrivate@2@XZ @ 1036 NONAME ; class QtMobility::QContactUnionFilterPrivate * QtMobility::QContactUnionFilter::d_func(void)

