EXPORTS
	??0CPbk2AppViewBase@@QAE@XZ @ 1 NONAME ; CPbk2AppViewBase::CPbk2AppViewBase(void)
	??0CPbk2ControlContainerImpl@@IAE@PAVMPbk2KeyEventHandler@@PAVMPbk2PointerEventHandler@@@Z @ 2 NONAME ; CPbk2ControlContainerImpl::CPbk2ControlContainerImpl(class MPbk2KeyEventHandler *, class MPbk2PointerEventHandler *)
	??0CPbk2DocumentBase@@IAE@AAVCEikApplication@@@Z @ 3 NONAME ; CPbk2DocumentBase::CPbk2DocumentBase(class CEikApplication &)
	??1CPbk2AppViewBase@@UAE@XZ @ 4 NONAME ; CPbk2AppViewBase::~CPbk2AppViewBase(void)
	??1CPbk2ControlContainerImpl@@MAE@XZ @ 5 NONAME ; CPbk2ControlContainerImpl::~CPbk2ControlContainerImpl(void)
	??1CPbk2DocumentBase@@MAE@XZ @ 6 NONAME ; CPbk2DocumentBase::~CPbk2DocumentBase(void)
	??1CPbk2DrmManager@@UAE@XZ @ 7 NONAME ; CPbk2DrmManager::~CPbk2DrmManager(void)
	?__Pbk2CommonUI_DummyExport5@@YAXXZ @ 8 NONAME ; void __Pbk2CommonUI_DummyExport5(void)
	?__Pbk2CommonUI_DummyExport4@@YAXXZ @ 9 NONAME ; void __Pbk2CommonUI_DummyExport4(void)
	??8CPbk2ViewState@@QBEHABV0@@Z @ 10 NONAME ; int CPbk2ViewState::operator==(class CPbk2ViewState const &) const
	?AddViewNodeL@CPbk2ViewGraph@@QAEXPAVCPbk2ViewNode@@@Z @ 11 NONAME ; void CPbk2ViewGraph::AddViewNodeL(class CPbk2ViewNode *)
	?AppendIconL@CPbk2IconInfoContainer@@QAEXPAVCPbk2IconInfo@@@Z @ 12 NONAME ; void CPbk2IconInfoContainer::AppendIconL(class CPbk2IconInfo *)
	?AppendIconsFromResourceL@CPbk2IconArray@@QAEXAAVTResourceReader@@ABVCPbk2IconInfoContainer@@@Z @ 13 NONAME ; void CPbk2IconArray::AppendIconsFromResourceL(class TResourceReader &, class CPbk2IconInfoContainer const &)
	?AppendIconsFromResourceL@CPbk2IconInfoContainer@@QAEXAAVTResourceReader@@@Z @ 14 NONAME ; void CPbk2IconInfoContainer::AppendIconsFromResourceL(class TResourceReader &)
	?AppendIconsFromResourceL@CPbk2IconInfoContainer@@QAEXH@Z @ 15 NONAME ; void CPbk2IconInfoContainer::AppendIconsFromResourceL(int)
	?ApplicationUid@CPbk2AppViewBase@@QBE?AVTUid@@XZ @ 16 NONAME ; class TUid CPbk2AppViewBase::ApplicationUid(void) const
	?ChangeContactL@CPbk2MemoryEntryContactLoader@@UAEXABVMVPbkContactLink@@@Z @ 17 NONAME ; void CPbk2MemoryEntryContactLoader::ChangeContactL(class MVPbkContactLink const &)
	?CoeControl@CPbk2ControlContainerImpl@@QBEPAVCCoeControl@@XZ @ 18 NONAME ; class CCoeControl * CPbk2ControlContainerImpl::CoeControl(void) const
	?ComponentControl@CPbk2ControlContainerImpl@@MBEPAVCCoeControl@@H@Z @ 19 NONAME ; class CCoeControl * CPbk2ControlContainerImpl::ComponentControl(int) const
	?ConstructL@CPbk2ControlContainerImpl@@IAEXAAVMObjectProvider@@@Z @ 20 NONAME ; void CPbk2ControlContainerImpl::ConstructL(class MObjectProvider &)
	?ContactLinkLC@CPbk2MemoryEntryContactLoader@@UBEPAVMVPbkContactLink@@XZ @ 21 NONAME ; class MVPbkContactLink * CPbk2MemoryEntryContactLoader::ContactLinkLC(void) const
	?__Pbk2CommonUI_DummyExport1@@YAXXZ @ 22 NONAME ; void __Pbk2CommonUI_DummyExport1(void)
	?CountComponentControls@CPbk2ControlContainerImpl@@MBEHXZ @ 23 NONAME ; int CPbk2ControlContainerImpl::CountComponentControls(void) const
	?CreateContactNavigatorL@Pbk2NavigatorFactory@@SAPAVMPbk2ContactNavigation@@VTUid@@AAVMPbk2NavigationObserver@@AAVMPbk2ContactNavigationLoader@@V?$TArray@PAVMVPbkContactStore@@@@H@Z @ 24 NONAME ; class MPbk2ContactNavigation * Pbk2NavigatorFactory::CreateContactNavigatorL(class TUid, class MPbk2NavigationObserver &, class MPbk2ContactNavigationLoader &, class TArray<class MVPbkContactStore *>, int)
	?CreateIconL@CPbk2IconFactory@@QAEXABVTPbk2IconId@@AAVMAknsSkinInstance@@AAPAVCFbsBitmap@@2@Z @ 25 NONAME ; void CPbk2IconFactory::CreateIconL(class TPbk2IconId const &, class MAknsSkinInstance &, class CFbsBitmap * &, class CFbsBitmap * &)
	?CreateIconL@CPbk2IconFactory@@QBEPAVCGulIcon@@ABVTPbk2IconId@@@Z @ 26 NONAME ; class CGulIcon * CPbk2IconFactory::CreateIconL(class TPbk2IconId const &) const
	?CreateIconLC@CPbk2IconFactory@@QAEXABVTPbk2IconId@@AAVMAknsSkinInstance@@AAPAVCFbsBitmap@@2@Z @ 27 NONAME ; void CPbk2IconFactory::CreateIconLC(class TPbk2IconId const &, class MAknsSkinInstance &, class CFbsBitmap * &, class CFbsBitmap * &)
	?CreateIconLC@CPbk2IconFactory@@QBEPAVCGulIcon@@ABVTPbk2IconId@@@Z @ 28 NONAME ; class CGulIcon * CPbk2IconFactory::CreateIconLC(class TPbk2IconId const &) const
	?CreateImageL@CPbk2IconFactory@@QBEPAVCEikImage@@ABVTPbk2IconId@@@Z @ 29 NONAME ; class CEikImage * CPbk2IconFactory::CreateImageL(class TPbk2IconId const &) const
	?CreateImageLC@CPbk2IconFactory@@QBEPAVCEikImage@@ABVTPbk2IconId@@@Z @ 30 NONAME ; class CEikImage * CPbk2IconFactory::CreateImageLC(class TPbk2IconId const &) const
	?CreateVoidNavigatorL@Pbk2NavigatorFactory@@SAPAVMPbk2ContactNavigation@@VTUid@@AAVMPbk2NavigationObserver@@AAVMPbk2ContactNavigationLoader@@V?$TArray@PAVMVPbkContactStore@@@@@Z @ 31 NONAME ; class MPbk2ContactNavigation * Pbk2NavigatorFactory::CreateVoidNavigatorL(class TUid, class MPbk2NavigationObserver &, class MPbk2ContactNavigationLoader &, class TArray<class MVPbkContactStore *>)
	?DestroyControl@CPbk2ControlContainerImpl@@QAEXXZ @ 32 NONAME ; void CPbk2ControlContainerImpl::DestroyControl(void)
	?EnableCompression@CPbk2StoreManager@@QAEXH@Z @ 33 NONAME ; void CPbk2StoreManager::EnableCompression(int)
	?EnsureCurrentConfigurationStoresIncludedL@CPbk2StoreManager@@QAEXXZ @ 34 NONAME ; void CPbk2StoreManager::EnsureCurrentConfigurationStoresIncludedL(void)
	?EnsureDefaultSavingStoreIncludedL@CPbk2StoreManager@@QAEXXZ @ 35 NONAME ; void CPbk2StoreManager::EnsureDefaultSavingStoreIncludedL(void)
	?Find@CPbk2IconInfoContainer@@QBEPBVCPbk2IconInfo@@ABVTPbk2IconId@@@Z @ 36 NONAME ; class CPbk2IconInfo const * CPbk2IconInfoContainer::Find(class TPbk2IconId const &) const
	?FindAndCreateIconL@CPbk2IconArray@@QAEHABVTPbk2IconId@@@Z @ 37 NONAME ; int CPbk2IconArray::FindAndCreateIconL(class TPbk2IconId const &)
	?FindIcon@CPbk2IconArray@@QBEHABVTPbk2IconId@@@Z @ 38 NONAME ; int CPbk2IconArray::FindIcon(class TPbk2IconId const &) const
	?FindNodeWithViewId@CPbk2ViewGraph@@QBEPAVCPbk2ViewNode@@VTUid@@@Z @ 39 NONAME ; class CPbk2ViewNode * CPbk2ViewGraph::FindNodeWithViewId(class TUid) const
	?FindTransition@CPbk2ViewNode@@QBEHABVTPbk2ViewTransition@@@Z @ 40 NONAME ; int CPbk2ViewNode::FindTransition(class TPbk2ViewTransition const &) const
	?FindViewsInTabGroupL@CPbk2ViewGraph@@QBE?AV?$RPointerArray@VCPbk2ViewNode@@@@W4TPbk2TabGroupId@@@Z @ 41 NONAME ; class RPointerArray<class CPbk2ViewNode> CPbk2ViewGraph::FindViewsInTabGroupL(enum TPbk2TabGroupId) const
	?Flags@CPbk2ViewState@@QBEIXZ @ 42 NONAME ; unsigned int CPbk2ViewState::Flags(void) const
	?FocusChanged@CPbk2ControlContainerImpl@@MAEXW4TDrawNow@@@Z @ 43 NONAME ; void CPbk2ControlContainerImpl::FocusChanged(enum TDrawNow)
	?FocusedContact@CPbk2ViewState@@QBEPBVMVPbkContactLink@@XZ @ 44 NONAME ; class MVPbkContactLink const * CPbk2ViewState::FocusedContact(void) const
	?FocusedFieldIndex@CPbk2ViewState@@QBEHXZ @ 45 NONAME ; int CPbk2ViewState::FocusedFieldIndex(void) const
	?FocusedPropertiesIndex@CPbk2ViewState@@QBEHXZ @ 46 NONAME ; int CPbk2ViewState::FocusedPropertiesIndex(void) const
	?GetHelpContext@CPbk2ControlContainerImpl@@UBEXAAVTCoeHelpContext@@@Z @ 47 NONAME ; void CPbk2ControlContainerImpl::GetHelpContext(class TCoeHelpContext &) const
	?GetMenuFilteringFlagsL@CPbk2AppViewBase@@QBEHXZ @ 48 NONAME ; int CPbk2AppViewBase::GetMenuFilteringFlagsL(void) const
	?HandleCommandKeyL@CPbk2AppViewBase@@MAEHABUTKeyEvent@@W4TEventCode@@@Z @ 49 NONAME ; int CPbk2AppViewBase::HandleCommandKeyL(struct TKeyEvent const &, enum TEventCode)
	?HandleLongTapEventL@CPbk2AppViewBase@@MAEXABVTPoint@@0@Z @ 50 NONAME ; void CPbk2AppViewBase::HandleLongTapEventL(class TPoint const &, class TPoint const &)
	?HandleLongTapEventL@CPbk2ControlContainerImpl@@UAEXABVTPoint@@0@Z @ 51 NONAME ; void CPbk2ControlContainerImpl::HandleLongTapEventL(class TPoint const &, class TPoint const &)
	?HandleNavigationKeyEventL@CPbk2TabGroupContainer@@QAEHABUTKeyEvent@@W4TEventCode@@@Z @ 52 NONAME ; int CPbk2TabGroupContainer::HandleNavigationKeyEventL(struct TKeyEvent const &, enum TEventCode)
	?HandlePointerEventL@CPbk2AppViewBase@@MAEXABUTPointerEvent@@@Z @ 53 NONAME ; void CPbk2AppViewBase::HandlePointerEventL(struct TPointerEvent const &)
	?HandlePointerEventL@CPbk2ControlContainerImpl@@MAEXABUTPointerEvent@@@Z @ 54 NONAME ; void CPbk2ControlContainerImpl::HandlePointerEventL(struct TPointerEvent const &)
	?Id@CPbk2IconArray@@QBE?AW4TPbk2IconArrayId@@XZ @ 55 NONAME ; enum TPbk2IconArrayId CPbk2IconArray::Id(void) const
	?__Pbk2CommonUI_DummyExport3@@YAXXZ @ 56 NONAME ; void __Pbk2CommonUI_DummyExport3(void)
	?IsPhoneMemoryContact@CPbk2ContactRelocator@@QBEHABVMVPbkStoreContact@@@Z @ 57 NONAME ; int CPbk2ContactRelocator::IsPhoneMemoryContact(class MVPbkStoreContact const &) const
	?IsPhoneMemoryInConfigurationL@CPbk2ContactRelocator@@QBEHXZ @ 58 NONAME ; int CPbk2ContactRelocator::IsPhoneMemoryInConfigurationL(void) const
	?IsProtectedFile@CPbk2DrmManager@@QAEHABVTDesC16@@AAH@Z @ 59 NONAME ; int CPbk2DrmManager::IsProtectedFile(class TDesC16 const &, int &)
	?IsRingingToneForbidden@CPbk2DrmManager@@QAEHABVTDesC16@@AAH@Z @ 60 NONAME ; int CPbk2DrmManager::IsRingingToneForbidden(class TDesC16 const &, int &)
	?IsThumbnailForbidden@CPbk2DrmManager@@QAEHABVTDesC16@@AAH@Z @ 61 NONAME ; int CPbk2DrmManager::IsThumbnailForbidden(class TDesC16 const &, int &)
	?KeyEventHandler@CPbk2ControlContainerImpl@@QBEPAVMPbk2KeyEventHandler@@XZ @ 62 NONAME ; class MPbk2KeyEventHandler * CPbk2ControlContainerImpl::KeyEventHandler(void) const
	?LaunchPopupMenuL@CPbk2AppViewBase@@QAEXH@Z @ 63 NONAME ; void CPbk2AppViewBase::LaunchPopupMenuL(int)
	?LaunchStylusPopupMenuL@CPbk2AppViewBase@@QAEXHABVTPoint@@@Z @ 64 NONAME ; void CPbk2AppViewBase::LaunchStylusPopupMenuL(int, class TPoint const &)
	?LongTapDetectorL@CPbk2ControlContainerImpl@@QAEAAVCAknLongTapDetector@@XZ @ 65 NONAME ; class CAknLongTapDetector & CPbk2ControlContainerImpl::LongTapDetectorL(void)
	?MarkedContacts@CPbk2ViewState@@QBEPBVMVPbkContactLinkArray@@XZ @ 66 NONAME ; class MVPbkContactLinkArray const * CPbk2ViewState::MarkedContacts(void) const
	?ModifyViewGraphL@CPbk2ViewGraph@@QAEXAAVTResourceReader@@@Z @ 67 NONAME ; void CPbk2ViewGraph::ModifyViewGraphL(class TResourceReader &)
	?NewL@CPbk2ContactRelocator@@SAPAV1@XZ @ 68 NONAME ; class CPbk2ContactRelocator * CPbk2ContactRelocator::NewL(void)
	?NewL@CPbk2DrmManager@@SAPAV1@XZ @ 69 NONAME ; class CPbk2DrmManager * CPbk2DrmManager::NewL(void)
	?NewL@CPbk2FieldFocusHelper@@SAPAV1@AAVMPbk2ContactUiControl@@AAVMPbk2FieldPropertyArray@@@Z @ 70 NONAME ; class CPbk2FieldFocusHelper * CPbk2FieldFocusHelper::NewL(class MPbk2ContactUiControl &, class MPbk2FieldPropertyArray &)
	?NewL@CPbk2IconArray@@SAPAV1@AAVTResourceReader@@@Z @ 71 NONAME ; class CPbk2IconArray * CPbk2IconArray::NewL(class TResourceReader &)
	?NewL@CPbk2IconArray@@SAPAV1@AAVTResourceReader@@ABVCPbk2IconInfoContainer@@@Z @ 72 NONAME ; class CPbk2IconArray * CPbk2IconArray::NewL(class TResourceReader &, class CPbk2IconInfoContainer const &)
	?NewL@CPbk2IconArray@@SAPAV1@ABVMPbk2FieldPropertyArray@@@Z @ 73 NONAME ; class CPbk2IconArray * CPbk2IconArray::NewL(class MPbk2FieldPropertyArray const &)
	?NewL@CPbk2IconFactory@@SAPAV1@ABVCPbk2IconInfoContainer@@@Z @ 74 NONAME ; class CPbk2IconFactory * CPbk2IconFactory::NewL(class CPbk2IconInfoContainer const &)
	?NewL@CPbk2IconFactory@@SAPAV1@XZ @ 75 NONAME ; class CPbk2IconFactory * CPbk2IconFactory::NewL(void)
	?NewL@CPbk2IconInfoContainer@@SAPAV1@AAVTResourceReader@@@Z @ 76 NONAME ; class CPbk2IconInfoContainer * CPbk2IconInfoContainer::NewL(class TResourceReader &)
	?NewL@CPbk2IconInfoContainer@@SAPAV1@HPAVCCoeEnv@@@Z @ 77 NONAME ; class CPbk2IconInfoContainer * CPbk2IconInfoContainer::NewL(int, class CCoeEnv *)
	?NewL@CPbk2IconInfoContainer@@SAPAV1@XZ @ 78 NONAME ; class CPbk2IconInfoContainer * CPbk2IconInfoContainer::NewL(void)
	?NewL@CPbk2MemoryEntryContactLoader@@SAPAV1@AAVMPbk2MemoryEntryView@@@Z @ 79 NONAME ; class CPbk2MemoryEntryContactLoader * CPbk2MemoryEntryContactLoader::NewL(class MPbk2MemoryEntryView &)
	?NewL@CPbk2StoreManager@@SAPAV1@AAVCVPbkContactManager@@AAVCPbk2StoreConfiguration@@H@Z @ 80 NONAME ; class CPbk2StoreManager * CPbk2StoreManager::NewL(class CVPbkContactManager &, class CPbk2StoreConfiguration &, int)
	?NewL@CPbk2TabGroupContainer@@SAPAV1@AAVMPbk2ViewExplorer@@AAVMPbk2TabGroupContainerCallback@@@Z @ 81 NONAME ; class CPbk2TabGroupContainer * CPbk2TabGroupContainer::NewL(class MPbk2ViewExplorer &, class MPbk2TabGroupContainerCallback &)
	?NewL@CPbk2ViewGraph@@SAPAV1@AAVTResourceReader@@@Z @ 82 NONAME ; class CPbk2ViewGraph * CPbk2ViewGraph::NewL(class TResourceReader &)
	?NewL@CPbk2ViewNode@@SAPAV1@VTUid@@0HW4TPbk2TabGroupId@@W4TPbk2TabGroupOrdering@@HAAVTResourceReader@@@Z @ 83 NONAME ; class CPbk2ViewNode * CPbk2ViewNode::NewL(class TUid, class TUid, int, enum TPbk2TabGroupId, enum TPbk2TabGroupOrdering, int, class TResourceReader &)
	?NewL@CPbk2ViewState@@SAPAV1@ABVTDesC8@@@Z @ 84 NONAME ; class CPbk2ViewState * CPbk2ViewState::NewL(class TDesC8 const &)
	?NewL@CPbk2ViewState@@SAPAV1@XZ @ 85 NONAME ; class CPbk2ViewState * CPbk2ViewState::NewL(void)
	?NewLC@CPbk2IconFactory@@SAPAV1@ABVCPbk2IconInfoContainer@@@Z @ 86 NONAME ; class CPbk2IconFactory * CPbk2IconFactory::NewLC(class CPbk2IconInfoContainer const &)
	?NewLC@CPbk2IconFactory@@SAPAV1@XZ @ 87 NONAME ; class CPbk2IconFactory * CPbk2IconFactory::NewLC(void)
	?NewLC@CPbk2IconInfo@@SAPAV1@VTPbk2IconId@@HHVTPtrC16@@VTAknsItemID@@2HH@Z @ 88 NONAME ; class CPbk2IconInfo * CPbk2IconInfo::NewLC(class TPbk2IconId, int, int, class TPtrC16, class TAknsItemID, class TAknsItemID, int, int)
	?NewLC@CPbk2ViewState@@SAPAV1@ABVTDesC8@@@Z @ 89 NONAME ; class CPbk2ViewState * CPbk2ViewState::NewLC(class TDesC8 const &)
	?NewLC@CPbk2ViewState@@SAPAV1@XZ @ 90 NONAME ; class CPbk2ViewState * CPbk2ViewState::NewLC(void)
	?NewLC@CPbk2ViewStateTransformer@@SAPAV1@AAVCVPbkContactManager@@@Z @ 91 NONAME ; class CPbk2ViewStateTransformer * CPbk2ViewStateTransformer::NewLC(class CVPbkContactManager &)
	?OfferKeyEventL@CPbk2ControlContainerImpl@@MAE?AW4TKeyResponse@@ABUTKeyEvent@@W4TEventCode@@@Z @ 92 NONAME ; enum TKeyResponse CPbk2ControlContainerImpl::OfferKeyEventL(struct TKeyEvent const &, enum TEventCode)
	?OpenStoresL@CPbk2StoreManager@@QAEXXZ @ 93 NONAME ; void CPbk2StoreManager::OpenStoresL(void)
	?PackL@CPbk2ViewState@@QBEPAVHBufC8@@XZ @ 94 NONAME ; class HBufC8 * CPbk2ViewState::PackL(void) const
	?PackLC@CPbk2ViewState@@QBEPAVHBufC8@@XZ @ 95 NONAME ; class HBufC8 * CPbk2ViewState::PackLC(void) const
	?ParentContact@CPbk2ViewState@@QBEPBVMVPbkContactLink@@XZ @ 96 NONAME ; class MVPbkContactLink const * CPbk2ViewState::ParentContact(void) const
	?Pbk2AppUi@Phonebook2@@YAPAVMPbk2AppUi@@XZ @ 97 NONAME ; class MPbk2AppUi * Phonebook2::Pbk2AppUi(void)
	?Pbk2HandleLongTapEventL@CPbk2AppViewBase@@EAEXABVTPoint@@0@Z @ 98 NONAME ; void CPbk2AppViewBase::Pbk2HandleLongTapEventL(class TPoint const &, class TPoint const &)
	?Pbk2ProcessKeyEventL@CPbk2AppViewBase@@EAEHABUTKeyEvent@@W4TEventCode@@@Z @ 99 NONAME ; int CPbk2AppViewBase::Pbk2ProcessKeyEventL(struct TKeyEvent const &, enum TEventCode)
	?Pbk2ProcessPointerEventL@CPbk2AppViewBase@@EAEXABUTPointerEvent@@@Z @ 100 NONAME ; void CPbk2AppViewBase::Pbk2ProcessPointerEventL(struct TPointerEvent const &)
	?PointerEventHandler@CPbk2ControlContainerImpl@@QBEPAVMPbk2PointerEventHandler@@XZ @ 101 NONAME ; class MPbk2PointerEventHandler * CPbk2ControlContainerImpl::PointerEventHandler(void) const
	?ProcessCommandL@CPbk2AppViewBase@@EAEXH@Z @ 102 NONAME ; void CPbk2AppViewBase::ProcessCommandL(int)
	?RefreshL@CPbk2IconArray@@QAEXABVCPbk2IconInfoContainer@@@Z @ 103 NONAME ; void CPbk2IconArray::RefreshL(class CPbk2IconInfoContainer const &)
	?RefreshL@CPbk2IconArray@@QAEXXZ @ 104 NONAME ; void CPbk2IconArray::RefreshL(void)
	?RelocateAndLockContactL@CPbk2ContactRelocator@@QAEHPAVMVPbkStoreContact@@AAVMPbk2ContactRelocatorObserver@@W4TPbk2ContactRelocationQueryPolicy@Pbk2ContactRelocator@@K@Z @ 105 NONAME ; int CPbk2ContactRelocator::RelocateAndLockContactL(class MVPbkStoreContact *, class MPbk2ContactRelocatorObserver &, enum Pbk2ContactRelocator::TPbk2ContactRelocationQueryPolicy, unsigned long)
	?RelocateContactL@CPbk2ContactRelocator@@QAEHPAVMVPbkStoreContact@@AAVMPbk2ContactRelocatorObserver@@W4TPbk2ContactRelocationQueryPolicy@Pbk2ContactRelocator@@K@Z @ 106 NONAME ; int CPbk2ContactRelocator::RelocateContactL(class MVPbkStoreContact *, class MPbk2ContactRelocatorObserver &, enum Pbk2ContactRelocator::TPbk2ContactRelocationQueryPolicy, unsigned long)
	?RelocateContactsL@CPbk2ContactRelocator@@QAEHPAVCVPbkContactLinkArray@@AAVMPbk2ContactRelocatorObserver@@W4TPbk2ContactRelocationQueryPolicy@Pbk2ContactRelocator@@@Z @ 107 NONAME ; int CPbk2ContactRelocator::RelocateContactsL(class CVPbkContactLinkArray *, class MPbk2ContactRelocatorObserver &, enum Pbk2ContactRelocator::TPbk2ContactRelocationQueryPolicy)
	?Reset@CPbk2ViewState@@QAEXXZ @ 108 NONAME ; void CPbk2ViewState::Reset(void)
	?RestoreSavedFieldL@CPbk2FieldFocusHelper@@QAEHXZ @ 109 NONAME ; int CPbk2FieldFocusHelper::RestoreSavedFieldL(void)
	?SaveInitiallyFocusedFieldL@CPbk2FieldFocusHelper@@QAEXAAVMVPbkStoreContact@@@Z @ 110 NONAME ; void CPbk2FieldFocusHelper::SaveInitiallyFocusedFieldL(class MVPbkStoreContact &)
	?SetCoeControl@CPbk2ControlContainerImpl@@IAEXPAVCCoeControl@@ABVTRect@@H@Z @ 111 NONAME ; void CPbk2ControlContainerImpl::SetCoeControl(class CCoeControl *, class TRect const &, int)
	?SetFlags@CPbk2ViewState@@QAEXI@Z @ 112 NONAME ; void CPbk2ViewState::SetFlags(unsigned int)
	?SetFocusedContact@CPbk2ViewState@@QAEXPAVMVPbkContactLink@@@Z @ 113 NONAME ; void CPbk2ViewState::SetFocusedContact(class MVPbkContactLink *)
	?SetFocusedFieldIndex@CPbk2ViewState@@QAEXH@Z @ 114 NONAME ; void CPbk2ViewState::SetFocusedFieldIndex(int)
	?SetFocusedPropertiesIndex@CPbk2ViewState@@QAEXH@Z @ 115 NONAME ; void CPbk2ViewState::SetFocusedPropertiesIndex(int)
	?SetHelpContext@CPbk2ControlContainerImpl@@QAEXABVTCoeHelpContext@@@Z @ 116 NONAME ; void CPbk2ControlContainerImpl::SetHelpContext(class TCoeHelpContext const &)
	?SetKeyEventHandler@CPbk2ControlContainerImpl@@QAEXPAVMPbk2KeyEventHandler@@@Z @ 117 NONAME ; void CPbk2ControlContainerImpl::SetKeyEventHandler(class MPbk2KeyEventHandler *)
	?SetMarkedContacts@CPbk2ViewState@@QAEXPAVMVPbkContactLinkArray@@@Z @ 118 NONAME ; void CPbk2ViewState::SetMarkedContacts(class MVPbkContactLinkArray *)
	?SetParentContact@CPbk2ViewState@@QAEXPAVMVPbkContactLink@@@Z @ 119 NONAME ; void CPbk2ViewState::SetParentContact(class MVPbkContactLink *)
	?SetTopContact@CPbk2ViewState@@QAEXPAVMVPbkContactLink@@@Z @ 120 NONAME ; void CPbk2ViewState::SetTopContact(class MVPbkContactLink *)
	?SetTopFieldIndex@CPbk2ViewState@@QAEXH@Z @ 121 NONAME ; void CPbk2ViewState::SetTopFieldIndex(int)
	?SetTopPropertiesIndex@CPbk2ViewState@@QAEXH@Z @ 122 NONAME ; void CPbk2ViewState::SetTopPropertiesIndex(int)
	?SizeChanged@CPbk2ControlContainerImpl@@MAEXXZ @ 123 NONAME ; void CPbk2ControlContainerImpl::SizeChanged(void)
	?__Pbk2CommonUI_DummyExport2@@YAXXZ @ 124 NONAME ; void __Pbk2CommonUI_DummyExport2(void)
	?TabGroupFromViewId@CPbk2TabGroupContainer@@QBEPAVCAknNavigationDecorator@@H@Z @ 125 NONAME ; class CAknNavigationDecorator * CPbk2TabGroupContainer::TabGroupFromViewId(int) const
	?TabIcons@CPbk2TabGroupContainer@@QBEAAVCPbk2IconInfoContainer@@XZ @ 126 NONAME ; class CPbk2IconInfoContainer & CPbk2TabGroupContainer::TabIcons(void) const
	?TakeFocusedContact@CPbk2ViewState@@QAEPAVMVPbkContactLink@@XZ @ 127 NONAME ; class MVPbkContactLink * CPbk2ViewState::TakeFocusedContact(void)
	?TakeMarkedContacts@CPbk2ViewState@@QAEPAVMVPbkContactLinkArray@@XZ @ 128 NONAME ; class MVPbkContactLinkArray * CPbk2ViewState::TakeMarkedContacts(void)
	?TakeParentContact@CPbk2ViewState@@QAEPAVMVPbkContactLink@@XZ @ 129 NONAME ; class MVPbkContactLink * CPbk2ViewState::TakeParentContact(void)
	?TakeTopContact@CPbk2ViewState@@QAEPAVMVPbkContactLink@@XZ @ 130 NONAME ; class MVPbkContactLink * CPbk2ViewState::TakeTopContact(void)
	?TopContact@CPbk2ViewState@@QBEPBVMVPbkContactLink@@XZ @ 131 NONAME ; class MVPbkContactLink const * CPbk2ViewState::TopContact(void) const
	?TopFieldIndex@CPbk2ViewState@@QBEHXZ @ 132 NONAME ; int CPbk2ViewState::TopFieldIndex(void) const
	?TopPropertiesIndex@CPbk2ViewState@@QBEHXZ @ 133 NONAME ; int CPbk2ViewState::TopPropertiesIndex(void) const
	?TransformLegacyViewStateToPbk2ViewStateLC@CPbk2ViewStateTransformer@@QAEPAVCPbk2ViewState@@ABVTDesC8@@@Z @ 134 NONAME ; class CPbk2ViewState * CPbk2ViewStateTransformer::TransformLegacyViewStateToPbk2ViewStateLC(class TDesC8 const &)
	?Uid@CPbk2ViewState@@SA?AVTUid@@XZ @ 135 NONAME ; class TUid CPbk2ViewState::Uid(void)
	?UnpackL@CPbk2ViewState@@QAEXABVTDesC8@@@Z @ 136 NONAME ; void CPbk2ViewState::UnpackL(class TDesC8 const &)
	?ViewStateLC@CPbk2AppViewBase@@UBEPAVCPbk2ViewState@@XZ @ 137 NONAME ; class CPbk2ViewState * CPbk2AppViewBase::ViewStateLC(void) const
	?NewL@CPbk2ContactViewSupplier@@SAPAV1@AAVCVPbkContactManager@@AAVCPbk2SortOrderManager@@AAVCPbk2StoreConfiguration@@AAVCPbk2StorePropertyArray@@H@Z @ 138 NONAME ; class CPbk2ContactViewSupplier * CPbk2ContactViewSupplier::NewL(class CVPbkContactManager &, class CPbk2SortOrderManager &, class CPbk2StoreConfiguration &, class CPbk2StorePropertyArray &, int)
	?__Pbk2CommonUI_DummyExport6@@YAXXZ @ 139 NONAME ; void __Pbk2CommonUI_DummyExport6(void)
	?__Pbk2CommonUI_DummyExport7@@YAXXZ @ 140 NONAME ; void __Pbk2CommonUI_DummyExport7(void)
	?__Pbk2CommonUI_DummyExport8@@YAXXZ @ 141 NONAME ; void __Pbk2CommonUI_DummyExport8(void)
	?__Pbk2CommonUI_DummyExport9@@YAXXZ @ 142 NONAME ; void __Pbk2CommonUI_DummyExport9(void)
	?ClosePopup@CPbk2AppViewBase@@QAEXXZ @ 143 NONAME ; void CPbk2AppViewBase::ClosePopup(void)
	?AppendIconL@CPbk2IconArray@@QAEXPAVCGulIcon@@ABVTPbk2IconId@@@Z @ 144 NONAME ; void CPbk2IconArray::AppendIconL(class CGulIcon *, class TPbk2IconId const &)
	?FetchRingingToneL@CPbk2RingingToneFetch@@QAEHAAV?$TBuf@$0BAA@@@@Z @ 145 NONAME ; int CPbk2RingingToneFetch::FetchRingingToneL(class TBuf<256> &)
	?NewL@CPbk2RingingToneFetch@@SAPAV1@XZ @ 146 NONAME ; class CPbk2RingingToneFetch * CPbk2RingingToneFetch::NewL(void)
	?AppendIconL@CPbk2IconArray@@QAEXPAVCPbk2IconInfo@@@Z @ 147 NONAME ; void CPbk2IconArray::AppendIconL(class CPbk2IconInfo *)
	?AppendIconL@CPbk2IconFactory@@QAEXPAVCPbk2IconInfo@@@Z @ 148 NONAME ; void CPbk2IconFactory::AppendIconL(class CPbk2IconInfo *)
	?NewLC@CPbk2IconInfo@@SAPAV1@VTPbk2IconId@@PBVCFbsBitmap@@1VTSize@@@Z @ 149 NONAME ; class CPbk2IconInfo * CPbk2IconInfo::NewLC(class TPbk2IconId, class CFbsBitmap const *, class CFbsBitmap const *, class TSize)
	?InstanceL@CPbk2ApplicationServices@@SAPAV1@XZ @ 150 NONAME ; class CPbk2ApplicationServices * CPbk2ApplicationServices::InstanceL(void)
	?BrandId@CPbk2PresenceIconInfo@@QAEABVTDesC8@@XZ @ 151 NONAME ; class TDesC8 const & CPbk2PresenceIconInfo::BrandId(void)
	?ElementId@CPbk2PresenceIconInfo@@QAEABVTDesC8@@XZ @ 152 NONAME ; class TDesC8 const & CPbk2PresenceIconInfo::ElementId(void)
	?NewL@CPbk2PresenceIconInfo@@SAPAV1@ABVTDesC8@@0ABVTDesC16@@@Z @ 153 NONAME ; class CPbk2PresenceIconInfo * CPbk2PresenceIconInfo::NewL(class TDesC8 const &, class TDesC8 const &, class TDesC16 const &)
	?ServiceName@CPbk2PresenceIconInfo@@QAEABVTDesC16@@XZ @ 154 NONAME ; class TDesC16 const & CPbk2PresenceIconInfo::ServiceName(void)
	?IconBitmap@CPbk2PresenceIconInfo@@QAEPBVCFbsBitmap@@XZ @ 155 NONAME ; class CFbsBitmap const * CPbk2PresenceIconInfo::IconBitmap(void)
	?IconBitmapMask@CPbk2PresenceIconInfo@@QAEPBVCFbsBitmap@@XZ @ 156 NONAME ; class CFbsBitmap const * CPbk2PresenceIconInfo::IconBitmapMask(void)
	?SetBitmap@CPbk2PresenceIconInfo@@QAEXPAVCFbsBitmap@@0@Z @ 157 NONAME ; void CPbk2PresenceIconInfo::SetBitmap(class CFbsBitmap *, class CFbsBitmap *)
	?LaunchStylusPopupMenu2L@CPbk2AppViewBase@@QAEAAVCAknStylusPopUpMenu@@HABVTPoint@@@Z @ 158 NONAME ; class CAknStylusPopUpMenu & CPbk2AppViewBase::LaunchStylusPopupMenu2L(int, class TPoint const &)
	?InstanceLC@CPbk2ApplicationServices@@SAPAV1@XZ @ 159 NONAME ; class CPbk2ApplicationServices * CPbk2ApplicationServices::InstanceLC(void)
	?AddForegroundObserver@CPbk2ControlContainerImpl@@QAEXPAVMPbk2ControlContainerForegroundEventObserver@@@Z @ 160 NONAME ; void CPbk2ControlContainerImpl::AddForegroundObserver(class MPbk2ControlContainerForegroundEventObserver *)
	?RemoveForegroundObserver@CPbk2ControlContainerImpl@@QAEXXZ @ 161 NONAME ; void CPbk2ControlContainerImpl::RemoveForegroundObserver(void)
	?RemoveIcon@CPbk2IconArray@@QAEHABVTPbk2IconId@@@Z @ 162 NONAME ; int CPbk2IconArray::RemoveIcon(class TPbk2IconId const &)
	?SetUiControlValid@CPbk2FieldFocusHelper@@QAEXH@Z @ 163 NONAME ; void CPbk2FieldFocusHelper::SetUiControlValid(int)

