EXPORTS
	??0CPbk2SetToneBase@@IAE@AAVMPbk2ContactUiControl@@@Z @ 1 NONAME ; CPbk2SetToneBase::CPbk2SetToneBase(class MPbk2ContactUiControl &)
	??0TPbk2CopyContactsResults@@QAE@HABVTDesC16@@@Z @ 2 NONAME ; TPbk2CopyContactsResults::TPbk2CopyContactsResults(int, class TDesC16 const &)
	??0TPbk2CopyContactsResults@@QAE@HH@Z @ 3 NONAME ; TPbk2CopyContactsResults::TPbk2CopyContactsResults(int, int)
	??0TPbk2CopyContactsResults@@QAE@XZ @ 4 NONAME ; TPbk2CopyContactsResults::TPbk2CopyContactsResults(void)
	??1CPbk2SetToneBase@@UAE@XZ @ 5 NONAME ; CPbk2SetToneBase::~CPbk2SetToneBase(void)
	?AddAndExecuteCommandL@CPbk2CommandStore@@UAEXPAVMPbk2Command@@@Z @ 6 NONAME ; void CPbk2CommandStore::AddAndExecuteCommandL(class MPbk2Command *)
	?AddObserver@CPbk2SetToneBase@@MAEXAAVMPbk2CommandObserver@@@Z @ 7 NONAME ; void CPbk2SetToneBase::AddObserver(class MPbk2CommandObserver &)
	?BaseConstructL@CPbk2SetToneBase@@IAEXXZ @ 8 NONAME ; void CPbk2SetToneBase::BaseConstructL(void)
	?CreateProgressDialogDecoratorL@Pbk2ProcessDecoratorFactory@@SAPAVMPbk2ProcessDecorator@@HH@Z @ 9 NONAME ; class MPbk2ProcessDecorator * Pbk2ProcessDecoratorFactory::CreateProgressDialogDecoratorL(int, int)
	?CreateWaitNoteDecoratorL@Pbk2ProcessDecoratorFactory@@SAPAVMPbk2ProcessDecorator@@HH@Z @ 10 NONAME ; class MPbk2ProcessDecorator * Pbk2ProcessDecoratorFactory::CreateWaitNoteDecoratorL(int, int)
	?DoCancel@CPbk2SetToneBase@@MAEXXZ @ 11 NONAME ; void CPbk2SetToneBase::DoCancel(void)
	?ExecuteLD@CPbk2SetToneBase@@MAEXXZ @ 12 NONAME ; void CPbk2SetToneBase::ExecuteLD(void)
	?IssueRequest@CPbk2SetToneBase@@IAEXXZ @ 13 NONAME ; void CPbk2SetToneBase::IssueRequest(void)
	?IssueStopRequest@CPbk2SetToneBase@@IAEXXZ @ 14 NONAME ; void CPbk2SetToneBase::IssueStopRequest(void)
	?NewL@CPbk2CommandHandler@@SAPAV1@XZ @ 15 NONAME ; class CPbk2CommandHandler * CPbk2CommandHandler::NewL(void)
	?NewL@CPbk2CommandStore@@SAPAV1@XZ @ 16 NONAME ; class CPbk2CommandStore * CPbk2CommandStore::NewL(void)
	?ProcessDismissed@CPbk2SetToneBase@@MAEXH@Z @ 17 NONAME ; void CPbk2SetToneBase::ProcessDismissed(int)
	?RelocateContactL@CPbk2SetToneBase@@IAEHPAVMVPbkStoreContact@@@Z @ 18 NONAME ; int CPbk2SetToneBase::RelocateContactL(class MVPbkStoreContact *)
	?ResetUiControl@CPbk2SetToneBase@@MAEXAAVMPbk2ContactUiControl@@@Z @ 19 NONAME ; void CPbk2SetToneBase::ResetUiControl(class MPbk2ContactUiControl &)
	?RetrieveContactL@CPbk2SetToneBase@@IAEXABVMVPbkContactLink@@@Z @ 20 NONAME ; void CPbk2SetToneBase::RetrieveContactL(class MVPbkContactLink const &)
	?RunError@CPbk2SetToneBase@@MAEHH@Z @ 21 NONAME ; int CPbk2SetToneBase::RunError(int)
	?RunL@CPbk2SetToneBase@@MAEXXZ @ 22 NONAME ; void CPbk2SetToneBase::RunL(void)
	?SetMultipleContactsCopiedTextRes@TPbk2CopyContactsResults@@QAEXH@Z @ 23 NONAME ; void TPbk2CopyContactsResults::SetMultipleContactsCopiedTextRes(int)
	?SetOneContactCopiedTextRes@TPbk2CopyContactsResults@@QAEXH@Z @ 24 NONAME ; void TPbk2CopyContactsResults::SetOneContactCopiedTextRes(int)
	?SetOneContactNotCopiedTextRes@TPbk2CopyContactsResults@@QAEXH@Z @ 25 NONAME ; void TPbk2CopyContactsResults::SetOneContactNotCopiedTextRes(int)
	?SetToneAndCommitL@CPbk2SetToneBase@@IAEXPAVMVPbkStoreContact@@@Z @ 26 NONAME ; void CPbk2SetToneBase::SetToneAndCommitL(class MVPbkStoreContact *)
	?ShowErrorNoteL@TPbk2CopyContactsResults@@QAEXXZ @ 27 NONAME ; void TPbk2CopyContactsResults::ShowErrorNoteL(void)
	?ShowNoteL@TPbk2CopyContactsResults@@QAEXXZ @ 28 NONAME ; void TPbk2CopyContactsResults::ShowNoteL(void)
	?DriveSpaceCheckL@CPbk2DriveSpaceCheck@@QAEXXZ @ 29 NONAME ; void CPbk2DriveSpaceCheck::DriveSpaceCheckL(void)
	?NewL@CPbk2DriveSpaceCheck@@SAPAV1@AAVRFs@@@Z @ 30 NONAME ; class CPbk2DriveSpaceCheck * CPbk2DriveSpaceCheck::NewL(class RFs &)
	?SetStore@CPbk2DriveSpaceCheck@@QAEXVTVPbkContactStoreUriPtr@@@Z @ 31 NONAME ; void CPbk2DriveSpaceCheck::SetStore(class TVPbkContactStoreUriPtr)
	??1CPbk2CommandActivator@@UAE@XZ @ 32 NONAME ; CPbk2CommandActivator::~CPbk2CommandActivator(void)
	?NewL@CPbk2CommandActivator@@SAPAV1@PAVMPbk2Command@@ABVMPbk2ContactUiControl@@@Z @ 33 NONAME ; class CPbk2CommandActivator * CPbk2CommandActivator::NewL(class MPbk2Command *, class MPbk2ContactUiControl const &)
	??0CPbk2AiwInterestItemBase@@QAE@HAAVCAiwServiceHandler@@@Z @ 34 NONAME ; CPbk2AiwInterestItemBase::CPbk2AiwInterestItemBase(int, class CAiwServiceHandler &)
	?IsMenuPaneAttached@CPbk2AiwInterestItemBase@@QAEHH@Z @ 35 NONAME ; int CPbk2AiwInterestItemBase::IsMenuPaneAttached(int)
	?AttachL@CPbk2AiwInterestItemBase@@UAEXHHH@Z @ 36 NONAME ; void CPbk2AiwInterestItemBase::AttachL(int, int, int)
	?InterestId@CPbk2AiwInterestItemBase@@UBEHXZ @ 37 NONAME ; int CPbk2AiwInterestItemBase::InterestId(void) const
	?SetStore@CPbk2DriveSpaceCheck@@QAEXABVTDesC16@@@Z @ 38 NONAME ; void CPbk2DriveSpaceCheck::SetStore(class TDesC16 const &)

