EXPORTS
	?ExecuteLD@CPbk2GeneralConfirmationQuery@@QAEHABVMVPbkBaseContact@@H@Z @ 1 NONAME ; int CPbk2GeneralConfirmationQuery::ExecuteLD(class MVPbkBaseContact const &, int)
	?NewL@CPbk2ContactInfoControl@@SAPAV1@PBVCCoeControl@@AAVCVPbkContactManager@@AAVMPbk2ContactNameFormatter@@AAVMPbk2FieldPropertyArray@@AAVCPbk2StorePropertyArray@@PAVMPbk2ContactNavigation@@@Z @ 2 NONAME ; class CPbk2ContactInfoControl * CPbk2ContactInfoControl::NewL(class CCoeControl const *, class CVPbkContactManager &, class MPbk2ContactNameFormatter &, class MPbk2FieldPropertyArray &, class CPbk2StorePropertyArray &, class MPbk2ContactNavigation *)
	?MapViewTypeToAddress@Pbk2AddressTools@@SA?AW4TPbk2FieldGroupId@@W4TActiveView@TPbk2ContactEditorParams@@@Z @ 3 NONAME ; enum TPbk2FieldGroupId Pbk2AddressTools::MapViewTypeToAddress(enum TPbk2ContactEditorParams::TActiveView)
	??0TParams@CPbk2FetchDlg@@QAE@XZ @ 4 NONAME ; CPbk2FetchDlg::TParams::TParams(void)
	?SetAllItemTextL@CPbk2StoreListQuery@@QAEXABVTDesC16@@H@Z @ 5 NONAME ; void CPbk2StoreListQuery::SetAllItemTextL(class TDesC16 const &, int)
	??0TPbk2AddItemWrapper@@QAE@ABVMPbk2FieldProperty@@@Z @ 6 NONAME ; TPbk2AddItemWrapper::TPbk2AddItemWrapper(class MPbk2FieldProperty const &)
	?ExecuteLD@CPbk2PhonebookInfoDlg@@QAEXAAVCVPbkContactStoreUriArray@@@Z @ 7 NONAME ; void CPbk2PhonebookInfoDlg::ExecuteLD(class CVPbkContactStoreUriArray &)
	?SetTimeFormatL@CPbk2FieldFormatter@@QAEXABVTDesC16@@@Z @ 8 NONAME ; void CPbk2FieldFormatter::SetTimeFormatL(class TDesC16 const &)
	?StopWait@CPbk2InputAbsorber@@QAEXXZ @ 9 NONAME ; void CPbk2InputAbsorber::StopWait(void)
	??0TPbk2AddItemWrapper@@QAE@ABVCPbk2FieldPropertyGroup@@@Z @ 10 NONAME ; TPbk2AddItemWrapper::TPbk2AddItemWrapper(class CPbk2FieldPropertyGroup const &)
	?RemoveDefaultsL@CPbk2DefaultAttributeProcess@@QAEXPAV?$CArrayFixFlat@W4TVPbkDefaultType@@@@@Z @ 11 NONAME ; void CPbk2DefaultAttributeProcess::RemoveDefaultsL(class CArrayFixFlat<enum TVPbkDefaultType> *)
	?NewL@CPbk2DefaultAttributeProcess@@SAPAV1@AAVCVPbkContactManager@@AAVMVPbkStoreContact@@AAVMPbk2DefaultAttributeProcessObserver@@@Z @ 12 NONAME ; class CPbk2DefaultAttributeProcess * CPbk2DefaultAttributeProcess::NewL(class CVPbkContactManager &, class MVPbkStoreContact &, class MPbk2DefaultAttributeProcessObserver &)
	?SetDefaultL@CPbk2DefaultAttributeProcess@@QAEXW4TVPbkDefaultType@@AAVMVPbkStoreContactField@@@Z @ 13 NONAME ; void CPbk2DefaultAttributeProcess::SetDefaultL(enum TVPbkDefaultType, class MVPbkStoreContactField &)
	?ExecuteLD@CPbk2AddItemToContactDlg@@QAEHAAV?$RArray@VTPbk2AddItemWrapper@@@@PBVTPbk2AddItemDialogParams@@@Z @ 14 NONAME ; int CPbk2AddItemToContactDlg::ExecuteLD(class RArray<class TPbk2AddItemWrapper> &, class TPbk2AddItemDialogParams const *)
	?SetFocusedStoreContact@CPbk2ContactUiControlSubstitute@@QAEXABVMVPbkStoreContact@@@Z @ 15 NONAME ; void CPbk2ContactUiControlSubstitute::SetFocusedStoreContact(class MVPbkStoreContact const &)
	?NewL@CPbk2ThumbnailManager@@SAPAV1@AAVCVPbkContactManager@@@Z @ 16 NONAME ; class CPbk2ThumbnailManager * CPbk2ThumbnailManager::NewL(class CVPbkContactManager &)
	?NewL@CPbk2SettingsListControl@@SAPAV1@PBVCCoeControl@@AAVCPbk2SortOrderManager@@AAVMPbk2SettingsControlExtension@@@Z @ 17 NONAME ; class CPbk2SettingsListControl * CPbk2SettingsListControl::NewL(class CCoeControl const *, class CPbk2SortOrderManager &, class MPbk2SettingsControlExtension &)
	?NewL@CPbk2ContactUiControlSubstitute@@SAPAV1@XZ @ 18 NONAME ; class CPbk2ContactUiControlSubstitute * CPbk2ContactUiControlSubstitute::NewL(void)
	?ExecuteLD@CPbk2GeneralConfirmationQuery@@QAEHHH@Z @ 19 NONAME ; int CPbk2GeneralConfirmationQuery::ExecuteLD(int, int)
	?Wait@CPbk2InputAbsorber@@QAEXXZ @ 20 NONAME ; void CPbk2InputAbsorber::Wait(void)
	?StopQuery@CPbk2GeneralConfirmationQuery@@QAEXXZ @ 21 NONAME ; void CPbk2GeneralConfirmationQuery::StopQuery(void)
	?SetCba@CPbk2AddressSelect@@QAEXH@Z @ 22 NONAME ; void CPbk2AddressSelect::SetCba(int)
	?LoadThumbnailL@CPbk2ThumbnailLoader@@QAEXPAVMVPbkContactLink@@PBVCEikListBox@@W4TPbk2ThumbnailLocation@@@Z @ 23 NONAME ; void CPbk2ThumbnailLoader::LoadThumbnailL(class MVPbkContactLink *, class CEikListBox const *, enum TPbk2ThumbnailLocation)
	?NewL@CPbk2MemoryEntryDefaultsAssignDlg@@SAPAV1@XZ @ 24 NONAME ; class CPbk2MemoryEntryDefaultsAssignDlg * CPbk2MemoryEntryDefaultsAssignDlg::NewL(void)
	?ExecuteLD@CPbk2GeneralConfirmationQuery@@QAEHABVMVPbkBaseContact@@HH@Z @ 25 NONAME ; int CPbk2GeneralConfirmationQuery::ExecuteLD(class MVPbkBaseContact const &, int, int)
	??1CPbk2AddressSelect@@UAE@XZ @ 26 NONAME ; CPbk2AddressSelect::~CPbk2AddressSelect(void)
	?MapVPbkFieldTypeToAddressGroupId@Pbk2AddressTools@@SA?AW4TPbk2FieldGroupId@@PBVMVPbkFieldType@@@Z @ 27 NONAME ; enum TPbk2FieldGroupId Pbk2AddressTools::MapVPbkFieldTypeToAddressGroupId(class MVPbkFieldType const *)
	?GetAddressShortPreviewLC@Pbk2AddressTools@@SAXAAVMVPbkStoreContact@@W4TPbk2FieldGroupId@@AAVRBuf16@@@Z @ 28 NONAME ; void Pbk2AddressTools::GetAddressShortPreviewLC(class MVPbkStoreContact &, enum TPbk2FieldGroupId, class RBuf16 &)
	?NewL@CPbk2NamesListControl@@SAPAV1@HPBVCCoeControl@@AAVCVPbkContactManager@@AAVMVPbkContactViewBase@@AAVMPbk2ContactNameFormatter@@AAVCPbk2StorePropertyArray@@PAVCPbk2ThumbnailManager@@@Z @ 29 NONAME ; class CPbk2NamesListControl * CPbk2NamesListControl::NewL(int, class CCoeControl const *, class CVPbkContactManager &, class MVPbkContactViewBase &, class MPbk2ContactNameFormatter &, class CPbk2StorePropertyArray &, class CPbk2ThumbnailManager *)
	?AcceptDelayedFetchL@CPbk2FetchDlg@@QAEXABVTDesC8@@@Z @ 30 NONAME ; void CPbk2FetchDlg::AcceptDelayedFetchL(class TDesC8 const &)
	?SetViewL@CPbk2NamesListControl@@QAEXAAVMVPbkContactViewBase@@@Z @ 31 NONAME ; void CPbk2NamesListControl::SetViewL(class MVPbkContactViewBase &)
	?CreateTitlePanePictureLC@Pbk2TitlePanePictureFactory@@SAPAVCEikImage@@PBVMVPbkStoreContact@@AAVCPbk2StorePropertyArray@@@Z @ 32 NONAME ; class CEikImage * Pbk2TitlePanePictureFactory::CreateTitlePanePictureLC(class MVPbkStoreContact const *, class CPbk2StorePropertyArray &)
	?SetCommandObserver@CPbk2InputAbsorber@@QAEXPAVMEikCommandObserver@@@Z @ 33 NONAME ; void CPbk2InputAbsorber::SetCommandObserver(class MEikCommandObserver *)
	?InitializeL@CPbk2ContactEditorReadonlyField@@QAEXPAVMPbk2ContactEditorUIField@@@Z @ 34 NONAME ; void CPbk2ContactEditorReadonlyField::InitializeL(class MPbk2ContactEditorUIField *)
	?SetCurrentGroupLinkL@CPbk2NamesListControl@@QAEXPAVMVPbkContactLink@@@Z @ 35 NONAME ; void CPbk2NamesListControl::SetCurrentGroupLinkL(class MVPbkContactLink *)
	?Reset@CPbk2NamesListControl@@QAEXXZ @ 36 NONAME ; void CPbk2NamesListControl::Reset(void)
	?RemoveObserver@CPbk2ContactInfoControl@@QAEXAAVMPbk2ControlObserver@@@Z @ 37 NONAME ; void CPbk2ContactInfoControl::RemoveObserver(class MPbk2ControlObserver &)
	?NewL@CPbk2StoreListQuery@@SAPAV1@XZ @ 38 NONAME ; class CPbk2StoreListQuery * CPbk2StoreListQuery::NewL(void)
	?NewLC@CPbk2InputAbsorber@@SAPAV1@H@Z @ 39 NONAME ; class CPbk2InputAbsorber * CPbk2InputAbsorber::NewLC(int)
	?NewL@CPbk2MergePhotoConflictDlg@@SAPAV1@PAVMVPbkBaseContact@@0PAH@Z @ 40 NONAME ; class CPbk2MergePhotoConflictDlg * CPbk2MergePhotoConflictDlg::NewL(class MVPbkBaseContact *, class MVPbkBaseContact *, int *)
	??0CPbk2NamesListControl@@QAE@PBVCCoeControl@@AAVCVPbkContactManager@@AAVMVPbkContactViewBase@@AAVMPbk2ContactNameFormatter@@AAVCPbk2StorePropertyArray@@@Z @ 41 NONAME ; CPbk2NamesListControl::CPbk2NamesListControl(class CCoeControl const *, class CVPbkContactManager &, class MVPbkContactViewBase &, class MPbk2ContactNameFormatter &, class CPbk2StorePropertyArray &)
	?SetTextL@CPbk2ContactEditorReadonlyField@@QAEXPBVTDesC16@@@Z @ 42 NONAME ; void CPbk2ContactEditorReadonlyField::SetTextL(class TDesC16 const *)
	?GiveViewL@CPbk2NamesListControl@@QAEXPAVMVPbkContactViewBase@@@Z @ 43 NONAME ; void CPbk2NamesListControl::GiveViewL(class MVPbkContactViewBase *)
	?FieldLabel@CPbk2ContactEditorUIFieldBase@@UBEABVTDesC16@@XZ @ 44 NONAME ; class TDesC16 const & CPbk2ContactEditorUIFieldBase::FieldLabel(void) const
	?RemoveDefaultL@CPbk2DefaultAttributeProcess@@QAEXW4TVPbkDefaultType@@@Z @ 45 NONAME ; void CPbk2DefaultAttributeProcess::RemoveDefaultL(enum TVPbkDefaultType)
	?MassUpdateSkipProgressNote@CPbk2NamesListControl@@QAEXH@Z @ 46 NONAME ; void CPbk2NamesListControl::MassUpdateSkipProgressNote(int)
	?MapAddressToVersitParam@Pbk2AddressTools@@SA?AW4TVPbkFieldTypeParameter@@W4TPbk2FieldGroupId@@@Z @ 47 NONAME ; enum TVPbkFieldTypeParameter Pbk2AddressTools::MapAddressToVersitParam(enum TPbk2FieldGroupId)
	??0TPbk2AddressSelectParams@@QAE@AAVMVPbkStoreContact@@ABVCVPbkContactManager@@AAVMPbk2ContactNameFormatter@@ABVCPbk2FieldPropertyArray@@AAVTResourceReader@@H@Z @ 48 NONAME ; TPbk2AddressSelectParams::TPbk2AddressSelectParams(class MVPbkStoreContact &, class CVPbkContactManager const &, class MPbk2ContactNameFormatter &, class CPbk2FieldPropertyArray const &, class TResourceReader &, int)
	?NewL@CPbk2MergeConflictsDlg@@SAPAV1@PAVMPbk2MergeResolver@@H@Z @ 49 NONAME ; class CPbk2MergeConflictsDlg * CPbk2MergeConflictsDlg::NewL(class MPbk2MergeResolver *, int)
	?NewL@CPbk2ContactIconsUtils@@SAPAV1@AAVCPbk2StorePropertyArray@@PAVMPbk2ContactUiControlExtension@@@Z @ 50 NONAME ; class CPbk2ContactIconsUtils * CPbk2ContactIconsUtils::NewL(class CPbk2StorePropertyArray &, class MPbk2ContactUiControlExtension *)
	?HandleCustomFieldCommandL@CPbk2ContactEditorUIFieldBase@@UAEHH@Z @ 51 NONAME ; int CPbk2ContactEditorUIFieldBase::HandleCustomFieldCommandL(int)
	?NewL@CPbk2InputAbsorber@@SAPAV1@H@Z @ 52 NONAME ; class CPbk2InputAbsorber * CPbk2InputAbsorber::NewL(int)
	??BTParams@CPbk2FetchDlg@@QAE?AVTCleanupItem@@XZ @ 53 NONAME ; CPbk2FetchDlg::TParams::operator class TCleanupItem(void)
	?SetDefaultPriorities@TPbk2AddressSelectParams@@QAEXABVRVPbkContactFieldDefaultPriorities@@@Z @ 54 NONAME ; void TPbk2AddressSelectParams::SetDefaultPriorities(class RVPbkContactFieldDefaultPriorities const &)
	?CreatePhoneNumberFormatterL@Pbk2PhoneNumberFormatterFactory@@SAPAVMPbk2PhoneNumberFormatter@@H@Z @ 55 NONAME ; class MPbk2PhoneNumberFormatter * Pbk2PhoneNumberFormatterFactory::CreatePhoneNumberFormatterL(int)
	?RemoveObserver@CPbk2NamesListControl@@QAEXAAVMPbk2ControlObserver@@@Z @ 56 NONAME ; void CPbk2NamesListControl::RemoveObserver(class MPbk2ControlObserver &)
	?HideThumbnail@CPbk2ThumbnailLoader@@QAEXXZ @ 57 NONAME ; void CPbk2ThumbnailLoader::HideThumbnail(void)
	?CreateListboxIconArrayL@CPbk2ContactIconsUtils@@SAPAVCPbk2IconArray@@H@Z @ 58 NONAME ; class CPbk2IconArray * CPbk2ContactIconsUtils::CreateListboxIconArrayL(int)
	?SetFieldLabelL@CPbk2ContactEditorUIFieldBase@@UAEXABVTDesC16@@@Z @ 59 NONAME ; void CPbk2ContactEditorUIFieldBase::SetFieldLabelL(class TDesC16 const &)
	?NewL@CPbk2ThumbnailLoader@@SAPAV1@AAVCVPbkContactManager@@@Z @ 60 NONAME ; class CPbk2ThumbnailLoader * CPbk2ThumbnailLoader::NewL(class CVPbkContactManager &)
	?NewL@CPbk2PhonebookInfoDlg@@SAPAV1@XZ @ 61 NONAME ; class CPbk2PhonebookInfoDlg * CPbk2PhonebookInfoDlg::NewL(void)
	?NewL@CPbk2NamesListControl@@SAPAV1@HPBVCCoeControl@@AAVCVPbkContactManager@@AAVMVPbkContactViewBase@@AAVMPbk2ContactNameFormatter@@AAVCPbk2StorePropertyArray@@@Z @ 62 NONAME ; class CPbk2NamesListControl * CPbk2NamesListControl::NewL(int, class CCoeControl const *, class CVPbkContactManager &, class MVPbkContactViewBase &, class MPbk2ContactNameFormatter &, class CPbk2StorePropertyArray &)
	?AllowPointerEvents@CPbk2NamesListControl@@QAEXH@Z @ 63 NONAME ; void CPbk2NamesListControl::AllowPointerEvents(int)
	?GetIconIdsForContactL@CPbk2ContactIconsUtils@@QBEXABVMVPbkViewContact@@AAV?$RArray@VTPbk2IconId@@@@@Z @ 64 NONAME ; void CPbk2ContactIconsUtils::GetIconIdsForContactL(class MVPbkViewContact const &, class RArray<class TPbk2IconId> &) const
	?ExecuteLD@CPbk2MemoryEntryDefaultsDlg@@QAEXXZ @ 65 NONAME ; void CPbk2MemoryEntryDefaultsDlg::ExecuteLD(void)
	?NewL@CPbk2GeneralConfirmationQuery@@SAPAV1@XZ @ 66 NONAME ; class CPbk2GeneralConfirmationQuery * CPbk2GeneralConfirmationQuery::NewL(void)
	?SetDefaultsL@CPbk2DefaultAttributeProcess@@QAEXPAV?$CArrayFixFlat@W4TVPbkDefaultType@@@@AAVMVPbkStoreContactField@@@Z @ 67 NONAME ; void CPbk2DefaultAttributeProcess::SetDefaultsL(class CArrayFixFlat<enum TVPbkDefaultType> *, class MVPbkStoreContactField &)
	?NewL@CPbk2MemoryEntryDefaultsDlg@@SAPAV1@AAVCPbk2PresentationContact@@AAVCVPbkContactManager@@@Z @ 68 NONAME ; class CPbk2MemoryEntryDefaultsDlg * CPbk2MemoryEntryDefaultsDlg::NewL(class CPbk2PresentationContact &, class CVPbkContactManager &)
	?AttemptExitL@CPbk2AddressSelect@@QAEXH@Z @ 69 NONAME ; void CPbk2AddressSelect::AttemptExitL(int)
	?SetFocusedFieldIndex@CPbk2ContactUiControlSubstitute@@UAEXH@Z @ 70 NONAME ; void CPbk2ContactUiControlSubstitute::SetFocusedFieldIndex(int)
	?SetUseDefaultDirectly@TPbk2AddressSelectParams@@QAEXH@Z @ 71 NONAME ; void TPbk2AddressSelectParams::SetUseDefaultDirectly(int)
	?ExecuteLD@CPbk2ContactEditorDlg@@QAEXXZ @ 72 NONAME ; void CPbk2ContactEditorDlg::ExecuteLD(void)
	?SetFocus@CPbk2ContactEditorUIFieldBase@@UAEXXZ @ 73 NONAME ; void CPbk2ContactEditorUIFieldBase::SetFocus(void)
	?Refresh@CPbk2ThumbnailLoader@@QAEXXZ @ 74 NONAME ; void CPbk2ThumbnailLoader::Refresh(void)
	?ExecuteLD@CPbk2FetchDlg@@QAEHXZ @ 75 NONAME ; int CPbk2FetchDlg::ExecuteLD(void)
	?NewL@CPbk2UIFieldArray@@SAPAV1@ABVTDesC16@@AAVRFs@@AAVMPbk2UIFieldFactory@@@Z @ 76 NONAME ; class CPbk2UIFieldArray * CPbk2UIFieldArray::NewL(class TDesC16 const &, class RFs &, class MPbk2UIFieldFactory &)
	?CommitSettingsL@CPbk2SettingsListControl@@QAEXXZ @ 77 NONAME ; void CPbk2SettingsListControl::CommitSettingsL(void)
	?NewL@CPbk2AddressSelect@@SAPAV1@AAVTPbk2AddressSelectParams@@@Z @ 78 NONAME ; class CPbk2AddressSelect * CPbk2AddressSelect::NewL(class TPbk2AddressSelectParams &)
	?Reset@CPbk2ThumbnailLoader@@QAEXXZ @ 79 NONAME ; void CPbk2ThumbnailLoader::Reset(void)
	?ExecuteLD@CPbk2MemoryEntryDefaultsAssignDlg@@QAEHABVCPbk2PresentationContactFieldCollection@@ABVCVPbkContactManager@@ABVMPbk2FieldPropertyArray@@W4TVPbkContactActionTypeSelector@VPbkFieldTypeSelectorFactory@@@Z @ 80 NONAME ; int CPbk2MemoryEntryDefaultsAssignDlg::ExecuteLD(class CPbk2PresentationContactFieldCollection const &, class CVPbkContactManager const &, class MPbk2FieldPropertyArray const &, enum VPbkFieldTypeSelectorFactory::TVPbkContactActionTypeSelector)
	?NewL@CPbk2AddressSelect@@SAPAV1@AAVTPbk2AddressSelectParams@@AAVCVPbkFieldTypeSelector@@PBV?$TArray@PAVMVPbkStoreContact@@@@PBV?$TArray@PAVCPbk2PresenceIconInfo@@@@@Z @ 81 NONAME ; class CPbk2AddressSelect * CPbk2AddressSelect::NewL(class TPbk2AddressSelectParams &, class CVPbkFieldTypeSelector &, class TArray<class MVPbkStoreContact *> const *, class TArray<class CPbk2PresenceIconInfo *> const *)
	?PropertyCount@TPbk2AddItemWrapper@@QBEHXZ @ 82 NONAME ; int TPbk2AddItemWrapper::PropertyCount(void) const
	?ExecuteLD@CPbk2AddressSelect@@QAEPAVMVPbkStoreContactField@@XZ @ 83 NONAME ; class MVPbkStoreContactField * CPbk2AddressSelect::ExecuteLD(void)
	?ControlId@CPbk2ContactEditorUIFieldBase@@UAEHXZ @ 84 NONAME ; int CPbk2ContactEditorUIFieldBase::ControlId(void)
	?IsWaiting@CPbk2InputAbsorber@@QBEHXZ @ 85 NONAME ; int CPbk2InputAbsorber::IsWaiting(void) const
	??1CPbk2ContactEditorUIFieldBase@@UAE@XZ @ 86 NONAME ; CPbk2ContactEditorUIFieldBase::~CPbk2ContactEditorUIFieldBase(void)
	?SetFocusedField@CPbk2ContactUiControlSubstitute@@QAEXABVMVPbkBaseContactField@@@Z @ 87 NONAME ; void CPbk2ContactUiControlSubstitute::SetFocusedField(class MVPbkBaseContactField const &)
	?GetAddressPreviewLC@Pbk2AddressTools@@SAXAAVMVPbkStoreContact@@W4TPbk2FieldGroupId@@AAVRBuf16@@@Z @ 88 NONAME ; void Pbk2AddressTools::GetAddressPreviewLC(class MVPbkStoreContact &, enum TPbk2FieldGroupId, class RBuf16 &)
	?NewL@CPbk2AddItemToContactDlg@@SAPAV1@XZ @ 89 NONAME ; class CPbk2AddItemToContactDlg * CPbk2AddItemToContactDlg::NewL(void)
	?NewL@CPbk2FieldFormatter@@SAPAV1@ABVMPbk2FieldPropertyArray@@ABVMVPbkFieldTypeList@@@Z @ 90 NONAME ; class CPbk2FieldFormatter * CPbk2FieldFormatter::NewL(class MPbk2FieldPropertyArray const &, class MVPbkFieldTypeList const &)
	?NewL@CPbk2PrependDlg@@SAPAV1@AAVTDes16@@@Z @ 91 NONAME ; class CPbk2PrependDlg * CPbk2PrependDlg::NewL(class TDes16 &)
	?AddObserverL@CPbk2NamesListControl@@QAEXAAVMPbk2ControlObserver@@@Z @ 92 NONAME ; void CPbk2NamesListControl::AddObserverL(class MPbk2ControlObserver &)
	?FormatFieldContentL@CPbk2FieldFormatter@@QAE?AVTPtrC16@@ABVMVPbkBaseContactField@@ABVMVPbkFieldType@@@Z @ 93 NONAME ; class TPtrC16 CPbk2FieldFormatter::FormatFieldContentL(class MVPbkBaseContactField const &, class MVPbkFieldType const &)
	?SetTitleToIncludeContactName@TPbk2AddressSelectParams@@QAEXH@Z @ 94 NONAME ; void TPbk2AddressSelectParams::SetTitleToIncludeContactName(int)
	?SetSelectedStore@CPbk2ContactUiControlSubstitute@@QAEXAAVMVPbkContactStore@@@Z @ 95 NONAME ; void CPbk2ContactUiControlSubstitute::SetSelectedStore(class MVPbkContactStore &)
	?SetFocusedField@TPbk2AddressSelectParams@@QAEXPBVMVPbkStoreContactField@@@Z @ 96 NONAME ; void TPbk2AddressSelectParams::SetFocusedField(class MVPbkStoreContactField const *)
	?GetAddressFieldsLC@Pbk2AddressTools@@SAXAAVMVPbkStoreContact@@W4TPbk2FieldGroupId@@AAV?$RHashMap@HVTPtrC16@@@@@Z @ 97 NONAME ; void Pbk2AddressTools::GetAddressFieldsLC(class MVPbkStoreContact &, enum TPbk2FieldGroupId, class RHashMap<int, class TPtrC16> &)
	?SetParentUiControl@CPbk2ContactUiControlSubstitute@@QAEXAAVMPbk2ContactUiControl@@@Z @ 98 NONAME ; void CPbk2ContactUiControlSubstitute::SetParentUiControl(class MPbk2ContactUiControl &)
	?ExecuteLD@CPbk2StoreListQuery@@QAEHABVTDesC16@@AAVCVPbkContactStoreUriArray@@@Z @ 99 NONAME ; int CPbk2StoreListQuery::ExecuteLD(class TDesC16 const &, class CVPbkContactStoreUriArray &)
	?DenyDelayedFetchL@CPbk2FetchDlg@@QAEXABVTDesC8@@@Z @ 100 NONAME ; void CPbk2FetchDlg::DenyDelayedFetchL(class TDesC8 const &)
	??0CPbk2ContactEditorUIFieldBase@@IAE@PAVMPbk2UIField@@AAVMPbk2ContactEditorUiBuilder@@AAVCPbk2IconInfoContainer@@H@Z @ 101 NONAME ; CPbk2ContactEditorUIFieldBase::CPbk2ContactEditorUIFieldBase(class MPbk2UIField *, class MPbk2ContactEditorUiBuilder &, class CPbk2IconInfoContainer &, int)
	?LoadThumbnail@CPbk2ThumbnailLoader@@QAEXPAVMVPbkStoreContact@@PBVCEikListBox@@W4TPbk2ThumbnailLocation@@@Z @ 102 NONAME ; void CPbk2ThumbnailLoader::LoadThumbnail(class MVPbkStoreContact *, class CEikListBox const *, enum TPbk2ThumbnailLocation)
	?LoadBitmapToFieldL@CPbk2ContactEditorUIFieldBase@@UAEXABVTPbk2IconId@@@Z @ 103 NONAME ; void CPbk2ContactEditorUIFieldBase::LoadBitmapToFieldL(class TPbk2IconId const &)
	?MapCtrlTypeToAddress@Pbk2AddressTools@@SA?AW4TPbk2FieldGroupId@@H@Z @ 104 NONAME ; enum TPbk2FieldGroupId Pbk2AddressTools::MapCtrlTypeToAddress(int)
	?MapAddressToOrdering@Pbk2AddressTools@@SAHW4TPbk2FieldGroupId@@@Z @ 105 NONAME ; int Pbk2AddressTools::MapAddressToOrdering(enum TPbk2FieldGroupId)
	?SetOpeningCca@CPbk2NamesListControl@@QAEXH@Z @ 106 NONAME ; void CPbk2NamesListControl::SetOpeningCca(int)
	?ConsumesKeyEvent@CPbk2ContactEditorUIFieldBase@@UAEHABUTKeyEvent@@W4TEventCode@@@Z @ 107 NONAME ; int CPbk2ContactEditorUIFieldBase::ConsumesKeyEvent(struct TKeyEvent const &, enum TEventCode)
	?IsAddressPreviewEmptyL@Pbk2AddressTools@@SAHAAVMVPbkStoreContact@@W4TPbk2FieldGroupId@@@Z @ 108 NONAME ; int Pbk2AddressTools::IsAddressPreviewEmptyL(class MVPbkStoreContact &, enum TPbk2FieldGroupId)
	?MapCtrlTypeToViewType@Pbk2AddressTools@@SA?AW4TActiveView@TPbk2ContactEditorParams@@H@Z @ 109 NONAME ; enum TPbk2ContactEditorParams::TActiveView Pbk2AddressTools::MapCtrlTypeToViewType(int)
	?NewL@CPbk2AddItemToContactDlg@@SAPAV1@PAVMPbk2ApplicationServices@@@Z @ 110 NONAME ; class CPbk2AddItemToContactDlg * CPbk2AddItemToContactDlg::NewL(class MPbk2ApplicationServices *)
	?SetQueryAlways@TPbk2AddressSelectParams@@QAEXH@Z @ 111 NONAME ; void TPbk2AddressSelectParams::SetQueryAlways(int)
	?PropertyAt@TPbk2AddItemWrapper@@QBEABVMPbk2FieldProperty@@H@Z @ 112 NONAME ; class MPbk2FieldProperty const & TPbk2AddItemWrapper::PropertyAt(int) const
	?Pbk2ControlKeyEventL@CPbk2AddressSelect@@UAE?AW4TKeyResponse@@ABUTKeyEvent@@W4TEventCode@@@Z @ 113 NONAME ; enum TKeyResponse CPbk2AddressSelect::Pbk2ControlKeyEventL(struct TKeyEvent const &, enum TEventCode)
	?AddObserverL@CPbk2ContactInfoControl@@QAEXAAVMPbk2ControlObserver@@@Z @ 114 NONAME ; void CPbk2ContactInfoControl::AddObserverL(class MPbk2ControlObserver &)
	?HandleViewForegroundEventL@CPbk2NamesListControl@@QAEXH@Z @ 115 NONAME ; void CPbk2NamesListControl::HandleViewForegroundEventL(int)
	?NewL@CPbk2ContactEditorDlg@@SAPAV1@AAVTPbk2ContactEditorParams@@PAVMVPbkStoreContact@@AAVMPbk2EditedContactObserver@@PAVMPbk2ApplicationServices@@PAVHBufC16@@H@Z @ 116 NONAME ; class CPbk2ContactEditorDlg * CPbk2ContactEditorDlg::NewL(class TPbk2ContactEditorParams &, class MVPbkStoreContact *, class MPbk2EditedContactObserver &, class MPbk2ApplicationServices *, class HBufC16 *, int)
	?UIField@CPbk2ContactEditorUIFieldBase@@UBEPAVMPbk2UIField@@XZ @ 117 NONAME ; class MPbk2UIField * CPbk2ContactEditorUIFieldBase::UIField(void) const
	?SetSuppressWarnings@TPbk2AddressSelectParams@@QAEXH@Z @ 118 NONAME ; void TPbk2AddressSelectParams::SetSuppressWarnings(int)
	?NewL@CPbk2FetchDlg@@SAPAV1@VTParams@1@AAVMPbk2FetchDlgObserver@@@Z @ 119 NONAME ; class CPbk2FetchDlg * CPbk2FetchDlg::NewL(class CPbk2FetchDlg::TParams, class MPbk2FetchDlgObserver &)
	??1CPbk2ContactUiControlSubstitute@@UAE@XZ @ 120 NONAME ; CPbk2ContactUiControlSubstitute::~CPbk2ContactUiControlSubstitute(void)
	?ControlText@CPbk2ContactEditorUIFieldBase@@UBEABVTDesC16@@XZ @ 121 NONAME ; class TDesC16 const & CPbk2ContactEditorUIFieldBase::ControlText(void) const
	?NewL@CPbk2ContactEditorDlg@@SAPAV1@AAVTPbk2ContactEditorParams@@PAVMVPbkStoreContact@@AAVMPbk2EditedContactObserver@@@Z @ 122 NONAME ; class CPbk2ContactEditorDlg * CPbk2ContactEditorDlg::NewL(class TPbk2ContactEditorParams &, class MVPbkStoreContact *, class MPbk2EditedContactObserver &)

