EXPORTS
	??0RxSPViewServices@@QAE@XZ @ 1 NONAME ; RxSPViewServices::RxSPViewServices(void)
	?Activate@RxSPViewServices@@QAEHKH@Z @ 2 NONAME ; int RxSPViewServices::Activate(unsigned long, int)
	?Activate@RxSPViewServices@@QAEHKHAAVTPtr8@@@Z @ 3 NONAME ; int RxSPViewServices::Activate(unsigned long, int, class TPtr8 &)
	?Activate@RxSPViewServices@@QAEXKHAAVTPtr8@@AAVTRequestStatus@@@Z @ 4 NONAME ; void RxSPViewServices::Activate(unsigned long, int, class TPtr8 &, class TRequestStatus &)
	?ActivateL@RxSPViewServices@@QAEXKHPAVMVPbkContactLink@@H@Z @ 5 NONAME ; void RxSPViewServices::ActivateL(unsigned long, int, class MVPbkContactLink *, int)
	?CancelActivate@RxSPViewServices@@QBEHXZ @ 6 NONAME ; int RxSPViewServices::CancelActivate(void) const
	?CancelGetPackedViewData@RxSPViewServices@@QBEHXZ @ 7 NONAME ; int RxSPViewServices::CancelGetPackedViewData(void) const
	?CancelGetPackedViewDataBufferLength@RxSPViewServices@@QBEHXZ @ 8 NONAME ; int RxSPViewServices::CancelGetPackedViewDataBufferLength(void) const
	?CancelGetViewCount@RxSPViewServices@@QBEHXZ @ 9 NONAME ; int RxSPViewServices::CancelGetViewCount(void) const
	?Close@RxSPViewServices@@QAEXXZ @ 10 NONAME ; void RxSPViewServices::Close(void)
	?EComId@CxSPViewData@@QBEKXZ @ 11 NONAME ; unsigned long CxSPViewData::EComId(void) const
	?GetPackedViewData@RxSPViewServices@@QAEHHAAVTDes8@@AAVTRequestStatus@@@Z @ 12 NONAME ; int RxSPViewServices::GetPackedViewData(int, class TDes8 &, class TRequestStatus &)
	?GetPackedViewData@RxSPViewServices@@QBEHHAAVTDes8@@@Z @ 13 NONAME ; int RxSPViewServices::GetPackedViewData(int, class TDes8 &) const
	?GetPackedViewDataBufferLength@RxSPViewServices@@QAEHHAAHAAVTRequestStatus@@@Z @ 14 NONAME ; int RxSPViewServices::GetPackedViewDataBufferLength(int, int &, class TRequestStatus &)
	?GetPackedViewDataBufferLength@RxSPViewServices@@QBEHHAAH@Z @ 15 NONAME ; int RxSPViewServices::GetPackedViewDataBufferLength(int, int &) const
	?GetViewCount@RxSPViewServices@@QAEHAAHAAVTRequestStatus@@@Z @ 16 NONAME ; int RxSPViewServices::GetViewCount(int &, class TRequestStatus &)
	?GetViewCount@RxSPViewServices@@QBEHAAH@Z @ 17 NONAME ; int RxSPViewServices::GetViewCount(int &) const
	?IconFile@CxSPViewData@@QBEABVTDesC16@@XZ @ 18 NONAME ; class TDesC16 const & CxSPViewData::IconFile(void) const
	?IconId@CxSPViewData@@QBEJXZ @ 19 NONAME ; long CxSPViewData::IconId(void) const
	?MaskId@CxSPViewData@@QBEJXZ @ 20 NONAME ; long CxSPViewData::MaskId(void) const
	?NewL@CxSPViewData@@SAPAV1@ABVTDesC8@@@Z @ 21 NONAME ; class CxSPViewData * CxSPViewData::NewL(class TDesC8 const &)
	?NewL@CxSPViewData@@SAPAV1@XZ @ 22 NONAME ; class CxSPViewData * CxSPViewData::NewL(void)
	?Open@RxSPViewServices@@QAEHHW4TIpcSessionType@@AAVTRequestStatus@@@Z @ 23 NONAME ; int RxSPViewServices::Open(int, enum TIpcSessionType, class TRequestStatus &)
	?Open@RxSPViewServices@@QAEHXZ @ 24 NONAME ; int RxSPViewServices::Open(void)
	?OriginalViewId@CxSPViewData@@QBEJXZ @ 25 NONAME ; long CxSPViewData::OriginalViewId(void) const
	?PackL@CxSPViewData@@QBEPAVHBufC8@@XZ @ 26 NONAME ; class HBufC8 * CxSPViewData::PackL(void) const
	?Reset@CxSPViewData@@QAEXXZ @ 27 NONAME ; void CxSPViewData::Reset(void)
	?SetEComId@CxSPViewData@@QAEXK@Z @ 28 NONAME ; void CxSPViewData::SetEComId(unsigned long)
	?SetIconFileL@CxSPViewData@@QAEXABVTDesC16@@@Z @ 29 NONAME ; void CxSPViewData::SetIconFileL(class TDesC16 const &)
	?SetIconId@CxSPViewData@@QAEXJ@Z @ 30 NONAME ; void CxSPViewData::SetIconId(long)
	?SetMaskId@CxSPViewData@@QAEXJ@Z @ 31 NONAME ; void CxSPViewData::SetMaskId(long)
	?SetOriginalViewId@CxSPViewData@@QAEXJ@Z @ 32 NONAME ; void CxSPViewData::SetOriginalViewId(long)
	?SetViewNameL@CxSPViewData@@QAEXABVTDesC16@@@Z @ 33 NONAME ; void CxSPViewData::SetViewNameL(class TDesC16 const &)
	?UnpackL@CxSPViewData@@QAEXABVTDesC8@@@Z @ 34 NONAME ; void CxSPViewData::UnpackL(class TDesC8 const &)
	?ViewName@CxSPViewData@@QBEABVTDesC16@@XZ @ 35 NONAME ; class TDesC16 const & CxSPViewData::ViewName(void) const

