EXPORTS
	_ZN16CPbk2SetToneBase11AddObserverER20MPbk2CommandObserver @ 1 NONAME
	_ZN16CPbk2SetToneBase12IssueRequestEv @ 2 NONAME
	_ZN16CPbk2SetToneBase14BaseConstructLEv @ 3 NONAME
	_ZN16CPbk2SetToneBase16IssueStopRequestEv @ 4 NONAME
	_ZN16CPbk2SetToneBase16ProcessDismissedEi @ 5 NONAME
	_ZN16CPbk2SetToneBase16RelocateContactLEP17MVPbkStoreContact @ 6 NONAME
	_ZN16CPbk2SetToneBase16RetrieveContactLERK16MVPbkContactLink @ 7 NONAME
	_ZN16CPbk2SetToneBase17SetToneAndCommitLEP17MVPbkStoreContact @ 8 NONAME
	_ZN16CPbk2SetToneBase4RunLEv @ 9 NONAME
	_ZN16CPbk2SetToneBase8DoCancelEv @ 10 NONAME
	_ZN16CPbk2SetToneBase8RunErrorEi @ 11 NONAME
	_ZN16CPbk2SetToneBase9ExecuteLDEv @ 12 NONAME
	_ZN16CPbk2SetToneBaseC2ER21MPbk2ContactUiControl @ 13 NONAME
	_ZN16CPbk2SetToneBaseD0Ev @ 14 NONAME
	_ZN16CPbk2SetToneBaseD1Ev @ 15 NONAME
	_ZN16CPbk2SetToneBaseD2Ev @ 16 NONAME
	_ZN17CPbk2CommandStore21AddAndExecuteCommandLEP12MPbk2Command @ 17 NONAME
	_ZN17CPbk2CommandStore4NewLEv @ 18 NONAME
	_ZN19CPbk2CommandHandler4NewLEv @ 19 NONAME
	_ZN24TPbk2CopyContactsResults14ShowErrorNoteLEv @ 20 NONAME
	_ZN24TPbk2CopyContactsResults26SetOneContactCopiedTextResEi @ 21 NONAME
	_ZN24TPbk2CopyContactsResults29SetOneContactNotCopiedTextResEi @ 22 NONAME
	_ZN24TPbk2CopyContactsResults32SetMultipleContactsCopiedTextResEi @ 23 NONAME
	_ZN24TPbk2CopyContactsResults9ShowNoteLEv @ 24 NONAME
	_ZN24TPbk2CopyContactsResultsC1EiRK7TDesC16 @ 25 NONAME
	_ZN24TPbk2CopyContactsResultsC1Eii @ 26 NONAME
	_ZN24TPbk2CopyContactsResultsC1Ev @ 27 NONAME
	_ZN24TPbk2CopyContactsResultsC2EiRK7TDesC16 @ 28 NONAME
	_ZN24TPbk2CopyContactsResultsC2Eii @ 29 NONAME
	_ZN24TPbk2CopyContactsResultsC2Ev @ 30 NONAME
	_ZN27Pbk2ProcessDecoratorFactory24CreateWaitNoteDecoratorLEii @ 31 NONAME
	_ZN27Pbk2ProcessDecoratorFactory30CreateProgressDialogDecoratorLEii @ 32 NONAME
	_ZTI16CPbk2SetToneBase @ 33 NONAME ; #<TI>#
	_ZTI17CPbk2CommandStore @ 34 NONAME ; #<TI>#
	_ZTI19CPbk2CommandHandler @ 35 NONAME ; #<TI>#
	_ZTV16CPbk2SetToneBase @ 36 NONAME ; #<VT>#
	_ZTV17CPbk2CommandStore @ 37 NONAME ; #<VT>#
	_ZTV19CPbk2CommandHandler @ 38 NONAME ; #<VT>#
	_ZThn28_N16CPbk2SetToneBase11AddObserverER20MPbk2CommandObserver @ 39 NONAME ; #<thunk>#
	_ZThn28_N16CPbk2SetToneBase9ExecuteLDEv @ 40 NONAME ; #<thunk>#
	_ZThn28_N16CPbk2SetToneBaseD0Ev @ 41 NONAME ; #<thunk>#
	_ZThn28_N16CPbk2SetToneBaseD1Ev @ 42 NONAME ; #<thunk>#
	_ZThn32_N16CPbk2SetToneBase16ProcessDismissedEi @ 43 NONAME ; #<thunk>#
	_ZThn40_N16CPbk2SetToneBaseD0Ev @ 44 NONAME ; #<thunk>#
	_ZThn40_N16CPbk2SetToneBaseD1Ev @ 45 NONAME ; #<thunk>#
	_ZThn44_N16CPbk2SetToneBaseD0Ev @ 46 NONAME ; #<thunk>#
	_ZThn44_N16CPbk2SetToneBaseD1Ev @ 47 NONAME ; #<thunk>#
	_ZThn4_N17CPbk2CommandStore21AddAndExecuteCommandLEP12MPbk2Command @ 48 NONAME ; #<thunk>#
	_ZN16CPbk2SetToneBase14ResetUiControlER21MPbk2ContactUiControl @ 49 NONAME
	_ZThn28_N16CPbk2SetToneBase14ResetUiControlER21MPbk2ContactUiControl @ 50 NONAME ; #<thunk>#
	_ZN20CPbk2DriveSpaceCheck16DriveSpaceCheckLEv @ 51 NONAME
	_ZN20CPbk2DriveSpaceCheck4NewLER3RFs @ 52 NONAME
	_ZN20CPbk2DriveSpaceCheck8SetStoreE23TVPbkContactStoreUriPtr @ 53 NONAME
	_ZTI20CPbk2DriveSpaceCheck @ 54 NONAME ; #<TI>#
	_ZTV20CPbk2DriveSpaceCheck @ 55 NONAME ; #<VT>#
	_ZN21CPbk2CommandActivator4NewLEP12MPbk2CommandRK21MPbk2ContactUiControl @ 56 NONAME
	_ZN21CPbk2CommandActivatorD0Ev @ 57 NONAME
	_ZN21CPbk2CommandActivatorD1Ev @ 58 NONAME
	_ZN21CPbk2CommandActivatorD2Ev @ 59 NONAME
	_ZTI21CPbk2CommandActivator @ 60 NONAME ; #<TI>#
	_ZTV21CPbk2CommandActivator @ 61 NONAME ; #<VT>#
	_ZThn4_N21CPbk2CommandActivatorD0Ev @ 62 NONAME ; #<thunk>#
	_ZThn4_N21CPbk2CommandActivatorD1Ev @ 63 NONAME ; #<thunk>#
	_ZThn8_N21CPbk2CommandActivatorD0Ev @ 64 NONAME ; #<thunk>#
	_ZThn8_N21CPbk2CommandActivatorD1Ev @ 65 NONAME ; #<thunk>#
	_ZN24CPbk2AiwInterestItemBase18IsMenuPaneAttachedEi @ 66 NONAME
	_ZN24CPbk2AiwInterestItemBaseC2EiR18CAiwServiceHandler @ 67 NONAME
	_ZTI24CPbk2AiwInterestItemBase @ 68 NONAME ; #<TI>#
	_ZTV24CPbk2AiwInterestItemBase @ 69 NONAME ; #<VT>#
	_ZN24CPbk2AiwInterestItemBase7AttachLEiii @ 70 NONAME
	_ZNK24CPbk2AiwInterestItemBase10InterestIdEv @ 71 NONAME
	_ZThn28_N24CPbk2AiwInterestItemBase7AttachLEiii @ 72 NONAME ; #<thunk>#
	_ZThn28_NK24CPbk2AiwInterestItemBase10InterestIdEv @ 73 NONAME ; #<thunk>#
	_ZN20CPbk2DriveSpaceCheck8SetStoreERK7TDesC16 @ 74 NONAME
	_ZN17CPbk2CommandStore18DestroyAllCommandsEv @ 75 NONAME
	_ZN19CPbk2CommandHandler12CommandStoreEv @ 76 NONAME

