EXPORTS
	_ZN13CPbk2FetchDlg17DenyDelayedFetchLERK6TDesC8 @ 1 NONAME
	_ZN13CPbk2FetchDlg19AcceptDelayedFetchLERK6TDesC8 @ 2 NONAME
	_ZN13CPbk2FetchDlg4NewLENS_7TParamsER21MPbk2FetchDlgObserver @ 3 NONAME
	_ZN13CPbk2FetchDlg7TParamsC1Ev @ 4 NONAME
	_ZN13CPbk2FetchDlg7TParamsC2Ev @ 5 NONAME
	_ZN13CPbk2FetchDlg7TParamscv12TCleanupItemEv @ 6 NONAME
	_ZN13CPbk2FetchDlg9ExecuteLDEv @ 7 NONAME
	_ZN15CPbk2PrependDlg4NewLER6TDes16 @ 8 NONAME
	_ZN16Pbk2AddressTools18GetAddressFieldsLCER17MVPbkStoreContact17TPbk2FieldGroupIdR8RHashMapIi7TPtrC16E @ 9 NONAME
	_ZN16Pbk2AddressTools19GetAddressPreviewLCER17MVPbkStoreContact17TPbk2FieldGroupIdR6RBuf16 @ 10 NONAME
	_ZN16Pbk2AddressTools20MapAddressToOrderingE17TPbk2FieldGroupId @ 11 NONAME
	_ZN16Pbk2AddressTools20MapCtrlTypeToAddressEi @ 12 NONAME
	_ZN16Pbk2AddressTools20MapViewTypeToAddressEN24TPbk2ContactEditorParams11TActiveViewE @ 13 NONAME
	_ZN16Pbk2AddressTools21MapCtrlTypeToViewTypeEi @ 14 NONAME
	_ZN16Pbk2AddressTools22IsAddressPreviewEmptyLER17MVPbkStoreContact17TPbk2FieldGroupId @ 15 NONAME
	_ZN16Pbk2AddressTools23MapAddressToVersitParamE17TPbk2FieldGroupId @ 16 NONAME
	_ZN16Pbk2AddressTools24GetAddressShortPreviewLCER17MVPbkStoreContact17TPbk2FieldGroupIdR6RBuf16 @ 17 NONAME
	_ZN16Pbk2AddressTools32MapVPbkFieldTypeToAddressGroupIdEPK14MVPbkFieldType @ 18 NONAME
	_ZN17CPbk2UIFieldArray4NewLERK7TDesC16R3RFsR19MPbk2UIFieldFactory @ 19 NONAME
	_ZN18CPbk2AddressSelect12AttemptExitLEi @ 20 NONAME
	_ZN18CPbk2AddressSelect20Pbk2ControlKeyEventLERK9TKeyEvent10TEventCode @ 21 NONAME
	_ZN18CPbk2AddressSelect4NewLER24TPbk2AddressSelectParams @ 22 NONAME
	_ZN18CPbk2AddressSelect4NewLER24TPbk2AddressSelectParamsR22CVPbkFieldTypeSelectorPK6TArrayIP17MVPbkStoreContactEPKS4_IP21CPbk2PresenceIconInfoE @ 23 NONAME
	_ZN18CPbk2AddressSelect6SetCbaEi @ 24 NONAME
	_ZN18CPbk2AddressSelect9ExecuteLDEv @ 25 NONAME
	_ZN18CPbk2AddressSelectD0Ev @ 26 NONAME
	_ZN18CPbk2AddressSelectD1Ev @ 27 NONAME
	_ZN18CPbk2AddressSelectD2Ev @ 28 NONAME
	_ZN18CPbk2InputAbsorber18SetCommandObserverEP19MEikCommandObserver @ 29 NONAME
	_ZN18CPbk2InputAbsorber4NewLEi @ 30 NONAME
	_ZN18CPbk2InputAbsorber4WaitEv @ 31 NONAME
	_ZN18CPbk2InputAbsorber5NewLCEi @ 32 NONAME
	_ZN18CPbk2InputAbsorber8StopWaitEv @ 33 NONAME
	_ZN19CPbk2FieldFormatter14SetTimeFormatLERK7TDesC16 @ 34 NONAME
	_ZN19CPbk2FieldFormatter19FormatFieldContentLERK21MVPbkBaseContactFieldRK14MVPbkFieldType @ 35 NONAME
	_ZN19CPbk2FieldFormatter4NewLERK23MPbk2FieldPropertyArrayRK18MVPbkFieldTypeList @ 36 NONAME
	_ZN19CPbk2StoreListQuery15SetAllItemTextLERK7TDesC16i @ 37 NONAME
	_ZN19CPbk2StoreListQuery4NewLEv @ 38 NONAME
	_ZN19CPbk2StoreListQuery9ExecuteLDERK7TDesC16R25CVPbkContactStoreUriArray @ 39 NONAME
	_ZN19TPbk2AddItemWrapperC1ERK18MPbk2FieldProperty @ 40 NONAME
	_ZN19TPbk2AddItemWrapperC1ERK23CPbk2FieldPropertyGroup @ 41 NONAME
	_ZN19TPbk2AddItemWrapperC2ERK18MPbk2FieldProperty @ 42 NONAME
	_ZN19TPbk2AddItemWrapperC2ERK23CPbk2FieldPropertyGroup @ 43 NONAME
	_ZN20CPbk2ThumbnailLoader13HideThumbnailEv @ 44 NONAME
	_ZN20CPbk2ThumbnailLoader13LoadThumbnailEP17MVPbkStoreContactPK11CEikListBox22TPbk2ThumbnailLocation @ 45 NONAME
	_ZN20CPbk2ThumbnailLoader14LoadThumbnailLEP16MVPbkContactLinkPK11CEikListBox22TPbk2ThumbnailLocation @ 46 NONAME
	_ZN20CPbk2ThumbnailLoader4NewLER19CVPbkContactManager @ 47 NONAME
	_ZN20CPbk2ThumbnailLoader5ResetEv @ 48 NONAME
	_ZN20CPbk2ThumbnailLoader7RefreshEv @ 49 NONAME
	_ZN21CPbk2ContactEditorDlg4NewLER24TPbk2ContactEditorParamsP17MVPbkStoreContactR26MPbk2EditedContactObserver @ 50 NONAME
	_ZN21CPbk2ContactEditorDlg4NewLER24TPbk2ContactEditorParamsP17MVPbkStoreContactR26MPbk2EditedContactObserverP24MPbk2ApplicationServicesP7HBufC16i @ 51 NONAME
	_ZN21CPbk2ContactEditorDlg9ExecuteLDEv @ 52 NONAME
	_ZN21CPbk2NamesListControl12AddObserverLER20MPbk2ControlObserver @ 53 NONAME
	_ZN21CPbk2NamesListControl13SetOpeningCcaEi @ 54 NONAME
	_ZN21CPbk2NamesListControl14RemoveObserverER20MPbk2ControlObserver @ 55 NONAME
	_ZN21CPbk2NamesListControl18AllowPointerEventsEi @ 56 NONAME
	_ZN21CPbk2NamesListControl20SetCurrentGroupLinkLEP16MVPbkContactLink @ 57 NONAME
	_ZN21CPbk2NamesListControl26HandleViewForegroundEventLEi @ 58 NONAME
	_ZN21CPbk2NamesListControl26MassUpdateSkipProgressNoteEi @ 59 NONAME
	_ZN21CPbk2NamesListControl4NewLEiPK11CCoeControlR19CVPbkContactManagerR20MVPbkContactViewBaseR25MPbk2ContactNameFormatterR23CPbk2StorePropertyArray @ 60 NONAME
	_ZN21CPbk2NamesListControl4NewLEiPK11CCoeControlR19CVPbkContactManagerR20MVPbkContactViewBaseR25MPbk2ContactNameFormatterR23CPbk2StorePropertyArrayP21CPbk2ThumbnailManager @ 61 NONAME
	_ZN21CPbk2NamesListControl5ResetEv @ 62 NONAME
	_ZN21CPbk2NamesListControl8SetViewLER20MVPbkContactViewBase @ 63 NONAME
	_ZN21CPbk2NamesListControl9GiveViewLEP20MVPbkContactViewBase @ 64 NONAME
	_ZN21CPbk2NamesListControlC1EPK11CCoeControlR19CVPbkContactManagerR20MVPbkContactViewBaseR25MPbk2ContactNameFormatterR23CPbk2StorePropertyArray @ 65 NONAME
	_ZN21CPbk2NamesListControlC2EPK11CCoeControlR19CVPbkContactManagerR20MVPbkContactViewBaseR25MPbk2ContactNameFormatterR23CPbk2StorePropertyArray @ 66 NONAME
	_ZN21CPbk2PhonebookInfoDlg4NewLEv @ 67 NONAME
	_ZN21CPbk2PhonebookInfoDlg9ExecuteLDER25CVPbkContactStoreUriArray @ 68 NONAME
	_ZN21CPbk2ThumbnailManager4NewLER19CVPbkContactManager @ 69 NONAME
	_ZN22CPbk2ContactIconsUtils23CreateListboxIconArrayLEi @ 70 NONAME
	_ZN22CPbk2ContactIconsUtils4NewLER23CPbk2StorePropertyArrayP30MPbk2ContactUiControlExtension @ 71 NONAME
	_ZN22CPbk2MergeConflictsDlg4NewLEP18MPbk2MergeResolveri @ 72 NONAME
	_ZN23CPbk2ContactInfoControl12AddObserverLER20MPbk2ControlObserver @ 73 NONAME
	_ZN23CPbk2ContactInfoControl14RemoveObserverER20MPbk2ControlObserver @ 74 NONAME
	_ZN23CPbk2ContactInfoControl4NewLEPK11CCoeControlR19CVPbkContactManagerR25MPbk2ContactNameFormatterR23MPbk2FieldPropertyArrayR23CPbk2StorePropertyArrayP22MPbk2ContactNavigation @ 75 NONAME
	_ZN24CPbk2AddItemToContactDlg4NewLEP24MPbk2ApplicationServices @ 76 NONAME
	_ZN24CPbk2AddItemToContactDlg4NewLEv @ 77 NONAME
	_ZN24CPbk2AddItemToContactDlg9ExecuteLDER6RArrayI19TPbk2AddItemWrapperEPK24TPbk2AddItemDialogParams @ 78 NONAME
	_ZN24CPbk2SettingsListControl15CommitSettingsLEv @ 79 NONAME
	_ZN24CPbk2SettingsListControl4NewLEPK11CCoeControlR21CPbk2SortOrderManagerR29MPbk2SettingsControlExtension @ 80 NONAME
	_ZN24TPbk2AddressSelectParams14SetQueryAlwaysEi @ 81 NONAME
	_ZN24TPbk2AddressSelectParams15SetFocusedFieldEPK22MVPbkStoreContactField @ 82 NONAME
	_ZN24TPbk2AddressSelectParams19SetSuppressWarningsEi @ 83 NONAME
	_ZN24TPbk2AddressSelectParams20SetDefaultPrioritiesERK34RVPbkContactFieldDefaultPriorities @ 84 NONAME
	_ZN24TPbk2AddressSelectParams21SetUseDefaultDirectlyEi @ 85 NONAME
	_ZN24TPbk2AddressSelectParams28SetTitleToIncludeContactNameEi @ 86 NONAME
	_ZN24TPbk2AddressSelectParamsC1ER17MVPbkStoreContactRK19CVPbkContactManagerR25MPbk2ContactNameFormatterRK23CPbk2FieldPropertyArrayR15TResourceReaderi @ 87 NONAME
	_ZN24TPbk2AddressSelectParamsC2ER17MVPbkStoreContactRK19CVPbkContactManagerR25MPbk2ContactNameFormatterRK23CPbk2FieldPropertyArrayR15TResourceReaderi @ 88 NONAME
	_ZN26CPbk2MergePhotoConflictDlg4NewLEP16MVPbkBaseContactS1_Pi @ 89 NONAME
	_ZN27CPbk2MemoryEntryDefaultsDlg4NewLER24CPbk2PresentationContactR19CVPbkContactManager @ 90 NONAME
	_ZN27CPbk2MemoryEntryDefaultsDlg9ExecuteLDEv @ 91 NONAME
	_ZN27Pbk2TitlePanePictureFactory24CreateTitlePanePictureLCEPK17MVPbkStoreContactR23CPbk2StorePropertyArray @ 92 NONAME
	_ZN28CPbk2DefaultAttributeProcess11SetDefaultLE16TVPbkDefaultTypeR22MVPbkStoreContactField @ 93 NONAME
	_ZN28CPbk2DefaultAttributeProcess12SetDefaultsLEP13CArrayFixFlatI16TVPbkDefaultTypeER22MVPbkStoreContactField @ 94 NONAME
	_ZN28CPbk2DefaultAttributeProcess14RemoveDefaultLE16TVPbkDefaultType @ 95 NONAME
	_ZN28CPbk2DefaultAttributeProcess15RemoveDefaultsLEP13CArrayFixFlatI16TVPbkDefaultTypeE @ 96 NONAME
	_ZN28CPbk2DefaultAttributeProcess4NewLER19CVPbkContactManagerR17MVPbkStoreContactR36MPbk2DefaultAttributeProcessObserver @ 97 NONAME
	_ZN29CPbk2ContactEditorUIFieldBase14SetFieldLabelLERK7TDesC16 @ 98 NONAME
	_ZN29CPbk2ContactEditorUIFieldBase16ConsumesKeyEventERK9TKeyEvent10TEventCode @ 99 NONAME
	_ZN29CPbk2ContactEditorUIFieldBase18LoadBitmapToFieldLERK11TPbk2IconId @ 100 NONAME
	_ZN29CPbk2ContactEditorUIFieldBase25HandleCustomFieldCommandLEi @ 101 NONAME
	_ZN29CPbk2ContactEditorUIFieldBase8SetFocusEv @ 102 NONAME
	_ZN29CPbk2ContactEditorUIFieldBase9ControlIdEv @ 103 NONAME
	_ZN29CPbk2ContactEditorUIFieldBaseC2EP12MPbk2UIFieldR27MPbk2ContactEditorUiBuilderR22CPbk2IconInfoContaineri @ 104 NONAME
	_ZN29CPbk2ContactEditorUIFieldBaseD0Ev @ 105 NONAME
	_ZN29CPbk2ContactEditorUIFieldBaseD1Ev @ 106 NONAME
	_ZN29CPbk2ContactEditorUIFieldBaseD2Ev @ 107 NONAME
	_ZN29CPbk2GeneralConfirmationQuery4NewLEv @ 108 NONAME
	_ZN29CPbk2GeneralConfirmationQuery9ExecuteLDERK16MVPbkBaseContacti @ 109 NONAME
	_ZN29CPbk2GeneralConfirmationQuery9ExecuteLDERK16MVPbkBaseContactii @ 110 NONAME
	_ZN29CPbk2GeneralConfirmationQuery9ExecuteLDEii @ 111 NONAME
	_ZN29CPbk2GeneralConfirmationQuery9StopQueryEv @ 112 NONAME
	_ZN31CPbk2ContactEditorReadonlyField11InitializeLEP25MPbk2ContactEditorUIField @ 113 NONAME
	_ZN31CPbk2ContactEditorReadonlyField8SetTextLEPK7TDesC16 @ 114 NONAME
	_ZN31CPbk2ContactUiControlSubstitute15SetFocusedFieldERK21MVPbkBaseContactField @ 115 NONAME
	_ZN31CPbk2ContactUiControlSubstitute16SetSelectedStoreER17MVPbkContactStore @ 116 NONAME
	_ZN31CPbk2ContactUiControlSubstitute18SetParentUiControlER21MPbk2ContactUiControl @ 117 NONAME
	_ZN31CPbk2ContactUiControlSubstitute20SetFocusedFieldIndexEi @ 118 NONAME
	_ZN31CPbk2ContactUiControlSubstitute22SetFocusedStoreContactERK17MVPbkStoreContact @ 119 NONAME
	_ZN31CPbk2ContactUiControlSubstitute4NewLEv @ 120 NONAME
	_ZN31CPbk2ContactUiControlSubstituteD0Ev @ 121 NONAME
	_ZN31CPbk2ContactUiControlSubstituteD1Ev @ 122 NONAME
	_ZN31CPbk2ContactUiControlSubstituteD2Ev @ 123 NONAME
	_ZN31Pbk2PhoneNumberFormatterFactory27CreatePhoneNumberFormatterLEi @ 124 NONAME
	_ZN33CPbk2MemoryEntryDefaultsAssignDlg4NewLEv @ 125 NONAME
	_ZN33CPbk2MemoryEntryDefaultsAssignDlg9ExecuteLDERK39CPbk2PresentationContactFieldCollectionRK19CVPbkContactManagerRK23MPbk2FieldPropertyArrayN28VPbkFieldTypeSelectorFactory30TVPbkContactActionTypeSelectorE @ 126 NONAME
	_ZNK18CPbk2InputAbsorber9IsWaitingEv @ 127 NONAME
	_ZNK19TPbk2AddItemWrapper10PropertyAtEi @ 128 NONAME
	_ZNK19TPbk2AddItemWrapper13PropertyCountEv @ 129 NONAME
	_ZNK22CPbk2ContactIconsUtils21GetIconIdsForContactLERK16MVPbkViewContactR6RArrayI11TPbk2IconIdE @ 130 NONAME
	_ZNK29CPbk2ContactEditorUIFieldBase10FieldLabelEv @ 131 NONAME
	_ZNK29CPbk2ContactEditorUIFieldBase11ControlTextEv @ 132 NONAME
	_ZNK29CPbk2ContactEditorUIFieldBase7UIFieldEv @ 133 NONAME
	_ZTI12CPbk2UIField @ 134 NONAME
	_ZTI13CPbk2FetchDlg @ 135 NONAME
	_ZTI15CPbk2PrependDlg @ 136 NONAME
	_ZTI17CPbk2UIFieldArray @ 137 NONAME
	_ZTI18CPbk2AddressSelect @ 138 NONAME
	_ZTI18CPbk2InputAbsorber @ 139 NONAME
	_ZTI19CPbk2StoreListQuery @ 140 NONAME
	_ZTI19CPbk2ThumbnailPopup @ 141 NONAME
	_ZTI21CPbk2ContactEditorDlg @ 142 NONAME
	_ZTI21CPbk2NamesListControl @ 143 NONAME
	_ZTI21CPbk2PhonebookInfoDlg @ 144 NONAME
	_ZTI22CPbk2ContactIconsUtils @ 145 NONAME
	_ZTI23CPbk2ContactInfoControl @ 146 NONAME
	_ZTI24CPbk2AddItemToContactDlg @ 147 NONAME
	_ZTI24CPbk2SettingsListControl @ 148 NONAME
	_ZTI25CPbk2ContactEditorDlgImpl @ 149 NONAME
	_ZTI25CPbk2StoreInfoItemBuilder @ 150 NONAME
	_ZTI27CPbk2ContactEditorArrayItem @ 151 NONAME
	_ZTI27CPbk2MemoryEntryDefaultsDlg @ 152 NONAME
	_ZTI29CPbk2ContactEditorUIFieldBase @ 153 NONAME
	_ZTI29CPbk2GeneralConfirmationQuery @ 154 NONAME
	_ZTI30CPbk2ContactEditorFieldFactory @ 155 NONAME
	_ZTI30CPbk2FilteredViewStackObserver @ 156 NONAME
	_ZTI31CPbk2ContactEditorReadonlyField @ 157 NONAME
	_ZTI31CPbk2ContactUiControlSubstitute @ 158 NONAME
	_ZTI33CPbk2ContactViewCustomListBoxData @ 159 NONAME
	_ZTI39CPbk2ContactViewCustomListBoxItemDrawer @ 160 NONAME
	_ZTIN17CPbk2FetchResults20CFRConatactOperationE @ 161 NONAME
	_ZTV12CPbk2UIField @ 162 NONAME
	_ZTV13CPbk2FetchDlg @ 163 NONAME
	_ZTV15CPbk2PrependDlg @ 164 NONAME
	_ZTV17CPbk2UIFieldArray @ 165 NONAME
	_ZTV18CPbk2AddressSelect @ 166 NONAME
	_ZTV18CPbk2InputAbsorber @ 167 NONAME
	_ZTV19CPbk2StoreListQuery @ 168 NONAME
	_ZTV19CPbk2ThumbnailPopup @ 169 NONAME
	_ZTV21CPbk2ContactEditorDlg @ 170 NONAME
	_ZTV21CPbk2NamesListControl @ 171 NONAME
	_ZTV21CPbk2PhonebookInfoDlg @ 172 NONAME
	_ZTV22CPbk2ContactIconsUtils @ 173 NONAME
	_ZTV23CPbk2ContactInfoControl @ 174 NONAME
	_ZTV24CPbk2AddItemToContactDlg @ 175 NONAME
	_ZTV24CPbk2SettingsListControl @ 176 NONAME
	_ZTV25CPbk2ContactEditorDlgImpl @ 177 NONAME
	_ZTV25CPbk2StoreInfoItemBuilder @ 178 NONAME
	_ZTV27CPbk2ContactEditorArrayItem @ 179 NONAME
	_ZTV27CPbk2MemoryEntryDefaultsDlg @ 180 NONAME
	_ZTV29CPbk2ContactEditorUIFieldBase @ 181 NONAME
	_ZTV29CPbk2GeneralConfirmationQuery @ 182 NONAME
	_ZTV30CPbk2ContactEditorFieldFactory @ 183 NONAME
	_ZTV30CPbk2FilteredViewStackObserver @ 184 NONAME
	_ZTV31CPbk2ContactEditorReadonlyField @ 185 NONAME
	_ZTV31CPbk2ContactUiControlSubstitute @ 186 NONAME
	_ZTV33CPbk2ContactViewCustomListBoxData @ 187 NONAME
	_ZTV39CPbk2ContactViewCustomListBoxItemDrawer @ 188 NONAME
	_ZTVN17CPbk2FetchResults20CFRConatactOperationE @ 189 NONAME
	_ZThn4_N29CPbk2ContactEditorUIFieldBase14SetFieldLabelLERK7TDesC16 @ 190 NONAME
	_ZThn4_N29CPbk2ContactEditorUIFieldBase16ConsumesKeyEventERK9TKeyEvent10TEventCode @ 191 NONAME
	_ZThn4_N29CPbk2ContactEditorUIFieldBase18LoadBitmapToFieldLERK11TPbk2IconId @ 192 NONAME
	_ZThn4_N29CPbk2ContactEditorUIFieldBase25HandleCustomFieldCommandLEi @ 193 NONAME
	_ZThn4_N29CPbk2ContactEditorUIFieldBase8SetFocusEv @ 194 NONAME
	_ZThn4_N29CPbk2ContactEditorUIFieldBase9ControlIdEv @ 195 NONAME
	_ZThn4_N29CPbk2ContactEditorUIFieldBaseD0Ev @ 196 NONAME
	_ZThn4_N29CPbk2ContactEditorUIFieldBaseD1Ev @ 197 NONAME
	_ZThn4_NK29CPbk2ContactEditorUIFieldBase10FieldLabelEv @ 198 NONAME
	_ZThn4_NK29CPbk2ContactEditorUIFieldBase11ControlTextEv @ 199 NONAME
	_ZThn4_NK29CPbk2ContactEditorUIFieldBase7UIFieldEv @ 200 NONAME
	_ZThn52_N31CPbk2ContactUiControlSubstitute20SetFocusedFieldIndexEi @ 201 NONAME
	_ZThn52_N31CPbk2ContactUiControlSubstituteD0Ev @ 202 NONAME
	_ZThn52_N31CPbk2ContactUiControlSubstituteD1Ev @ 203 NONAME
	_ZThn56_N31CPbk2ContactUiControlSubstituteD0Ev @ 204 NONAME
	_ZThn56_N31CPbk2ContactUiControlSubstituteD1Ev @ 205 NONAME

