EXPORTS
	_ZN11TPbk2IconIdC1ER15TResourceReader @ 1 NONAME
	_ZN11TPbk2IconIdC1ERK4TUidi @ 2 NONAME
	_ZN11TPbk2IconIdC1Ev @ 3 NONAME
	_ZN11TPbk2IconIdC2ER15TResourceReader @ 4 NONAME
	_ZN11TPbk2IconIdC2ERK4TUidi @ 5 NONAME
	_ZN11TPbk2IconIdC2Ev @ 6 NONAME
	_ZN17CPbk2ContactMerge10MergeDataLERK16MVPbkBaseContactR17MVPbkStoreContact @ 7 NONAME
	_ZN17CPbk2ContactMerge4NewLER19CVPbkContactManagerR25MPbk2ContactNameFormatterRK23MPbk2FieldPropertyArray @ 8 NONAME
	_ZN17CPbk2ImageManager11RemoveImageER17MVPbkStoreContactRK14MVPbkFieldType @ 9 NONAME
	_ZN17CPbk2ImageManager14GetImageAsyncLEP23TPbk2ImageManagerParamsR16MVPbkBaseContactRK14MVPbkFieldTypeR21MPbk2ImageGetObserver @ 10 NONAME
	_ZN17CPbk2ImageManager14SetImageAsyncLER17MVPbkStoreContactRK14MVPbkFieldTypeR21MPbk2ImageSetObserverRK10CFbsBitmap @ 11 NONAME
	_ZN17CPbk2ImageManager14SetImageAsyncLER17MVPbkStoreContactRK14MVPbkFieldTypeR21MPbk2ImageSetObserverRK6TDesC8 @ 12 NONAME
	_ZN17CPbk2ImageManager14SetImageAsyncLER17MVPbkStoreContactRK14MVPbkFieldTypeR21MPbk2ImageSetObserverRK7TDesC16 @ 13 NONAME
	_ZN17CPbk2ImageManager4NewLER19CVPbkContactManager @ 14 NONAME
	_ZN18CPbk2StoreInfoItem5NewLCER15TResourceReader @ 15 NONAME
	_ZN18CPbk2StoreProperty12SetStoreUriLERK7TDesC16 @ 16 NONAME
	_ZN18CPbk2StoreProperty13SetStoreNameLERK7TDesC16 @ 17 NONAME
	_ZN18CPbk2StoreProperty18SetMemoryInfoTypesEm @ 18 NONAME
	_ZN18CPbk2StoreProperty21AppendViewDefinitionLEP24CPbk2StoreViewDefinition @ 19 NONAME
	_ZN18CPbk2StoreProperty23SetFieldPropertiesResIdEi @ 20 NONAME
	_ZN18CPbk2StoreProperty4NewLEv @ 21 NONAME
	_ZN18CPbk2StoreProperty5NewLCER15TResourceReader @ 22 NONAME
	_ZN18CPbk2StoreProperty5NewLCERKS_ @ 23 NONAME
	_ZN18CPbk2StoreProperty8SetFlagsEm @ 24 NONAME
	_ZN19CPbk2AttachmentFile12SwitchDriveLEv @ 25 NONAME
	_ZN19CPbk2AttachmentFile4FileEv @ 26 NONAME
	_ZN19CPbk2AttachmentFile4NewLERK7TDesC16R3RFsj @ 27 NONAME
	_ZN19CPbk2AttachmentFile5NewLCERK7TDesC16R3RFsj @ 28 NONAME
	_ZN19CPbk2AttachmentFile7ReleaseEv @ 29 NONAME
	_Z31__Pbk2Presentation_DummyExport3v @ 30 NONAME
	_Z31__Pbk2Presentation_DummyExport4v @ 31 NONAME
	_ZN21CPbk2SortOrderManager12AddObserverLER22MPbk2SortOrderObserver @ 32 NONAME
	_ZN21CPbk2SortOrderManager14RemoveObserverER22MPbk2SortOrderObserver @ 33 NONAME
	_ZN21CPbk2SortOrderManager15SetContactViewLER20MVPbkContactViewBase @ 34 NONAME
	_ZN21CPbk2SortOrderManager20SetNameDisplayOrderLENS_21TPbk2NameDisplayOrderERK7TDesC16 @ 35 NONAME
	_ZN21CPbk2SortOrderManager4NewLERK18MVPbkFieldTypeListP3RFs @ 36 NONAME
	_ZN21Pbk2PresentationUtils21AppendAndReplaceCharsER6TDes16RK7TDesC16S4_S4_ @ 37 NONAME
	_ZN21Pbk2PresentationUtils27ReplaceNonGraphicCharactersER6TDes16t @ 38 NONAME
	_ZN23CPbk2ContactViewBuilder5NewLCER19CVPbkContactManagerR23CPbk2StorePropertyArray @ 39 NONAME
	_ZN23CPbk2FieldPropertyArray4NewLERK18MVPbkFieldTypeListR15TResourceReaderR3RFs @ 40 NONAME
	_ZN23CPbk2FieldPropertyArray4NewLERK18MVPbkFieldTypeListR3RFs @ 41 NONAME
	_ZN23CPbk2StoreConfiguration12AddObserverLER31MPbk2StoreConfigurationObserver @ 42 NONAME
	_ZN23CPbk2StoreConfiguration14RemoveObserverER31MPbk2StoreConfigurationObserver @ 43 NONAME
	_ZN23CPbk2StoreConfiguration19AddContactStoreURILE23TVPbkContactStoreUriPtr @ 44 NONAME
	_ZN23CPbk2StoreConfiguration22RemoveContactStoreURILE23TVPbkContactStoreUriPtr @ 45 NONAME
	_ZN23CPbk2StoreConfiguration25SearchStoreConfigurationLEv @ 46 NONAME
	_ZN23CPbk2StoreConfiguration30AddDefaultSavingStoreObserverLER31MPbk2DefaultSavingStoreObserver @ 47 NONAME
	_ZN23CPbk2StoreConfiguration32RemoveDefaultSavingStoreObserverER31MPbk2DefaultSavingStoreObserver @ 48 NONAME
	_ZN23CPbk2StoreConfiguration4NewLEv @ 49 NONAME
	_ZN23CPbk2StoreInfoItemArray4NewLER15TResourceReader @ 50 NONAME
	_ZN23CPbk2StorePropertyArray14DeletePropertyERK23TVPbkContactStoreUriPtr @ 51 NONAME
	_ZN23CPbk2StorePropertyArray16AppendFromArrayLERS_ @ 52 NONAME
	_ZN23CPbk2StorePropertyArray19AppendFromResourceLER15TResourceReader @ 53 NONAME
	_ZN23CPbk2StorePropertyArray4NewLER15TResourceReader @ 54 NONAME
	_ZN23CPbk2StorePropertyArray4NewLEv @ 55 NONAME
	_ZN23CPbk2StorePropertyArray7AppendLEP18CPbk2StoreProperty @ 56 NONAME
	_ZN23TPbk2ImageManagerParamsC1Ev @ 57 NONAME
	_ZN23TPbk2ImageManagerParamsC2Ev @ 58 NONAME
	_ZN24CPbk2AttachmentFileArrayC1Ei @ 59 NONAME
	_ZN24CPbk2AttachmentFileArrayC2Ei @ 60 NONAME
	_ZN24CPbk2PresentationContact27AddSupportedTemplateFieldsLEv @ 61 NONAME
	_ZN24CPbk2PresentationContact4NewLER17MVPbkStoreContactRK23MPbk2FieldPropertyArray @ 62 NONAME
	_ZN24CPbk2StoreViewDefinition11SetViewTypeE20TPbk2ContactViewType @ 63 NONAME
	_ZN24CPbk2StoreViewDefinition15SetViewItemIconERK11TPbk2IconId @ 64 NONAME
	_ZN24CPbk2StoreViewDefinition15SetViewLocationE24TPbk2ContactViewLocation @ 65 NONAME
	_ZN24CPbk2StoreViewDefinition17SetViewDefinitionEP26CVPbkContactViewDefinition @ 66 NONAME
	_Z31__Pbk2Presentation_DummyExport1v @ 67 NONAME
	_ZN24CPbk2StoreViewDefinition4NewLEv @ 68 NONAME
	_ZN24CPbk2StoreViewDefinition5NewLCER15TResourceReader @ 69 NONAME
	_ZN24CPbk2StoreViewDefinition5NewLCERKS_ @ 70 NONAME
	_ZN25TPbk2SortOrderFieldMapper12SetSortOrderERK18MVPbkFieldTypeList @ 71 NONAME
	_ZN25TPbk2SortOrderFieldMapper16SetContactFieldsERK31MVPbkBaseContactFieldCollection @ 72 NONAME
	_ZN25TPbk2SortOrderFieldMapperC1Ev @ 73 NONAME
	_ZN25TPbk2SortOrderFieldMapperC2Ev @ 74 NONAME
	_ZN25TPbk2StoreContactAnalyzerC1ERK19CVPbkContactManagerPK17MVPbkStoreContact @ 75 NONAME
	_ZN25TPbk2StoreContactAnalyzerC2ERK19CVPbkContactManagerPK17MVPbkStoreContact @ 76 NONAME
	_ZN26Pbk2FieldPropertiesFactory7CreateLERK18MVPbkFieldTypeListP3RFs @ 77 NONAME
	_ZN26Pbk2FieldPropertiesFactory8CreateLCERK18MVPbkFieldTypeListP3RFs @ 78 NONAME
	_ZN26RPbk2LocalizedResourceFile5CloseEv @ 79 NONAME
	_ZN26RPbk2LocalizedResourceFile5OpenLERK7TDesC16 @ 80 NONAME
	_ZN26RPbk2LocalizedResourceFile5OpenLERK7TDesC16S2_S2_ @ 81 NONAME
	_ZN26RPbk2LocalizedResourceFile6OffsetEv @ 82 NONAME
	_ZN26RPbk2LocalizedResourceFile6OpenLCERK7TDesC16S2_S2_ @ 83 NONAME
	_ZN26RPbk2LocalizedResourceFileC1ER7CCoeEnv @ 84 NONAME
	_ZN26RPbk2LocalizedResourceFileC2ER7CCoeEnv @ 85 NONAME
	_ZN27CPbk2DuplicateContactFinder4NewLER19CVPbkContactManagerR25MPbk2ContactNameFormatterRK18MVPbkFieldTypeListR13RPointerArrayI17MVPbkStoreContactE @ 86 NONAME
	_ZN27CPbk2DuplicateContactFinder6StartLERK16MVPbkBaseContactR17MVPbkContactStoreR29MPbk2DuplicateContactObserveri @ 87 NONAME
	_ZN27CPbk2DuplicateContactFinder6StartLERK16MVPbkBaseContactR29MPbk2DuplicateContactObserveri @ 88 NONAME
	_ZN28CPbk2FieldGroupPropertyArray4NewLERK23MPbk2FieldPropertyArray @ 89 NONAME
	_ZN28CPbk2FieldGroupPropertyArray5NewLCERK23MPbk2FieldPropertyArray @ 90 NONAME
	_ZN29CPbk2PresentationContactField4NewLERK18MPbk2FieldPropertyRK22MVPbkStoreContactFieldR17MVPbkStoreContact @ 91 NONAME
	_ZN29CPbk2PresentationContactField5NewLCERK18MPbk2FieldPropertyRK22MVPbkStoreContactFieldR17MVPbkStoreContact @ 92 NONAME
	_ZN31Pbk2ContactNameFormatterFactory7CreateLERK18MVPbkFieldTypeListRK21CPbk2SortOrderManagerP3RFs @ 93 NONAME
	_ZN31Pbk2ContactNameFormatterFactory7CreateLERK18MVPbkFieldTypeListRK21CPbk2SortOrderManagerR15TResourceReaderPK7TDesC16P3RFs @ 94 NONAME
	_ZN31Pbk2ContactNameFormatterFactory7CreateLERK7TDesC16RK18MVPbkFieldTypeListRK21CPbk2SortOrderManagerP3RFs @ 95 NONAME
	_ZN36CPbk2StoreSpecificFieldPropertyArray4NewLER23MPbk2FieldPropertyArrayR23CPbk2StorePropertyArrayRK18MVPbkFieldTypeListR17MVPbkContactStore @ 96 NONAME
	_ZN39CPbk2PresentationContactFieldCollection4NewLERK23MPbk2FieldPropertyArrayR32MVPbkStoreContactFieldCollectionR17MVPbkStoreContact @ 97 NONAME
	_ZNK11TPbk2IconIdeqERKS_ @ 98 NONAME
	_ZNK17CPbk2ImageManager8HasImageERK16MVPbkBaseContactRK14MVPbkFieldType @ 99 NONAME
	_ZNK18CPbk2StoreInfoItem14ItemTextPluralEv @ 100 NONAME
	_ZNK18CPbk2StoreInfoItem16ItemTextSingularEv @ 101 NONAME
	_ZNK18CPbk2StoreInfoItem5FlagsEv @ 102 NONAME
	_ZNK18CPbk2StoreInfoItem8ItemTypeEv @ 103 NONAME
	_ZNK18CPbk2StoreInfoItem8TextTypeEv @ 104 NONAME
	_ZNK18CPbk2StoreProperty15MemoryInfoTypesEv @ 105 NONAME
	_ZNK18CPbk2StoreProperty20FieldPropertiesResIdEv @ 106 NONAME
	_ZNK18CPbk2StoreProperty35CreateStoreSpecificFieldPropertiesLERK18MVPbkFieldTypeList @ 107 NONAME
	_ZNK18CPbk2StoreProperty5FlagsEv @ 108 NONAME
	_ZNK18CPbk2StoreProperty5ViewsEv @ 109 NONAME
	_ZNK18CPbk2StoreProperty8FindViewE20TPbk2ContactViewType @ 110 NONAME
	_ZNK18CPbk2StoreProperty8StoreUriEv @ 111 NONAME
	_ZNK18CPbk2StoreProperty9StoreNameEv @ 112 NONAME
	_ZNK19CPbk2AttachmentFile8FileNameEv @ 113 NONAME
	_Z31__Pbk2Presentation_DummyExport5v @ 114 NONAME
	_ZNK21CPbk2SortOrderManager16NameDisplayOrderEv @ 115 NONAME
	_ZNK21CPbk2SortOrderManager9SortOrderEv @ 116 NONAME
	_ZNK23CPbk2ContactViewBuilder26CreateGroupViewForStoresLCERK25CVPbkContactStoreUriArrayR24MVPbkContactViewObserverRK18MVPbkFieldTypeListP22CVPbkFieldTypeSelectorm @ 117 NONAME
	_ZNK23CPbk2ContactViewBuilder28CreateContactViewForStoresLCERK25CVPbkContactStoreUriArrayR24MVPbkContactViewObserverRK18MVPbkFieldTypeListP22CVPbkFieldTypeSelectorm @ 118 NONAME
	_ZNK23CPbk2FieldPropertyGroup2AtEi @ 119 NONAME
	_ZNK23CPbk2FieldPropertyGroup5CountEv @ 120 NONAME
	_ZNK23CPbk2StoreConfiguration19DefaultSavingStoreLEv @ 121 NONAME
	_ZNK23CPbk2StoreConfiguration21CurrentConfigurationLEv @ 122 NONAME
	_ZNK23CPbk2StoreConfiguration28SupportedStoreConfigurationLEv @ 123 NONAME
	_ZNK23CPbk2StoreInfoItemArray2AtEi @ 124 NONAME
	_ZNK23CPbk2StoreInfoItemArray5CountEv @ 125 NONAME
	_ZNK23CPbk2StorePropertyArray12FindPropertyERK23TVPbkContactStoreUriPtr @ 126 NONAME
	_ZNK23CPbk2StorePropertyArray2AtEi @ 127 NONAME
	_ZNK23CPbk2StorePropertyArray5CountEv @ 128 NONAME
	_ZNK24CPbk2PresentationContact21AvailableFieldsToAddLEv @ 129 NONAME
	_ZNK24CPbk2PresentationContact24IsFieldAdditionPossibleLERK14MVPbkFieldType @ 130 NONAME
	_ZNK24CPbk2StoreViewDefinition12ViewLocationEv @ 131 NONAME
	_ZNK24CPbk2StoreViewDefinition14ViewDefinitionEv @ 132 NONAME
	_ZNK24CPbk2StoreViewDefinition14ViewItemIconIdEv @ 133 NONAME
	_Z31__Pbk2Presentation_DummyExport2v @ 134 NONAME
	_ZNK24CPbk2StoreViewDefinition8ViewTypeEv @ 135 NONAME
	_ZNK25TPbk2SortOrderFieldMapper10FieldCountEv @ 136 NONAME
	_ZNK25TPbk2SortOrderFieldMapper7FieldAtEi @ 137 NONAME
	_ZNK25TPbk2StoreContactAnalyzer20IsFieldTypeIncludedLERK14MVPbkFieldTypei @ 138 NONAME
	_ZNK25TPbk2StoreContactAnalyzer20IsFieldTypeIncludedLERK21MVPbkBaseContactFieldi @ 139 NONAME
	_ZNK25TPbk2StoreContactAnalyzer21IsFieldTypeSupportedLEiPK17MVPbkStoreContact @ 140 NONAME
	_ZNK25TPbk2StoreContactAnalyzer9HasFieldLEiiPK17MVPbkStoreContact @ 141 NONAME
	_ZNK28CPbk2FieldGroupPropertyArray10GroupCountEv @ 142 NONAME
	_ZNK28CPbk2FieldGroupPropertyArray20FindGroupForPropertyERK18MPbk2FieldProperty @ 143 NONAME
	_ZNK28CPbk2FieldGroupPropertyArray7GroupAtEi @ 144 NONAME
	_ZNK29CPbk2PresentationContactField10IsEditableEv @ 145 NONAME
	_ZNK29CPbk2PresentationContactField11IsRemovableEv @ 146 NONAME
	_ZNK29CPbk2PresentationContactField13MaxDataLengthEv @ 147 NONAME
	_ZNK29CPbk2PresentationContactField22IsVisibleInDetailsViewEv @ 148 NONAME
	_ZNK29CPbk2PresentationContactField7IsEmptyEv @ 149 NONAME
	_ZNK39CPbk2PresentationContactFieldCollection13ContainsFieldERK18MPbk2FieldProperty @ 150 NONAME
	_ZNK39CPbk2PresentationContactFieldCollection14FindFieldIndexERK22MVPbkStoreContactField @ 151 NONAME
	_ZNK39CPbk2PresentationContactFieldCollection17StoreIndexOfFieldEi @ 152 NONAME
	_ZNK39CPbk2PresentationContactFieldCollection22ContainsFieldFromGroupERK23CPbk2FieldPropertyGroup @ 153 NONAME
	_ZNK39CPbk2PresentationContactFieldCollection2AtEi @ 154 NONAME
	_ZTI17CPbk2ContactMerge @ 155 NONAME ; #<TI>#
	_ZTI17CPbk2ImageManager @ 156 NONAME ; #<TI>#
	_ZTI18CPbk2StoreProperty @ 157 NONAME ; #<TI>#
	_Z31__Pbk2Presentation_DummyExport6v @ 158 NONAME
	_ZTI21CPbk2SortOrderManager @ 159 NONAME ; #<TI>#
	_ZTI23CPbk2ContactViewBuilder @ 160 NONAME ; #<TI>#
	_ZTI23CPbk2FieldPropertyArray @ 161 NONAME ; #<TI>#
	_ZTI23CPbk2FieldPropertyGroup @ 162 NONAME ; #<TI>#
	_ZTI23CPbk2StoreConfiguration @ 163 NONAME ; #<TI>#
	_ZTI23CPbk2StorePropertyArray @ 164 NONAME ; #<TI>#
	_ZTI24CPbk2PresentationContact @ 165 NONAME ; #<TI>#
	_ZTI24CPbk2StoreViewDefinition @ 166 NONAME ; #<TI>#
	_ZTI27CPbk2DuplicateContactFinder @ 167 NONAME ; #<TI>#
	_ZTI28CPbk2FieldGroupPropertyArray @ 168 NONAME ; #<TI>#
	_ZTI29CPbk2PresentationContactField @ 169 NONAME ; #<TI>#
	_ZTI36CPbk2StoreSpecificFieldPropertyArray @ 170 NONAME ; #<TI>#
	_ZTI39CPbk2PresentationContactFieldCollection @ 171 NONAME ; #<TI>#
	_ZTV17CPbk2ContactMerge @ 172 NONAME ; #<VT>#
	_ZTV17CPbk2ImageManager @ 173 NONAME ; #<VT>#
	_ZTV18CPbk2StoreProperty @ 174 NONAME ; #<VT>#
	_Z31__Pbk2Presentation_DummyExport7v @ 175 NONAME
	_ZTV21CPbk2SortOrderManager @ 176 NONAME ; #<VT>#
	_ZTV23CPbk2ContactViewBuilder @ 177 NONAME ; #<VT>#
	_ZTV23CPbk2FieldPropertyArray @ 178 NONAME ; #<VT>#
	_ZTV23CPbk2FieldPropertyGroup @ 179 NONAME ; #<VT>#
	_ZTV23CPbk2StoreConfiguration @ 180 NONAME ; #<VT>#
	_ZTV23CPbk2StorePropertyArray @ 181 NONAME ; #<VT>#
	_ZTV24CPbk2PresentationContact @ 182 NONAME ; #<VT>#
	_ZTV24CPbk2StoreViewDefinition @ 183 NONAME ; #<VT>#
	_ZTV27CPbk2DuplicateContactFinder @ 184 NONAME ; #<VT>#
	_ZTV28CPbk2FieldGroupPropertyArray @ 185 NONAME ; #<VT>#
	_ZTV29CPbk2PresentationContactField @ 186 NONAME ; #<VT>#
	_ZTV36CPbk2StoreSpecificFieldPropertyArray @ 187 NONAME ; #<VT>#
	_ZTV39CPbk2PresentationContactFieldCollection @ 188 NONAME ; #<VT>#
	_ZN20Pbk2ContactFieldCopy10CopyFieldLERK22MVPbkStoreContactFieldRK14MVPbkFieldTypeR17MVPbkStoreContact @ 189 NONAME
	_ZN20Pbk2ContactFieldCopy16CopyTitleFieldsLERK17MVPbkStoreContactRS0_R25MPbk2ContactNameFormatter @ 190 NONAME
	_ZN26RPbk2LocalizedResourceFileC1EP3RFs @ 191 NONAME
	_ZN26RPbk2LocalizedResourceFileC2EP3RFs @ 192 NONAME
	_ZN21CPbk2SortOrderManager16DefaultSeparatorEv @ 193 NONAME
	_ZNK21CPbk2SortOrderManager16CurrentSeparatorEv @ 194 NONAME
	_ZNK18CPbk2StoreProperty17RetrieveContentLCE14TPbk2ContentId @ 195 NONAME
	_ZTI34CPbk2StorePropertyContentStoreName @ 196 NONAME ; #<TI>#
	_ZTV34CPbk2StorePropertyContentStoreName @ 197 NONAME ; #<VT>#
	_ZTI12CPbk2Content @ 198 NONAME ; #<TI>#
	_ZTV12CPbk2Content @ 199 NONAME ; #<VT>#
	_ZN21Pbk2PresentationUtils29AppendWithNewlineTranslationLER6TDes16RK7TDesC16 @ 200 NONAME
	_ZN21Pbk2PresentationUtils15TrimRightAppendERK7TDesC16R6TDes16 @ 201 NONAME
	_ZN21Pbk2PresentationUtils24PresentationResourceFileEv @ 202 NONAME
	_ZN23CPbk2StoreConfiguration28AddSupportedContactStoreURILE23TVPbkContactStoreUriPtr @ 203 NONAME
	_ZN23CPbk2StoreConfiguration31RemoveSupportedContactStoreURILE23TVPbkContactStoreUriPtr @ 204 NONAME
	_ZN29CPbk2PresentationContactField17DynamicVisibilityEv @ 205 NONAME
	_ZN29CPbk2PresentationContactField20SetDynamicVisibilityEi @ 206 NONAME
	_ZNK23CPbk2ContactViewBuilder37CreateTopNonTopContactViewForStoresLCERK25CVPbkContactStoreUriArrayR24MVPbkContactViewObserverRK18MVPbkFieldTypeListP22CVPbkFieldTypeSelectormR20MVPbkContactSelector @ 207 NONAME
	_ZN24CPbk2PresentationContact9AddFieldLEP22MVPbkStoreContactFieldRK7TDesC16 @ 208 NONAME
	_ZN19CPbk2ServiceManager4NewLER3RFs @ 209 NONAME
	_ZN23CPbk2FieldPropertyArray4NewLERK18MVPbkFieldTypeListR3RFsP19CPbk2ServiceManager @ 210 NONAME
	_ZN19CPbk2ServiceManager8ServicesEv @ 211 NONAME
	_ZN19CPbk2ServiceManager12RefreshDataLEv @ 212 NONAME

