EXPORTS
	_ZN10Phonebook29Pbk2AppUiEv @ 1 NONAME
	_ZN13CPbk2IconInfo5NewLCE11TPbk2IconIdii7TPtrC1611TAknsItemIDS2_ii @ 2 NONAME
	_ZN13CPbk2ViewNode4NewLE4TUidS0_i15TPbk2TabGroupId21TPbk2TabGroupOrderingiR15TResourceReader @ 3 NONAME
	_Z27__Pbk2CommonUI_DummyExport4v @ 4 NONAME
	_Z27__Pbk2CommonUI_DummyExport6v @ 5 NONAME
	_Z27__Pbk2CommonUI_DummyExport7v @ 6 NONAME
	_ZN14CPbk2IconArray18FindAndCreateIconLERK11TPbk2IconId @ 7 NONAME
	_ZN14CPbk2IconArray24AppendIconsFromResourceLER15TResourceReaderRK22CPbk2IconInfoContainer @ 8 NONAME
	_ZN14CPbk2IconArray4NewLER15TResourceReader @ 9 NONAME
	_ZN14CPbk2IconArray4NewLER15TResourceReaderRK22CPbk2IconInfoContainer @ 10 NONAME
	_ZN14CPbk2IconArray4NewLERK23MPbk2FieldPropertyArray @ 11 NONAME
	_ZN14CPbk2IconArray8RefreshLERK22CPbk2IconInfoContainer @ 12 NONAME
	_ZN14CPbk2IconArray8RefreshLEv @ 13 NONAME
	_ZN14CPbk2ViewGraph12AddViewNodeLEP13CPbk2ViewNode @ 14 NONAME
	_ZN14CPbk2ViewGraph16ModifyViewGraphLER15TResourceReader @ 15 NONAME
	_ZN14CPbk2ViewGraph4NewLER15TResourceReader @ 16 NONAME
	_Z27__Pbk2CommonUI_DummyExport5v @ 17 NONAME
	_Z27__Pbk2CommonUI_DummyExport8v @ 18 NONAME
	_Z27__Pbk2CommonUI_DummyExport9v @ 19 NONAME
	_ZN14CPbk2ViewState13SetTopContactEP16MVPbkContactLink @ 20 NONAME
	_ZN14CPbk2ViewState14TakeTopContactEv @ 21 NONAME
	_ZN14CPbk2ViewState16SetParentContactEP16MVPbkContactLink @ 22 NONAME
	_ZN14CPbk2ViewState16SetTopFieldIndexEi @ 23 NONAME
	_ZN14CPbk2ViewState17SetFocusedContactEP16MVPbkContactLink @ 24 NONAME
	_ZN14CPbk2ViewState17SetMarkedContactsEP21MVPbkContactLinkArray @ 25 NONAME
	_ZN14CPbk2ViewState17TakeParentContactEv @ 26 NONAME
	_ZN14CPbk2ViewState18TakeFocusedContactEv @ 27 NONAME
	_ZN14CPbk2ViewState18TakeMarkedContactsEv @ 28 NONAME
	_ZN14CPbk2ViewState20SetFocusedFieldIndexEi @ 29 NONAME
	_ZN14CPbk2ViewState21SetTopPropertiesIndexEi @ 30 NONAME
	_ZN14CPbk2ViewState25SetFocusedPropertiesIndexEi @ 31 NONAME
	_ZN14CPbk2ViewState3UidEv @ 32 NONAME
	_ZN14CPbk2ViewState4NewLERK6TDesC8 @ 33 NONAME
	_ZN14CPbk2ViewState4NewLEv @ 34 NONAME
	_ZN14CPbk2ViewState5NewLCERK6TDesC8 @ 35 NONAME
	_ZN14CPbk2ViewState5NewLCEv @ 36 NONAME
	_ZN14CPbk2ViewState5ResetEv @ 37 NONAME
	_ZN14CPbk2ViewState7UnpackLERK6TDesC8 @ 38 NONAME
	_ZN14CPbk2ViewState8SetFlagsEj @ 39 NONAME
	_ZN15CPbk2DrmManager15IsProtectedFileERK7TDesC16Ri @ 40 NONAME
	_ZN15CPbk2DrmManager20IsThumbnailForbiddenERK7TDesC16Ri @ 41 NONAME
	_ZN15CPbk2DrmManager22IsRingingToneForbiddenERK7TDesC16Ri @ 42 NONAME
	_ZN15CPbk2DrmManager4NewLEv @ 43 NONAME
	_ZN15CPbk2DrmManagerD0Ev @ 44 NONAME
	_ZN15CPbk2DrmManagerD1Ev @ 45 NONAME
	_ZN15CPbk2DrmManagerD2Ev @ 46 NONAME
	_ZN16CPbk2AppViewBase15ProcessCommandLEi @ 47 NONAME
	_ZN16CPbk2AppViewBase16LaunchPopupMenuLEi @ 48 NONAME
	_ZN16CPbk2AppViewBase17HandleCommandKeyLERK9TKeyEvent10TEventCode @ 49 NONAME
	_ZN16CPbk2AppViewBase19HandleLongTapEventLERK6TPointS2_ @ 50 NONAME
	_ZN16CPbk2AppViewBase19HandlePointerEventLERK13TPointerEvent @ 51 NONAME
	_ZN16CPbk2AppViewBase20Pbk2ProcessKeyEventLERK9TKeyEvent10TEventCode @ 52 NONAME
	_ZN16CPbk2AppViewBase22LaunchStylusPopupMenuLEiRK6TPoint @ 53 NONAME
	_ZN16CPbk2AppViewBase23Pbk2HandleLongTapEventLERK6TPointS2_ @ 54 NONAME
	_ZN16CPbk2AppViewBase24Pbk2ProcessPointerEventLERK13TPointerEvent @ 55 NONAME
	_ZN16CPbk2AppViewBaseC2Ev @ 56 NONAME
	_ZN16CPbk2AppViewBaseD0Ev @ 57 NONAME
	_ZN16CPbk2AppViewBaseD1Ev @ 58 NONAME
	_ZN16CPbk2AppViewBaseD2Ev @ 59 NONAME
	_ZN16CPbk2IconFactory11CreateIconLERK11TPbk2IconIdR17MAknsSkinInstanceRP10CFbsBitmapS7_ @ 60 NONAME
	_ZN16CPbk2IconFactory12CreateIconLCERK11TPbk2IconIdR17MAknsSkinInstanceRP10CFbsBitmapS7_ @ 61 NONAME
	_ZN16CPbk2IconFactory4NewLERK22CPbk2IconInfoContainer @ 62 NONAME
	_ZN16CPbk2IconFactory4NewLEv @ 63 NONAME
	_ZN16CPbk2IconFactory5NewLCERK22CPbk2IconInfoContainer @ 64 NONAME
	_ZN16CPbk2IconFactory5NewLCEv @ 65 NONAME
	_ZN17CPbk2DocumentBaseC2ER15CEikApplication @ 66 NONAME
	_ZN17CPbk2DocumentBaseD0Ev @ 67 NONAME
	_ZN17CPbk2DocumentBaseD1Ev @ 68 NONAME
	_ZN17CPbk2DocumentBaseD2Ev @ 69 NONAME
	_ZN17CPbk2StoreManager11OpenStoresLEv @ 70 NONAME
	_ZN17CPbk2StoreManager17EnableCompressionEi @ 71 NONAME
	_ZN17CPbk2StoreManager33EnsureDefaultSavingStoreIncludedLEv @ 72 NONAME
	_ZN17CPbk2StoreManager41EnsureCurrentConfigurationStoresIncludedLEv @ 73 NONAME
	_ZN17CPbk2StoreManager4NewLER19CVPbkContactManagerR23CPbk2StoreConfigurationi @ 74 NONAME
	_Z27__Pbk2CommonUI_DummyExport3v @ 75 NONAME
	_ZN20Pbk2NavigatorFactory20CreateVoidNavigatorLE4TUidR23MPbk2NavigationObserverR28MPbk2ContactNavigationLoader6TArrayIP17MVPbkContactStoreE @ 76 NONAME
	_ZN20Pbk2NavigatorFactory23CreateContactNavigatorLE4TUidR23MPbk2NavigationObserverR28MPbk2ContactNavigationLoader6TArrayIP17MVPbkContactStoreEi @ 77 NONAME
	_ZN21CPbk2ContactRelocator16RelocateContactLEP17MVPbkStoreContactR29MPbk2ContactRelocatorObserverN20Pbk2ContactRelocator33TPbk2ContactRelocationQueryPolicyEm @ 78 NONAME
	_ZN21CPbk2ContactRelocator17RelocateContactsLEP21CVPbkContactLinkArrayR29MPbk2ContactRelocatorObserverN20Pbk2ContactRelocator33TPbk2ContactRelocationQueryPolicyE @ 79 NONAME
	_ZN21CPbk2ContactRelocator23RelocateAndLockContactLEP17MVPbkStoreContactR29MPbk2ContactRelocatorObserverN20Pbk2ContactRelocator33TPbk2ContactRelocationQueryPolicyEm @ 80 NONAME
	_ZN21CPbk2ContactRelocator4NewLEv @ 81 NONAME
	_ZN21CPbk2FieldFocusHelper18RestoreSavedFieldLEv @ 82 NONAME
	_ZN21CPbk2FieldFocusHelper26SaveInitiallyFocusedFieldLER17MVPbkStoreContact @ 83 NONAME
	_ZN21CPbk2FieldFocusHelper4NewLER21MPbk2ContactUiControlR23MPbk2FieldPropertyArray @ 84 NONAME
	_ZN22CPbk2IconInfoContainer11AppendIconLEP13CPbk2IconInfo @ 85 NONAME
	_ZN22CPbk2IconInfoContainer24AppendIconsFromResourceLER15TResourceReader @ 86 NONAME
	_ZN22CPbk2IconInfoContainer24AppendIconsFromResourceLEi @ 87 NONAME
	_ZN22CPbk2IconInfoContainer4NewLER15TResourceReader @ 88 NONAME
	_ZN22CPbk2IconInfoContainer4NewLEiP7CCoeEnv @ 89 NONAME
	_ZN22CPbk2IconInfoContainer4NewLEv @ 90 NONAME
	_ZN22CPbk2TabGroupContainer25HandleNavigationKeyEventLERK9TKeyEvent10TEventCode @ 91 NONAME
	_ZN22CPbk2TabGroupContainer4NewLER17MPbk2ViewExplorerR30MPbk2TabGroupContainerCallback @ 92 NONAME
	_ZN25CPbk2ControlContainerImpl10ConstructLER15MObjectProvider @ 93 NONAME
	_ZN25CPbk2ControlContainerImpl11SizeChangedEv @ 94 NONAME
	_ZN25CPbk2ControlContainerImpl12FocusChangedE8TDrawNow @ 95 NONAME
	_ZN25CPbk2ControlContainerImpl13SetCoeControlEP11CCoeControlRK5TRecti @ 96 NONAME
	_ZN25CPbk2ControlContainerImpl14DestroyControlEv @ 97 NONAME
	_ZN25CPbk2ControlContainerImpl14OfferKeyEventLERK9TKeyEvent10TEventCode @ 98 NONAME
	_ZN25CPbk2ControlContainerImpl14SetHelpContextERK15TCoeHelpContext @ 99 NONAME
	_ZN25CPbk2ControlContainerImpl16LongTapDetectorLEv @ 100 NONAME
	_ZN25CPbk2ControlContainerImpl18SetKeyEventHandlerEP20MPbk2KeyEventHandler @ 101 NONAME
	_ZN25CPbk2ControlContainerImpl19HandleLongTapEventLERK6TPointS2_ @ 102 NONAME
	_ZN25CPbk2ControlContainerImpl19HandlePointerEventLERK13TPointerEvent @ 103 NONAME
	_ZN25CPbk2ControlContainerImplC1EP20MPbk2KeyEventHandlerP24MPbk2PointerEventHandler @ 104 NONAME
	_ZN25CPbk2ControlContainerImplC2EP20MPbk2KeyEventHandlerP24MPbk2PointerEventHandler @ 105 NONAME
	_ZN25CPbk2ControlContainerImplD0Ev @ 106 NONAME
	_ZN25CPbk2ControlContainerImplD1Ev @ 107 NONAME
	_ZN25CPbk2ControlContainerImplD2Ev @ 108 NONAME
	_ZN25CPbk2ViewStateTransformer41TransformLegacyViewStateToPbk2ViewStateLCERK6TDesC8 @ 109 NONAME
	_ZN25CPbk2ViewStateTransformer5NewLCER19CVPbkContactManager @ 110 NONAME
	_ZN29CPbk2MemoryEntryContactLoader14ChangeContactLERK16MVPbkContactLink @ 111 NONAME
	_ZN29CPbk2MemoryEntryContactLoader4NewLER20MPbk2MemoryEntryView @ 112 NONAME
	_ZNK13CPbk2ViewNode14FindTransitionERK19TPbk2ViewTransition @ 113 NONAME
	_ZNK14CPbk2IconArray2IdEv @ 114 NONAME
	_ZNK14CPbk2IconArray8FindIconERK11TPbk2IconId @ 115 NONAME
	_ZNK14CPbk2ViewGraph18FindNodeWithViewIdE4TUid @ 116 NONAME
	_ZNK14CPbk2ViewGraph20FindViewsInTabGroupLE15TPbk2TabGroupId @ 117 NONAME
	_ZNK14CPbk2ViewState10TopContactEv @ 118 NONAME
	_ZNK14CPbk2ViewState13ParentContactEv @ 119 NONAME
	_ZNK14CPbk2ViewState13TopFieldIndexEv @ 120 NONAME
	_ZNK14CPbk2ViewState14FocusedContactEv @ 121 NONAME
	_ZNK14CPbk2ViewState14MarkedContactsEv @ 122 NONAME
	_ZNK14CPbk2ViewState17FocusedFieldIndexEv @ 123 NONAME
	_ZNK14CPbk2ViewState18TopPropertiesIndexEv @ 124 NONAME
	_ZNK14CPbk2ViewState22FocusedPropertiesIndexEv @ 125 NONAME
	_ZNK14CPbk2ViewState5FlagsEv @ 126 NONAME
	_ZNK14CPbk2ViewState5PackLEv @ 127 NONAME
	_ZNK14CPbk2ViewState6PackLCEv @ 128 NONAME
	_ZNK14CPbk2ViewStateeqERKS_ @ 129 NONAME
	_ZNK16CPbk2AppViewBase11ViewStateLCEv @ 130 NONAME
	_ZNK16CPbk2AppViewBase14ApplicationUidEv @ 131 NONAME
	_ZNK16CPbk2AppViewBase22GetMenuFilteringFlagsLEv @ 132 NONAME
	_ZNK16CPbk2IconFactory11CreateIconLERK11TPbk2IconId @ 133 NONAME
	_ZNK16CPbk2IconFactory12CreateIconLCERK11TPbk2IconId @ 134 NONAME
	_ZNK16CPbk2IconFactory12CreateImageLERK11TPbk2IconId @ 135 NONAME
	_ZNK16CPbk2IconFactory13CreateImageLCERK11TPbk2IconId @ 136 NONAME
	_Z27__Pbk2CommonUI_DummyExport1v @ 137 NONAME
	_Z27__Pbk2CommonUI_DummyExport2v @ 138 NONAME
	_ZNK21CPbk2ContactRelocator20IsPhoneMemoryContactERK17MVPbkStoreContact @ 139 NONAME
	_ZNK21CPbk2ContactRelocator29IsPhoneMemoryInConfigurationLEv @ 140 NONAME
	_ZNK22CPbk2IconInfoContainer4FindERK11TPbk2IconId @ 141 NONAME
	_ZNK22CPbk2TabGroupContainer18TabGroupFromViewIdEi @ 142 NONAME
	_ZNK22CPbk2TabGroupContainer8TabIconsEv @ 143 NONAME
	_ZNK25CPbk2ControlContainerImpl10CoeControlEv @ 144 NONAME
	_ZNK25CPbk2ControlContainerImpl14GetHelpContextER15TCoeHelpContext @ 145 NONAME
	_ZNK25CPbk2ControlContainerImpl15KeyEventHandlerEv @ 146 NONAME
	_ZNK25CPbk2ControlContainerImpl16ComponentControlEi @ 147 NONAME
	_ZNK25CPbk2ControlContainerImpl19PointerEventHandlerEv @ 148 NONAME
	_ZNK25CPbk2ControlContainerImpl22CountComponentControlsEv @ 149 NONAME
	_ZNK29CPbk2MemoryEntryContactLoader13ContactLinkLCEv @ 150 NONAME
	_ZTI13CPbk2IconInfo @ 151 NONAME ; #<TI>#
	_ZTI13CPbk2ViewNode @ 152 NONAME ; #<TI>#
	_ZTI14CPbk2IconArray @ 153 NONAME ; #<TI>#
	_ZTI14CPbk2ViewGraph @ 154 NONAME ; #<TI>#
	_ZTI14CPbk2ViewState @ 155 NONAME ; #<TI>#
	_ZTI15CPbk2DrmManager @ 156 NONAME ; #<TI>#
	_ZTI16CPbk2AppViewBase @ 157 NONAME ; #<TI>#
	_ZTI16CPbk2IconFactory @ 158 NONAME ; #<TI>#
	_ZTI17CPbk2DocumentBase @ 159 NONAME ; #<TI>#
	_ZTI17CPbk2StoreManager @ 160 NONAME ; #<TI>#
	_ZTI19CPbk2NavigationBase @ 161 NONAME ; #<TI>#
	_ZTI19CPbk2VoidNavigation @ 162 NONAME ; #<TI>#
	_ZTI21CPbk2ContactRelocator @ 163 NONAME ; #<TI>#
	_ZTI21CPbk2FieldFocusHelper @ 164 NONAME ; #<TI>#
	_ZTI22CPbk2ContactNavigation @ 165 NONAME ; #<TI>#
	_ZTI22CPbk2IconInfoContainer @ 166 NONAME ; #<TI>#
	_ZTI22CPbk2TabGroupContainer @ 167 NONAME ; #<TI>#
	_ZTI25CPbk2ControlContainerImpl @ 168 NONAME ; #<TI>#
	_ZTI25CPbk2ViewStateTransformer @ 169 NONAME ; #<TI>#
	_ZTI29CPbk2MemoryEntryContactLoader @ 170 NONAME ; #<TI>#
	_ZTIN22CPbk2TabGroupContainer18CPbk2TabGroupEntryE @ 171 NONAME ; #<TI>#
	_ZTV13CPbk2IconInfo @ 172 NONAME ; #<VT>#
	_ZTV13CPbk2ViewNode @ 173 NONAME ; #<VT>#
	_ZTV14CPbk2IconArray @ 174 NONAME ; #<VT>#
	_ZTV14CPbk2ViewGraph @ 175 NONAME ; #<VT>#
	_ZTV14CPbk2ViewState @ 176 NONAME ; #<VT>#
	_ZTV15CPbk2DrmManager @ 177 NONAME ; #<VT>#
	_ZTV16CPbk2AppViewBase @ 178 NONAME ; #<VT>#
	_ZTV16CPbk2IconFactory @ 179 NONAME ; #<VT>#
	_ZTV17CPbk2DocumentBase @ 180 NONAME ; #<VT>#
	_ZTV17CPbk2StoreManager @ 181 NONAME ; #<VT>#
	_ZTV19CPbk2NavigationBase @ 182 NONAME ; #<VT>#
	_ZTV19CPbk2VoidNavigation @ 183 NONAME ; #<VT>#
	_ZTV21CPbk2ContactRelocator @ 184 NONAME ; #<VT>#
	_ZTV21CPbk2FieldFocusHelper @ 185 NONAME ; #<VT>#
	_ZTV22CPbk2ContactNavigation @ 186 NONAME ; #<VT>#
	_ZTV22CPbk2IconInfoContainer @ 187 NONAME ; #<VT>#
	_ZTV22CPbk2TabGroupContainer @ 188 NONAME ; #<VT>#
	_ZTV25CPbk2ControlContainerImpl @ 189 NONAME ; #<VT>#
	_ZTV25CPbk2ViewStateTransformer @ 190 NONAME ; #<VT>#
	_ZTV29CPbk2MemoryEntryContactLoader @ 191 NONAME ; #<VT>#
	_ZTVN22CPbk2TabGroupContainer18CPbk2TabGroupEntryE @ 192 NONAME ; #<VT>#
	_ZThn12_N16CPbk2AppViewBase15ProcessCommandLEi @ 193 NONAME ; #<thunk>#
	_ZThn4_N29CPbk2MemoryEntryContactLoader14ChangeContactLERK16MVPbkContactLink @ 194 NONAME ; #<thunk>#
	_ZThn4_NK29CPbk2MemoryEntryContactLoader13ContactLinkLCEv @ 195 NONAME ; #<thunk>#
	_ZThn52_N25CPbk2ControlContainerImpl19HandleLongTapEventLERK6TPointS2_ @ 196 NONAME ; #<thunk>#
	_ZThn80_N16CPbk2AppViewBase20Pbk2ProcessKeyEventLERK9TKeyEvent10TEventCode @ 197 NONAME ; #<thunk>#
	_ZThn84_N16CPbk2AppViewBase23Pbk2HandleLongTapEventLERK6TPointS2_ @ 198 NONAME ; #<thunk>#
	_ZThn84_N16CPbk2AppViewBase24Pbk2ProcessPointerEventLERK13TPointerEvent @ 199 NONAME ; #<thunk>#
	_ZN24CPbk2ContactViewSupplier4NewLER19CVPbkContactManagerR21CPbk2SortOrderManagerR23CPbk2StoreConfigurationR23CPbk2StorePropertyArrayi @ 200 NONAME
	_ZTI24CPbk2ContactViewSupplier @ 201 NONAME ; #<TI>#
	_ZTV24CPbk2ContactViewSupplier @ 202 NONAME ; #<VT>#
	_ZThn80_N16CPbk2AppViewBaseD0Ev @ 203 NONAME ; #<thunk>#
	_ZThn80_N16CPbk2AppViewBaseD1Ev @ 204 NONAME ; #<thunk>#
	_ZThn84_N16CPbk2AppViewBaseD0Ev @ 205 NONAME ; #<thunk>#
	_ZThn84_N16CPbk2AppViewBaseD1Ev @ 206 NONAME ; #<thunk>#
	_ZN16CPbk2AppViewBase10ClosePopupEv @ 207 NONAME
	_ZN14CPbk2IconArray11AppendIconLEP8CGulIconRK11TPbk2IconId @ 208 NONAME
	_ZTI26CPbk2NonTopContactSelector @ 209 NONAME ; #<TI>#
	_ZTV26CPbk2NonTopContactSelector @ 210 NONAME ; #<VT>#
	_ZN21CPbk2RingingToneFetch17FetchRingingToneLER4TBufILi256EE @ 211 NONAME
	_ZN21CPbk2RingingToneFetch4NewLEv @ 212 NONAME
	_ZN13CPbk2IconInfo5NewLCE11TPbk2IconIdPK10CFbsBitmapS3_5TSize @ 213 NONAME
	_ZN14CPbk2IconArray11AppendIconLEP13CPbk2IconInfo @ 214 NONAME
	_ZN16CPbk2IconFactory11AppendIconLEP13CPbk2IconInfo @ 215 NONAME
	_ZN24CPbk2ApplicationServices9InstanceLEv @ 216 NONAME
	_ZN21CPbk2PresenceIconInfo10IconBitmapEv @ 217 NONAME
	_ZN21CPbk2PresenceIconInfo11ServiceNameEv @ 218 NONAME
	_ZN21CPbk2PresenceIconInfo14IconBitmapMaskEv @ 219 NONAME
	_ZN21CPbk2PresenceIconInfo4NewLERK6TDesC8S2_RK7TDesC16 @ 220 NONAME
	_ZN21CPbk2PresenceIconInfo7BrandIdEv @ 221 NONAME
	_ZN21CPbk2PresenceIconInfo9ElementIdEv @ 222 NONAME
	_ZN21CPbk2PresenceIconInfo9SetBitmapEP10CFbsBitmapS1_ @ 223 NONAME
	_ZTI21CPbk2PresenceIconInfo @ 224 NONAME ; #<TI>#
	_ZTV21CPbk2PresenceIconInfo @ 225 NONAME ; #<VT>#
	_ZN16CPbk2AppViewBase23LaunchStylusPopupMenu2LEiRK6TPoint @ 226 NONAME
	_ZN24CPbk2ApplicationServices10InstanceLCEv @ 227 NONAME
	_ZN25CPbk2ControlContainerImpl21AddForegroundObserverEP44MPbk2ControlContainerForegroundEventObserver @ 228 NONAME
	_ZN25CPbk2ControlContainerImpl24RemoveForegroundObserverEv @ 229 NONAME
	_ZN14CPbk2IconArray10RemoveIconERK11TPbk2IconId @ 230 NONAME
	_ZN21CPbk2FieldFocusHelper17SetUiControlValidEi @ 231 NONAME

