EXPORTS
	??1CLogsEngine@@UAE@XZ @ 1 NONAME ; CLogsEngine::~CLogsEngine(void)
	?CLogClientRef@CLogsEngine@@QAEPAVCLogClient@@XZ @ 2 NONAME ; class CLogClient * CLogsEngine::CLogClientRef(void)
	?ClearLogsL@CLogsEngine@@QAEPAVMLogsClearLog@@XZ @ 3 NONAME ; class MLogsClearLog * CLogsEngine::ClearLogsL(void)
	?ClearNewMissedL@CLogsEngine@@QAEPAVMLogsClearNewMissed@@XZ @ 4 NONAME ; class MLogsClearNewMissed * CLogsEngine::ClearNewMissedL(void)
	?ConfigL@CLogsEngine@@QAEPAVMLogsConfig@@XZ @ 5 NONAME ; class MLogsConfig * CLogsEngine::ConfigL(void)
	?ConvertToUnicode@CLogsEngine@@QAEHABVTDesC8@@AAVTDes16@@@Z @ 6 NONAME ; int CLogsEngine::ConvertToUnicode(class TDesC8 const &, class TDes16 &)
	?CreateModelL@CLogsEngine@@QAEXW4TLogsModel@@@Z @ 7 NONAME ; void CLogsEngine::CreateModelL(enum TLogsModel)
	?DeleteClearLog@CLogsEngine@@QAEXXZ @ 8 NONAME ; void CLogsEngine::DeleteClearLog(void)
	?DeleteConfig@CLogsEngine@@QAEXXZ @ 9 NONAME ; void CLogsEngine::DeleteConfig(void)
	?DeleteEventUpdater@CLogsEngine@@QAEXXZ @ 10 NONAME ; void CLogsEngine::DeleteEventUpdater(void)
	?DeleteGetEvent@CLogsEngine@@QAEXXZ @ 11 NONAME ; void CLogsEngine::DeleteGetEvent(void)
	?DeleteSMSEventUpdater@CLogsEngine@@QAEXXZ @ 12 NONAME ; void CLogsEngine::DeleteSMSEventUpdater(void)
	?DeleteSystemAgent@CLogsEngine@@QAEXXZ @ 13 NONAME ; void CLogsEngine::DeleteSystemAgent(void)
	?EventUpdaterL@CLogsEngine@@QAEPAVMLogsReader@@XZ @ 14 NONAME ; class MLogsReader * CLogsEngine::EventUpdaterL(void)
	?FreeResourcesForBGModeL@CLogsEngine@@QAEXXZ @ 15 NONAME ; void CLogsEngine::FreeResourcesForBGModeL(void)
	?GetEventL@CLogsEngine@@QAEPAVMLogsGetEvent@@XZ @ 16 NONAME ; class MLogsGetEvent * CLogsEngine::GetEventL(void)
	?LogDbStrings@CLogsEngine@@QAE?AUTLogsEventStrings@@XZ @ 17 NONAME ; struct TLogsEventStrings CLogsEngine::LogDbStrings(void)
	?LogsReaderConfigLC@CLogsReaderConfigFactory@@SAPAVMLogsReaderConfig@@PBVTDesC16@@0@Z @ 18 NONAME ; class MLogsReaderConfig * CLogsReaderConfigFactory::LogsReaderConfigLC(class TDesC16 const *, class TDesC16 const *)
	?LogsReaderConfigLC@CLogsReaderConfigFactory@@SAPAVMLogsReaderConfig@@PBVTDesC16@@@Z @ 19 NONAME ; class MLogsReaderConfig * CLogsReaderConfigFactory::LogsReaderConfigLC(class TDesC16 const *)
	?LogsReaderConfigLC@CLogsReaderConfigFactory@@SAPAVMLogsReaderConfig@@W4TLogsFilter@@@Z @ 20 NONAME ; class MLogsReaderConfig * CLogsReaderConfigFactory::LogsReaderConfigLC(enum TLogsFilter)
	?Model@CLogsEngine@@QBEPAVMLogsModel@@W4TLogsModel@@@Z @ 21 NONAME ; class MLogsModel * CLogsEngine::Model(enum TLogsModel) const
	?NewL@CLogsEngine@@SAPAV1@XZ @ 22 NONAME ; class CLogsEngine * CLogsEngine::NewL(void)
	?SharedDataL@CLogsEngine@@QAEPAVMLogsSharedData@@XZ @ 23 NONAME ; class MLogsSharedData * CLogsEngine::SharedDataL(void)
	?StartSMSEventUpdaterL@CLogsEngine@@QAEXXZ @ 24 NONAME ; void CLogsEngine::StartSMSEventUpdaterL(void)
	?SystemAgentL@CLogsEngine@@QAEPAVMLogsSystemAgent@@XZ @ 25 NONAME ; class MLogsSystemAgent * CLogsEngine::SystemAgentL(void)
	?IsCntLinkValidSync@CLogsCntLinkChecker@@QAEHABVTDesC8@@@Z @ 26 NONAME ; int CLogsCntLinkChecker::IsCntLinkValidSync(class TDesC8 const &)
	?LogsReaderConfigLC@CLogsReaderConfigFactory@@SAPAVMLogsReaderConfig@@PBVTDesC16@@0PBVTDesC8@@@Z @ 27 NONAME ; class MLogsReaderConfig * CLogsReaderConfigFactory::LogsReaderConfigLC(class TDesC16 const *, class TDesC16 const *, class TDesC8 const *)
	?DeleteCntLinkChecker@CLogsEngine@@QAEXXZ @ 28 NONAME ; void CLogsEngine::DeleteCntLinkChecker(void)
	?CntLinkCheckerL@CLogsEngine@@QAEPAVCLogsCntLinkChecker@@XZ @ 29 NONAME ; class CLogsCntLinkChecker * CLogsEngine::CntLinkCheckerL(void)
	?IsSameContactLink@CLogsCntLinkChecker@@QBEHABVTDesC8@@@Z @ 30 NONAME ; int CLogsCntLinkChecker::IsSameContactLink(class TDesC8 const &) const

