EXPORTS
	??1CSpdiaControl@@UAE@XZ @ 1 NONAME ; public: virtual __thiscall CSpdiaControl::~CSpdiaControl(void)
	?ApplyCellSpdiaPaneStyleL@CSpdiaControl@@QAEXAAVCAknGrid@@AAVTSize@@@Z @ 2 NONAME ; public: void __thiscall CSpdiaControl::ApplyCellSpdiaPaneStyleL(class CAknGrid &,class TSize &)
	?AssignDialIndexL@CSpdiaControl@@QAEHH@Z @ 3 NONAME ; public: int __thiscall CSpdiaControl::AssignDialIndexL(int)
	?AssignDialNumberL@CSpdiaControl@@QAEHHPAVCEikStatusPane@@@Z @ 4 NONAME ; public: int __thiscall CSpdiaControl::AssignDialNumberL(int,class CEikStatusPane *)
	?AssignNumberL@CSpdiaControl@@QAEHHPAVCEikStatusPane@@PAVCCoeControl@@H@Z @ 5 NONAME ; public: int __thiscall CSpdiaControl::AssignNumberL(int,class CEikStatusPane *,class CCoeControl *,int)
	?Cancel@CSpdiaControl@@QAEXXZ @ 6 NONAME ; public: void __thiscall CSpdiaControl::Cancel(void)
	?ContactId@CSpdiaControl@@QBEJH@Z @ 7 NONAME ; public: long __thiscall CSpdiaControl::ContactId(int)const 
	?ContactTitleL@CSpdiaControl@@QAEPAVHBufC16@@JH@Z @ 8 NONAME ; public: class HBufC16 * __thiscall CSpdiaControl::ContactTitleL(long,int)
	?CreateGridDataL@CSpdiaControl@@QAEHPAVCAknGrid@@H@Z @ 9 NONAME ; public: int __thiscall CSpdiaControl::CreateGridDataL(class CAknGrid *,int)
	?DialNumberL@CSpdiaControl@@QAEHHAAVTDes16@@PAVCEikStatusPane@@@Z @ 10 NONAME ; public: int __thiscall CSpdiaControl::DialNumberL(int,class TDes16 &,class CEikStatusPane *)
	?DrawShadow@CSpdiaControl@@QAEXAAVCWindowGc@@ABVTSize@@@Z @ 11 NONAME ; public: void __thiscall CSpdiaControl::DrawShadow(class CWindowGc &,class TSize const &)
	?ExecuteLD@CSpdiaControl@@QAEHJH@Z @ 12 NONAME ; public: int __thiscall CSpdiaControl::ExecuteLD(long,int)
	?IconArray@CSpdiaControl@@QBEPAV?$CArrayPtr@VCGulIcon@@@@XZ @ 13 NONAME ; public: class CArrayPtr<class CGulIcon> * __thiscall CSpdiaControl::IconArray(void)const 
	?IconIndex@CSpdiaControl@@QBEHH@Z @ 14 NONAME ; public: int __thiscall CSpdiaControl::IconIndex(int)const 
	?Index@CSpdiaControl@@QBEHH@Z @ 15 NONAME ; public: int __thiscall CSpdiaControl::Index(int)const 
	?NewL@CSpdiaControl@@SAPAV1@AAVCPbkContactEngine@@@Z @ 16 NONAME ; public: static class CSpdiaControl * __cdecl CSpdiaControl::NewL(class CPbkContactEngine &)
	?NewL@CSpdiaControl@@SAPAV1@XZ @ 17 NONAME ; public: static class CSpdiaControl * __cdecl CSpdiaControl::NewL(void)
	?Number@CSpdiaControl@@QBEHH@Z @ 18 NONAME ; public: int __thiscall CSpdiaControl::Number(int)const 
	?NumberType@CSpdiaControl@@QBEHH@Z @ 19 NONAME ; public: int __thiscall CSpdiaControl::NumberType(int)const 
	?PbkEngine@CSpdiaControl@@QBEPAVCPbkContactEngine@@XZ @ 20 NONAME ; public: class CPbkContactEngine * __thiscall CSpdiaControl::PbkEngine(void)const 
	?PhoneDialNumber@CSpdiaControl@@QBEABVTDesC16@@H@Z @ 21 NONAME ; public: class TDesC16 const & __thiscall CSpdiaControl::PhoneDialNumber(int)const 
	?PhoneNumber@CSpdiaControl@@QBEABVTDesC16@@H@Z @ 22 NONAME ; public: class TDesC16 const & __thiscall CSpdiaControl::PhoneNumber(int)const 
	?RemoveDialIndexL@CSpdiaControl@@QAEHHH@Z @ 23 NONAME ; public: int __thiscall CSpdiaControl::RemoveDialIndexL(int,int)
	?SetLayout@CSpdiaControl@@QAEXABVTRect@@@Z @ 24 NONAME ; public: void __thiscall CSpdiaControl::SetLayout(class TRect const &)
	?Size@CSpdiaControl@@QBEHXZ @ 25 NONAME ; public: int __thiscall CSpdiaControl::Size(void)const 
	?SpdIconIndex@CSpdiaControl@@QBEHH@Z @ 26 NONAME ; public: int __thiscall CSpdiaControl::SpdIconIndex(int)const 
	?ThumbIndex@CSpdiaControl@@QBEHH@Z @ 27 NONAME ; public: int __thiscall CSpdiaControl::ThumbIndex(int)const 
	?VMBoxPosition@CSpdiaControl@@QBEHXZ @ 28 NONAME ; public: int __thiscall CSpdiaControl::VMBoxPosition(void)const 
	?VoiceMailL@CSpdiaControl@@QAEHAAVTDes16@@@Z @ 29 NONAME ; public: int __thiscall CSpdiaControl::VoiceMailL(class TDes16 &)
	?DeleteIconArray@CSpdiaControl@@QAEXXZ @ 30 NONAME ; public: void __thiscall CSpdiaControl::DeleteIconArray(void)
	?ReloadIconArray@CSpdiaControl@@QAEXXZ @ 31 NONAME ; public: void __thiscall CSpdiaControl::ReloadIconArray(void)
	?GridStatus@CSpeedDialPrivate@@QAE?AW4TGridUse@1@XZ @ 32 NONAME ; enum CSpeedDialPrivate::TGridUse CSpeedDialPrivate::GridStatus(void)
	?VoiceMailType@CSpdiaControl@@QAEHXZ @ 33 NONAME ; int CSpdiaControl::VoiceMailType(void)
	??1CSpeedDialPrivate@@UAE@XZ @ 34 NONAME ; CSpeedDialPrivate::~CSpeedDialPrivate(void)
	?NewL@CSpdiaDialogs@@SAPAV1@AAVCVPbkContactManager@@@Z @ 35 NONAME ; class CSpdiaDialogs * CSpdiaDialogs::NewL(class CVPbkContactManager &)
	?SetUpdateFlag@CSpeedDialPrivate@@QAEXH@Z @ 36 NONAME ; void CSpeedDialPrivate::SetUpdateFlag(int)
	?SetGridStatus@CSpeedDialPrivate@@QAEXW4TGridUse@1@@Z @ 37 NONAME ; void CSpeedDialPrivate::SetGridStatus(enum CSpeedDialPrivate::TGridUse)
	?VdoMBoxPosition@CSpeedDialPrivate@@QBEHXZ @ 38 NONAME ; int CSpeedDialPrivate::VdoMBoxPosition(void) const
	?SetLayout@CSpeedDialPrivate@@QAEXABVTRect@@@Z @ 39 NONAME ; void CSpeedDialPrivate::SetLayout(class TRect const &)
	?ShowRemove@CSpdiaDialogs@@QAEHH@Z @ 40 NONAME ; int CSpdiaDialogs::ShowRemove(int)
	?ExVoiceMailL@CSpeedDialPrivate@@QAEHAAVTDes16@@@Z @ 41 NONAME ; int CSpeedDialPrivate::ExVoiceMailL(class TDes16 &)
	?ShowAssign@CSpeedDialPrivate@@QAEHAAVMVPbkContactLink@@AAH@Z @ 42 NONAME ; int CSpeedDialPrivate::ShowAssign(class MVPbkContactLink &, int &)
	?ContactTitleL@CSpeedDialPrivate@@QAEPAVHBufC16@@PAVMVPbkBaseContact@@H@Z @ 43 NONAME ; class HBufC16 * CSpeedDialPrivate::ContactTitleL(class MVPbkBaseContact *, int)
	?ShowAssign@CSpdiaDialogs@@QAEHAAVMVPbkContactLink@@AAH@Z @ 44 NONAME ; int CSpdiaDialogs::ShowAssign(class MVPbkContactLink &, int &)
	?IconArray@CSpeedDialPrivate@@QBEPAV?$CArrayPtr@VCGulIcon@@@@XZ @ 45 NONAME ; class CArrayPtr<class CGulIcon> * CSpeedDialPrivate::IconArray(void) const
	?UpdateFlag@CSpeedDialPrivate@@QAEHXZ @ 46 NONAME ; int CSpeedDialPrivate::UpdateFlag(void)
	?NumberType@CSpeedDialPrivate@@QBEHH@Z @ 47 NONAME ; int CSpeedDialPrivate::NumberType(int) const
	?SetState@CSpeedDialPrivate@@QAEXW4eSpeedDialState@1@@Z @ 48 NONAME ; void CSpeedDialPrivate::SetState(enum CSpeedDialPrivate::eSpeedDialState)
	?GetWait@CSpeedDialPrivate@@QAEPAVCActiveSchedulerWait@@XZ @ 49 NONAME ; class CActiveSchedulerWait * CSpeedDialPrivate::GetWait(void)
	?EMail@CSpeedDialPrivate@@QAEPAVHBufC16@@PAVMVPbkStoreContact@@@Z @ 50 NONAME ; class HBufC16 * CSpeedDialPrivate::EMail(class MVPbkStoreContact *)
	?State@CSpeedDialPrivate@@QAE?AW4eSpeedDialState@1@XZ @ 51 NONAME ; enum CSpeedDialPrivate::eSpeedDialState CSpeedDialPrivate::State(void)
	?Cancel@CSpeedDialPrivate@@QAEHXZ @ 52 NONAME ; int CSpeedDialPrivate::Cancel(void)
	?DeleteIconArray@CSpeedDialPrivate@@QAEXXZ @ 53 NONAME ; void CSpeedDialPrivate::DeleteIconArray(void)
	?ShowAssign@CSpeedDialPrivate@@QAEHHAAPAVMVPbkContactLink@@@Z @ 54 NONAME ; int CSpeedDialPrivate::ShowAssign(int, class MVPbkContactLink * &)
	?ShowAssign@CSpdiaDialogs@@QAEHHAAPAVMVPbkContactLink@@@Z @ 55 NONAME ; int CSpdiaDialogs::ShowAssign(int, class MVPbkContactLink * &)
	?Contact@CSpeedDialPrivate@@QAEPAVMVPbkStoreContact@@H@Z @ 56 NONAME ; class MVPbkStoreContact * CSpeedDialPrivate::Contact(int)
	?ThumbIndex@CSpeedDialPrivate@@QBEHH@Z @ 57 NONAME ; int CSpeedDialPrivate::ThumbIndex(int) const
	?Number@CSpeedDialPrivate@@QBEHH@Z @ 58 NONAME ; int CSpeedDialPrivate::Number(int) const
	?CheckingIfPopUpNeeded@CSpdiaControl@@QAEHXZ @ 59 NONAME ; int CSpdiaControl::CheckingIfPopUpNeeded(void)
	?GetSpdCtrlLastError@CSpdiaControl@@QAEHXZ @ 60 NONAME ; int CSpdiaControl::GetSpdCtrlLastError(void)
	?ReloadIconArray@CSpeedDialPrivate@@QAEXXZ @ 61 NONAME ; void CSpeedDialPrivate::ReloadIconArray(void)
	?VMBoxPosition@CSpeedDialPrivate@@QBEHXZ @ 62 NONAME ; int CSpeedDialPrivate::VMBoxPosition(void) const
	?VoiceMailType@CSpeedDialPrivate@@QAEHXZ @ 63 NONAME ; int CSpeedDialPrivate::VoiceMailType(void)
	?PhoneNumber@CSpeedDialPrivate@@QBEABVTDesC16@@H@Z @ 64 NONAME ; class TDesC16 const & CSpeedDialPrivate::PhoneNumber(int) const
	?SpdIconIndex@CSpeedDialPrivate@@QBEHH@Z @ 65 NONAME ; int CSpeedDialPrivate::SpdIconIndex(int) const
	?GetSpdCtrlLastError@CSpeedDialPrivate@@QAEHXZ @ 66 NONAME ; int CSpeedDialPrivate::GetSpdCtrlLastError(void)
	?ExVideoMailL@CSpeedDialPrivate@@QAEHAAVTDes16@@@Z @ 67 NONAME ; int CSpeedDialPrivate::ExVideoMailL(class TDes16 &)
	?Cancel@CSpdiaDialogs@@QAEHXZ @ 68 NONAME ; int CSpdiaDialogs::Cancel(void)
	?SetRefreshObserver@CSpeedDialPrivate@@QAEXPAVMRefreshObserver@@@Z @ 69 NONAME ; void CSpeedDialPrivate::SetRefreshObserver(class MRefreshObserver *)
	?ShowRemove@CSpeedDialPrivate@@QAEHH@Z @ 70 NONAME ; int CSpeedDialPrivate::ShowRemove(int)
	?CheckingIfPopUpNeededL@CSpeedDialPrivate@@QAEHXZ @ 71 NONAME ; int CSpeedDialPrivate::CheckingIfPopUpNeededL(void)
	?NewL@CSpeedDialPrivate@@SAPAV1@PAVCVPbkContactManager@@@Z @ 72 NONAME ; class CSpeedDialPrivate * CSpeedDialPrivate::NewL(class CVPbkContactManager *)
	?CreateGridDataL@CSpeedDialPrivate@@QAEHPAVCAknGrid@@H@Z @ 73 NONAME ; int CSpeedDialPrivate::CreateGridDataL(class CAknGrid *, int)
	?SetCurrentGridIndex@CSpeedDialPrivate@@QAEXH@Z @ 74 NONAME ; void CSpeedDialPrivate::SetCurrentGridIndex(int)
	?VoiceMailL@CSpeedDialPrivate@@QAEHAAVTDes16@@@Z @ 75 NONAME ; int CSpeedDialPrivate::VoiceMailL(class TDes16 &)
	?Index@CSpeedDialPrivate@@QBEHH@Z @ 76 NONAME ; int CSpeedDialPrivate::Index(int) const
	?SetGridDataAsNull@CSpeedDialPrivate@@QAEXXZ @ 77 NONAME ; void CSpeedDialPrivate::SetGridDataAsNull(void)

