EXPORTS
	?AddAndExecuteCommandL@CVPbkSimCommandStore@@QAEXPAVMVPbkSimCommand@@@Z @ 1 NONAME ; void CVPbkSimCommandStore::AddAndExecuteCommandL(class MVPbkSimCommand *)
	?AddFieldL@CVPbkSimContact@@QAEXPAVCVPbkSimCntField@@@Z @ 2 NONAME ; void CVPbkSimContact::AddFieldL(class CVPbkSimCntField *)
	?CancelAll@CVPbkSimCommandStore@@QAEXXZ @ 3 NONAME ; void CVPbkSimCommandStore::CancelAll(void)
	?CancelCommand@CVPbkSimCommandStore@@QAEXAAVMVPbkSimCommand@@@Z @ 4 NONAME ; void CVPbkSimCommandStore::CancelCommand(class MVPbkSimCommand &)
	?CreateFieldLC@CVPbkSimContact@@QBEPAVCVPbkSimCntField@@W4TVPbkSimCntFieldType@@@Z @ 5 NONAME ; class CVPbkSimCntField * CVPbkSimContact::CreateFieldLC(enum TVPbkSimCntFieldType) const
	?DeleteAllFields@CVPbkSimContact@@QAEXXZ @ 6 NONAME ; void CVPbkSimContact::DeleteAllFields(void)
	?DeleteField@CVPbkSimContact@@QAEXH@Z @ 7 NONAME ; void CVPbkSimContact::DeleteField(int)
	?MaxDataLength@CVPbkSimCntField@@QAEHXZ @ 8 NONAME ; int CVPbkSimCntField::MaxDataLength(void)
	?NewL@CVPbkETelCntConverter@@SAPAV1@XZ @ 9 NONAME ; class CVPbkETelCntConverter * CVPbkETelCntConverter::NewL(void)
	?NewL@CVPbkSimCommandStore@@SAPAV1@H@Z @ 10 NONAME ; class CVPbkSimCommandStore * CVPbkSimCommandStore::NewL(int)
	?NewL@CVPbkSimContact@@SAPAV1@AAVMVPbkSimCntStore@@@Z @ 11 NONAME ; class CVPbkSimContact * CVPbkSimContact::NewL(class MVPbkSimCntStore &)
	?NewL@CVPbkSimContact@@SAPAV1@ABVTDesC8@@AAVMVPbkSimCntStore@@@Z @ 12 NONAME ; class CVPbkSimContact * CVPbkSimContact::NewL(class TDesC8 const &, class MVPbkSimCntStore &)
	?NewL@CVPbkSimContactBuf@@SAPAV1@AAVMVPbkSimCntStore@@@Z @ 13 NONAME ; class CVPbkSimContactBuf * CVPbkSimContactBuf::NewL(class MVPbkSimCntStore &)
	?NewL@CVPbkSimContactBuf@@SAPAV1@ABVTDesC8@@AAVMVPbkSimCntStore@@@Z @ 14 NONAME ; class CVPbkSimContactBuf * CVPbkSimContactBuf::NewL(class TDesC8 const &, class MVPbkSimCntStore &)
	?NewL@CVPbkSimStoreManager@@SAPAV1@XZ @ 15 NONAME ; class CVPbkSimStoreManager * CVPbkSimStoreManager::NewL(void)
	?NewLC@CVPbkETelCntConverter@@SAPAV1@XZ @ 16 NONAME ; class CVPbkETelCntConverter * CVPbkETelCntConverter::NewLC(void)
	?NewLC@CVPbkSimContact@@SAPAV1@AAVMVPbkSimCntStore@@@Z @ 17 NONAME ; class CVPbkSimContact * CVPbkSimContact::NewLC(class MVPbkSimCntStore &)
	?NewLC@CVPbkSimContact@@SAPAV1@ABVTDesC8@@AAVMVPbkSimCntStore@@@Z @ 18 NONAME ; class CVPbkSimContact * CVPbkSimContact::NewLC(class TDesC8 const &, class MVPbkSimCntStore &)
	?NewLC@CVPbkSimContactBuf@@SAPAV1@AAVMVPbkSimCntStore@@@Z @ 19 NONAME ; class CVPbkSimContactBuf * CVPbkSimContactBuf::NewLC(class MVPbkSimCntStore &)
	?NewLC@CVPbkSimContactBuf@@SAPAV1@ABVTDesC8@@AAVMVPbkSimCntStore@@@Z @ 20 NONAME ; class CVPbkSimContactBuf * CVPbkSimContactBuf::NewLC(class TDesC8 const &, class MVPbkSimCntStore &)
	?Phone@CVPbkSimStoreManager@@QAEAAVMVPbkSimPhone@@XZ @ 21 NONAME ; class MVPbkSimPhone & CVPbkSimStoreManager::Phone(void)
	?SaveL@CVPbkSimContact@@QAEPAVMVPbkSimStoreOperation@@AAVMVPbkSimContactObserver@@@Z @ 22 NONAME ; class MVPbkSimStoreOperation * CVPbkSimContact::SaveL(class MVPbkSimContactObserver &)
	?SetDataL@CVPbkSimCntField@@QAEXABVTDesC16@@@Z @ 23 NONAME ; void CVPbkSimCntField::SetDataL(class TDesC16 const &)
	?StoreL@CVPbkSimStoreManager@@QAEAAVMVPbkSimCntStore@@W4TVPbkSimStoreIdentifier@@@Z @ 24 NONAME ; class MVPbkSimCntStore & CVPbkSimStoreManager::StoreL(enum TVPbkSimStoreIdentifier)
	?NewLC@CVPbkSimContactView@@SAPAV1@ABVRVPbkSimFieldTypeArray@@W4TVPbkSimViewConstructionPolicy@@AAVMVPbkSimCntStore@@ABVTDesC16@@PAVCVPbkSimFieldTypeFilter@@@Z @ 25 NONAME ; class CVPbkSimContactView * CVPbkSimContactView::NewLC(class RVPbkSimFieldTypeArray const &, enum TVPbkSimViewConstructionPolicy, class MVPbkSimCntStore &, class TDesC16 const &, class CVPbkSimFieldTypeFilter *)

