EXPORTS
	??0TVPbkContactStoreUriPtr@@QAE@ABVTDesC16@@@Z @ 1 NONAME ; TVPbkContactStoreUriPtr::TVPbkContactStoreUriPtr(class TDesC16 const &)
	??0TVPbkContactStoreUriPtr@@QAE@XZ @ 2 NONAME ; TVPbkContactStoreUriPtr::TVPbkContactStoreUriPtr(void)
	??0TVPbkFieldTypeMapping@@QAE@AAVTResourceReader@@@Z @ 3 NONAME ; TVPbkFieldTypeMapping::TVPbkFieldTypeMapping(class TResourceReader &)
	??0TVPbkFieldTypeMapping@@QAE@XZ @ 4 NONAME ; TVPbkFieldTypeMapping::TVPbkFieldTypeMapping(void)
	??0TVPbkFieldVersitProperty@@QAE@AAVTResourceReader@@@Z @ 5 NONAME ; TVPbkFieldVersitProperty::TVPbkFieldVersitProperty(class TResourceReader &)
	??0TVPbkFieldVersitProperty@@QAE@XZ @ 6 NONAME ; TVPbkFieldVersitProperty::TVPbkFieldVersitProperty(void)
	??ACVPbkContactStoreUriArray@@QBE?AVTVPbkContactStoreUriPtr@@H@Z @ 7 NONAME ; class TVPbkContactStoreUriPtr CVPbkContactStoreUriArray::operator[](int) const
	?AddSubOperationL@CVPbkMultiContactOperationBase@@QAEXPAVMVPbkContactOperation@@@Z @ 8 NONAME ; void CVPbkMultiContactOperationBase::AddSubOperationL(class MVPbkContactOperation *)
	?AddSubViewL@CVPbkContactViewDefinition@@QAEXPAV1@@Z @ 9 NONAME ; void CVPbkContactViewDefinition::AddSubViewL(class CVPbkContactViewDefinition *)
	?AppendAllL@CVPbkContactStoreUriArray@@QAEXABV1@@Z @ 10 NONAME ; void CVPbkContactStoreUriArray::AppendAllL(class CVPbkContactStoreUriArray const &)
	?AppendL@CVPbkContactFieldCollection@@QAEXPAVMVPbkStoreContactField@@@Z @ 11 NONAME ; void CVPbkContactFieldCollection::AppendL(class MVPbkStoreContactField *)
	?AppendL@CVPbkContactLinkArray@@QAEXPAVMVPbkContactLink@@@Z @ 12 NONAME ; void CVPbkContactLinkArray::AppendL(class MVPbkContactLink *)
	?AppendL@CVPbkContactStoreUriArray@@QAEXABVTVPbkContactStoreUriPtr@@@Z @ 13 NONAME ; void CVPbkContactStoreUriArray::AppendL(class TVPbkContactStoreUriPtr const &)
	?AppendL@CVPbkFieldTypeRefsList@@QAEXABVMVPbkFieldType@@@Z @ 14 NONAME ; void CVPbkFieldTypeRefsList::AppendL(class MVPbkFieldType const &)
	?Cast@MVPbkContactFieldBinaryData@@SAAAV1@AAVMVPbkContactFieldData@@@Z @ 15 NONAME ; class MVPbkContactFieldBinaryData & MVPbkContactFieldBinaryData::Cast(class MVPbkContactFieldData &)
	?Cast@MVPbkContactFieldBinaryData@@SAABV1@ABVMVPbkContactFieldData@@@Z @ 16 NONAME ; class MVPbkContactFieldBinaryData const & MVPbkContactFieldBinaryData::Cast(class MVPbkContactFieldData const &)
	?Cast@MVPbkContactFieldDateTimeData@@SAAAV1@AAVMVPbkContactFieldData@@@Z @ 17 NONAME ; class MVPbkContactFieldDateTimeData & MVPbkContactFieldDateTimeData::Cast(class MVPbkContactFieldData &)
	?Cast@MVPbkContactFieldDateTimeData@@SAABV1@ABVMVPbkContactFieldData@@@Z @ 18 NONAME ; class MVPbkContactFieldDateTimeData const & MVPbkContactFieldDateTimeData::Cast(class MVPbkContactFieldData const &)
	?Cast@MVPbkContactFieldTextData@@SAAAV1@AAVMVPbkContactFieldData@@@Z @ 19 NONAME ; class MVPbkContactFieldTextData & MVPbkContactFieldTextData::Cast(class MVPbkContactFieldData &)
	?Cast@MVPbkContactFieldTextData@@SAABV1@ABVMVPbkContactFieldData@@@Z @ 20 NONAME ; class MVPbkContactFieldTextData const & MVPbkContactFieldTextData::Cast(class MVPbkContactFieldData const &)
	?CommitContactsL@CVPbkContactManager@@QAEPAVMVPbkContactOperationBase@@ABV?$TArray@PAVMVPbkStoreContact@@@@AAVMVPbkBatchOperationObserver@@@Z @ 21 NONAME ; class MVPbkContactOperationBase * CVPbkContactManager::CommitContactsL(class TArray<class MVPbkStoreContact *> const &, class MVPbkBatchOperationObserver &)
	?Compare@TVPbkContactStoreUriPtr@@QBEHABV1@W4TVPbkContactStoreUriComponent@1@@Z @ 22 NONAME ; int TVPbkContactStoreUriPtr::Compare(class TVPbkContactStoreUriPtr const &, enum TVPbkContactStoreUriPtr::TVPbkContactStoreUriComponent) const
	?Compare@TVPbkContactStoreUriPtr@@QBEHABVTDesC16@@W4TVPbkContactStoreUriComponent@1@@Z @ 23 NONAME ; int TVPbkContactStoreUriPtr::Compare(class TDesC16 const &, enum TVPbkContactStoreUriPtr::TVPbkContactStoreUriComponent) const
	?Component@TVPbkContactStoreUriPtr@@QBE?BVTPtrC16@@W4TVPbkContactStoreUriComponent@1@@Z @ 24 NONAME ; class TPtrC16 const TVPbkContactStoreUriPtr::Component(enum TVPbkContactStoreUriPtr::TVPbkContactStoreUriComponent) const
	?CompressStoresL@CVPbkContactManager@@QAEPAVMVPbkContactOperationBase@@AAVMVPbkBatchOperationObserver@@@Z @ 25 NONAME ; class MVPbkContactOperationBase * CVPbkContactManager::CompressStoresL(class MVPbkBatchOperationObserver &)
	?ContactAttributeManagerL@CVPbkContactManager@@QAEAAVMVPbkContactAttributeManager@@XZ @ 26 NONAME ; class MVPbkContactAttributeManager & CVPbkContactManager::ContactAttributeManagerL(void)
	?ContactStoresL@CVPbkContactManager@@QAEAAVMVPbkContactStoreList@@XZ @ 27 NONAME ; class MVPbkContactStoreList & CVPbkContactManager::ContactStoresL(void)
	?Contains@TVPbkFieldTypeParameters@@QBEHW4TVPbkFieldTypeParameter@@@Z @ 28 NONAME ; int TVPbkFieldTypeParameters::Contains(enum TVPbkFieldTypeParameter) const
	?ContainsAll@TVPbkFieldTypeParameters@@QBEHABV1@@Z @ 29 NONAME ; int TVPbkFieldTypeParameters::ContainsAll(class TVPbkFieldTypeParameters const &) const
	?ContainsNone@TVPbkFieldTypeParameters@@QBEHABV1@@Z @ 30 NONAME ; int TVPbkFieldTypeParameters::ContainsNone(class TVPbkFieldTypeParameters const &) const
	?CopyContactsL@CVPbkContactManager@@QAEPAVMVPbkContactOperationBase@@ABVMVPbkContactLinkArray@@PAVMVPbkContactStore@@AAVMVPbkBatchOperationObserver@@@Z @ 31 NONAME ; class MVPbkContactOperationBase * CVPbkContactManager::CopyContactsL(class MVPbkContactLinkArray const &, class MVPbkContactStore *, class MVPbkBatchOperationObserver &)
	?Count@CVPbkContactStoreUriArray@@QBEHXZ @ 32 NONAME ; int CVPbkContactStoreUriArray::Count(void) const
	?CreateContactViewLC@CVPbkContactManager@@QBEPAVMVPbkContactViewBase@@AAVMVPbkContactViewObserver@@ABVCVPbkContactViewDefinition@@ABVMVPbkFieldTypeList@@@Z @ 33 NONAME ; class MVPbkContactViewBase * CVPbkContactManager::CreateContactViewLC(class MVPbkContactViewObserver &, class CVPbkContactViewDefinition const &, class MVPbkFieldTypeList const &) const
	?CreateLinksLC@CVPbkContactManager@@QBEPAVMVPbkContactLinkArray@@AAVRReadStream@@@Z @ 34 NONAME ; class MVPbkContactLinkArray * CVPbkContactManager::CreateLinksLC(class RReadStream &) const
	?CreateLinksLC@CVPbkContactManager@@QBEPAVMVPbkContactLinkArray@@ABVTDesC8@@@Z @ 35 NONAME ; class MVPbkContactLinkArray * CVPbkContactManager::CreateLinksLC(class TDesC8 const &) const
	?DefaultCntDbUri@VPbkContactStoreUris@@YAABVTDesC16@@XZ @ 36 NONAME ; class TDesC16 const & VPbkContactStoreUris::DefaultCntDbUri(void)
	?DefaultType@CVPbkDefaultAttribute@@QBE?AW4TVPbkDefaultType@@XZ @ 37 NONAME ; enum TVPbkDefaultType CVPbkDefaultAttribute::DefaultType(void) const
	?Delete@CVPbkContactLinkArray@@QAEXH@Z @ 38 NONAME ; void CVPbkContactLinkArray::Delete(int)
	?DeleteContactsL@CVPbkContactManager@@QAEPAVMVPbkContactOperationBase@@ABVMVPbkContactLinkArray@@AAVMVPbkBatchOperationObserver@@@Z @ 39 NONAME ; class MVPbkContactOperationBase * CVPbkContactManager::DeleteContactsL(class MVPbkContactLinkArray const &, class MVPbkBatchOperationObserver &)
	?DoAdd@TVPbkFieldTypeParameters@@AAEXW4TVPbkFieldTypeParameter@@@Z @ 40 NONAME ; void TVPbkFieldTypeParameters::DoAdd(enum TVPbkFieldTypeParameter)
	?DoAddAll@TVPbkFieldTypeParameters@@AAEXABV1@@Z @ 41 NONAME ; void TVPbkFieldTypeParameters::DoAddAll(class TVPbkFieldTypeParameters const &)
	?DoRemove@TVPbkFieldTypeParameters@@AAEXW4TVPbkFieldTypeParameter@@@Z @ 42 NONAME ; void TVPbkFieldTypeParameters::DoRemove(enum TVPbkFieldTypeParameter)
	?DoRemoveAll@TVPbkFieldTypeParameters@@AAEXABV1@@Z @ 43 NONAME ; void TVPbkFieldTypeParameters::DoRemoveAll(class TVPbkFieldTypeParameters const &)
	?ExternalizeL@TVPbkContactStoreUriPtr@@UBEXAAVRWriteStream@@@Z @ 44 NONAME ; void TVPbkContactStoreUriPtr::ExternalizeL(class RWriteStream &) const
	?ExternalizeLC@RVPbkContactFieldDefaultPriorities@@QBEPAVHBufC8@@XZ @ 45 NONAME ; class HBufC8 * RVPbkContactFieldDefaultPriorities::ExternalizeLC(void) const
	?ExternalizedSize@TVPbkContactStoreUriPtr@@UBEHXZ @ 46 NONAME ; int TVPbkContactStoreUriPtr::ExternalizedSize(void) const
	?FieldTypes@CVPbkContactManager@@QBEABVMVPbkFieldTypeList@@XZ @ 47 NONAME ; class MVPbkFieldTypeList const & CVPbkContactManager::FieldTypes(void) const
	?FindField@CVPbkFieldFilter@@QBEHABVMVPbkBaseContactField@@@Z @ 48 NONAME ; int CVPbkFieldFilter::FindField(class MVPbkBaseContactField const &) const
	?FindL@CVPbkContactManager@@QAEPAVMVPbkContactOperationBase@@ABVTDesC16@@ABVMVPbkFieldTypeList@@AAVMVPbkContactFindObserver@@@Z @ 49 NONAME ; class MVPbkContactOperationBase * CVPbkContactManager::FindL(class TDesC16 const &, class MVPbkFieldTypeList const &, class MVPbkContactFindObserver &)
	?FindMatch@TVPbkFieldTypeMapping@@QBEPBVMVPbkFieldType@@ABVMVPbkFieldTypeList@@@Z @ 50 NONAME ; class MVPbkFieldType const * TVPbkFieldTypeMapping::FindMatch(class MVPbkFieldTypeList const &) const
	?FlagIsOn@CVPbkContactViewDefinition@@QBEHW4TVPbkContactViewFlag@@@Z @ 51 NONAME ; int CVPbkContactViewDefinition::FlagIsOn(enum TVPbkContactViewFlag) const
	?FsSession@CVPbkContactManager@@QAEAAVRFs@@XZ @ 52 NONAME ; class RFs & CVPbkContactManager::FsSession(void)
	?GetPolicyL@CVPbkContactCopyPolicyManager@@QAEPAVMVPbkContactCopyPolicy@@AAVCVPbkContactManager@@ABVTVPbkContactStoreUriPtr@@@Z @ 53 NONAME ; class MVPbkContactCopyPolicy * CVPbkContactCopyPolicyManager::GetPolicyL(class CVPbkContactManager &, class TVPbkContactStoreUriPtr const &)
	?Index@CVPbkSpeedDialAttribute@@QBEHXZ @ 54 NONAME ; int CVPbkSpeedDialAttribute::Index(void) const
	?InsertL@CVPbkContactLinkArray@@QAEXPAVMVPbkContactLink@@H@Z @ 55 NONAME ; void CVPbkContactLinkArray::InsertL(class MVPbkContactLink *, int)
	?InternalizeL@RVPbkContactFieldDefaultPriorities@@QAEXABVTDesC8@@@Z @ 56 NONAME ; void RVPbkContactFieldDefaultPriorities::InternalizeL(class TDesC8 const &)
	?IsFieldTypeIncludedInContactL@VPbkUtils@@YAHABVMVPbkFieldTypeList@@ABVMVPbkBaseContact@@AAVTResourceReader@@@Z @ 57 NONAME ; int VPbkUtils::IsFieldTypeIncludedInContactL(class MVPbkFieldTypeList const &, class MVPbkBaseContact const &, class TResourceReader &)
	?IsFieldTypeIncludedL@VPbkUtils@@YAHABVMVPbkFieldTypeList@@ABVMVPbkBaseContactField@@AAVTResourceReader@@@Z @ 58 NONAME ; int VPbkUtils::IsFieldTypeIncludedL(class MVPbkFieldTypeList const &, class MVPbkBaseContactField const &, class TResourceReader &)
	?IsIncluded@CVPbkContactStoreUriArray@@QBEHABVTVPbkContactStoreUriPtr@@@Z @ 59 NONAME ; int CVPbkContactStoreUriArray::IsIncluded(class TVPbkContactStoreUriPtr const &) const
	?Length@TVPbkContactStoreUriPtr@@QBEHXZ @ 60 NONAME ; int TVPbkContactStoreUriPtr::Length(void) const
	?LoadContactStoreL@CVPbkContactManager@@QAEXABVTVPbkContactStoreUriPtr@@@Z @ 61 NONAME ; void CVPbkContactManager::LoadContactStoreL(class TVPbkContactStoreUriPtr const &)
	?LocallyVariatedFeatureEnabled@CVPbkLocalVariationManager@@QAEHW4TVPbkLocalVariantFlags@@@Z @ 62 NONAME ; int CVPbkLocalVariationManager::LocallyVariatedFeatureEnabled(enum TVPbkLocalVariantFlags)
	?MatchFieldType@VPbkUtils@@YAPBVMVPbkFieldType@@ABVMVPbkFieldTypeList@@ABVMVPbkBaseContactField@@@Z @ 63 NONAME ; class MVPbkFieldType const * VPbkUtils::MatchFieldType(class MVPbkFieldTypeList const &, class MVPbkBaseContactField const &)
	?MatchL@CVPbkPhoneNumberMatchStrategy@@QAEXABVTDesC16@@@Z @ 64 NONAME ; void CVPbkPhoneNumberMatchStrategy::MatchL(class TDesC16 const &)
	?MatchPhoneNumberL@CVPbkContactManager@@QAEPAVMVPbkContactOperationBase@@ABVTDesC16@@HAAVMVPbkContactFindObserver@@@Z @ 65 NONAME ; class MVPbkContactOperationBase * CVPbkContactManager::MatchPhoneNumberL(class TDesC16 const &, int, class MVPbkContactFindObserver &)
	?Matches@TVPbkFieldVersitProperty@@QBEHABV1@@Z @ 66 NONAME ; int TVPbkFieldVersitProperty::Matches(class TVPbkFieldVersitProperty const &) const
	?Name@CVPbkContactViewDefinition@@QBEABVTDesC16@@XZ @ 67 NONAME ; class TDesC16 const & CVPbkContactViewDefinition::Name(void) const
	?NewL@CVPbkContactCopyPolicyManager@@SAPAV1@XZ @ 68 NONAME ; class CVPbkContactCopyPolicyManager * CVPbkContactCopyPolicyManager::NewL(void)
	?NewL@CVPbkContactLinkArray@@SAPAV1@XZ @ 69 NONAME ; class CVPbkContactLinkArray * CVPbkContactLinkArray::NewL(void)
	?NewL@CVPbkContactManager@@SAPAV1@ABVCVPbkContactStoreUriArray@@PAVRFs@@@Z @ 70 NONAME ; class CVPbkContactManager * CVPbkContactManager::NewL(class CVPbkContactStoreUriArray const &, class RFs *)
	?NewL@CVPbkContactStoreProperties@@SAPAV1@XZ @ 71 NONAME ; class CVPbkContactStoreProperties * CVPbkContactStoreProperties::NewL(void)
	?NewL@CVPbkContactStoreUri@@SAPAV1@ABVTVPbkContactStoreUriPtr@@@Z @ 72 NONAME ; class CVPbkContactStoreUri * CVPbkContactStoreUri::NewL(class TVPbkContactStoreUriPtr const &)
	?NewL@CVPbkContactStoreUriArray@@SAPAV1@XZ @ 73 NONAME ; class CVPbkContactStoreUriArray * CVPbkContactStoreUriArray::NewL(void)
	?NewL@CVPbkContactViewDefinition@@SAPAV1@AAVTResourceReader@@@Z @ 74 NONAME ; class CVPbkContactViewDefinition * CVPbkContactViewDefinition::NewL(class TResourceReader &)
	?NewL@CVPbkContactViewDefinition@@SAPAV1@ABV1@@Z @ 75 NONAME ; class CVPbkContactViewDefinition * CVPbkContactViewDefinition::NewL(class CVPbkContactViewDefinition const &)
	?NewL@CVPbkContactViewDefinition@@SAPAV1@XZ @ 76 NONAME ; class CVPbkContactViewDefinition * CVPbkContactViewDefinition::NewL(void)
	?NewL@CVPbkDefaultAttribute@@SAPAV1@W4TVPbkDefaultType@@@Z @ 77 NONAME ; class CVPbkDefaultAttribute * CVPbkDefaultAttribute::NewL(enum TVPbkDefaultType)
	?NewL@CVPbkDefaultAttribute@@SAPAV1@XZ @ 78 NONAME ; class CVPbkDefaultAttribute * CVPbkDefaultAttribute::NewL(void)
	?NewL@CVPbkFieldFilter@@SAPAV1@ABVTConfig@1@@Z @ 79 NONAME ; class CVPbkFieldFilter * CVPbkFieldFilter::NewL(class CVPbkFieldFilter::TConfig const &)
	?NewL@CVPbkFieldTypeRefsList@@SAPAV1@XZ @ 80 NONAME ; class CVPbkFieldTypeRefsList * CVPbkFieldTypeRefsList::NewL(void)
	?NewL@CVPbkFieldTypeSelector@@SAPAV1@AAVTResourceReader@@ABVMVPbkFieldTypeList@@@Z @ 81 NONAME ; class CVPbkFieldTypeSelector * CVPbkFieldTypeSelector::NewL(class TResourceReader &, class MVPbkFieldTypeList const &)
	?NewL@CVPbkFilteredContactView@@SAPAV1@AAVMVPbkContactViewBase@@AAVMVPbkContactViewObserver@@AAVMVPbkContactSelector@@@Z @ 82 NONAME ; class CVPbkFilteredContactView * CVPbkFilteredContactView::NewL(class MVPbkContactViewBase &, class MVPbkContactViewObserver &, class MVPbkContactSelector &)
	?NewL@CVPbkLocalVariationManager@@SAPAV1@XZ @ 83 NONAME ; class CVPbkLocalVariationManager * CVPbkLocalVariationManager::NewL(void)
	?NewL@CVPbkPhoneNumberMatchStrategy@@SAPAV1@ABVTConfig@1@AAVCVPbkContactManager@@AAVMVPbkContactFindObserver@@@Z @ 84 NONAME ; class CVPbkPhoneNumberMatchStrategy * CVPbkPhoneNumberMatchStrategy::NewL(class CVPbkPhoneNumberMatchStrategy::TConfig const &, class CVPbkContactManager &, class MVPbkContactFindObserver &)
	?NewL@CVPbkSortOrder@@SAPAV1@AAVTResourceReader@@ABVMVPbkFieldTypeList@@@Z @ 85 NONAME ; class CVPbkSortOrder * CVPbkSortOrder::NewL(class TResourceReader &, class MVPbkFieldTypeList const &)
	?NewL@CVPbkSortOrder@@SAPAV1@ABVMVPbkFieldTypeList@@@Z @ 86 NONAME ; class CVPbkSortOrder * CVPbkSortOrder::NewL(class MVPbkFieldTypeList const &)
	?NewL@CVPbkSpeedDialAttribute@@SAPAV1@H@Z @ 87 NONAME ; class CVPbkSpeedDialAttribute * CVPbkSpeedDialAttribute::NewL(int)
	?NewL@CVPbkSpeedDialAttribute@@SAPAV1@XZ @ 88 NONAME ; class CVPbkSpeedDialAttribute * CVPbkSpeedDialAttribute::NewL(void)
	?NewL@CVPbkVoiceTagAttribute@@SAPAV1@XZ @ 89 NONAME ; class CVPbkVoiceTagAttribute * CVPbkVoiceTagAttribute::NewL(void)
	?NewLC@CVPbkBatchOperation@@SAPAV1@AAVMVPbkBatchOperationObserver@@@Z @ 90 NONAME ; class CVPbkBatchOperation * CVPbkBatchOperation::NewLC(class MVPbkBatchOperationObserver &)
	?NewLC@CVPbkContactFieldCollection@@SAPAV1@AAVMVPbkStoreContact@@@Z @ 91 NONAME ; class CVPbkContactFieldCollection * CVPbkContactFieldCollection::NewLC(class MVPbkStoreContact &)
	?NewLC@CVPbkContactFieldTypeIterator@@SAPAV1@ABVMVPbkFieldType@@AAVMVPbkStoreContactFieldCollection@@@Z @ 92 NONAME ; class CVPbkContactFieldTypeIterator * CVPbkContactFieldTypeIterator::NewLC(class MVPbkFieldType const &, class MVPbkStoreContactFieldCollection &)
	?NewLC@CVPbkContactFindOperation@@SAPAV1@AAVMVPbkContactFindObserver@@@Z @ 93 NONAME ; class CVPbkContactFindOperation * CVPbkContactFindOperation::NewLC(class MVPbkContactFindObserver &)
	?NewLC@CVPbkContactLinkArray@@SAPAV1@AAVRReadStream@@ABVMVPbkContactStoreList@@@Z @ 94 NONAME ; class CVPbkContactLinkArray * CVPbkContactLinkArray::NewLC(class RReadStream &, class MVPbkContactStoreList const &)
	?NewLC@CVPbkContactLinkArray@@SAPAV1@ABVTDesC8@@ABVMVPbkContactStoreList@@@Z @ 95 NONAME ; class CVPbkContactLinkArray * CVPbkContactLinkArray::NewLC(class TDesC8 const &, class MVPbkContactStoreList const &)
	?NewLC@CVPbkContactLinkArray@@SAPAV1@XZ @ 96 NONAME ; class CVPbkContactLinkArray * CVPbkContactLinkArray::NewLC(void)
	?NewLC@CVPbkContactStoreUriArray@@SAPAV1@ABVTDesC8@@@Z @ 97 NONAME ; class CVPbkContactStoreUriArray * CVPbkContactStoreUriArray::NewLC(class TDesC8 const &)
	?NewLC@CVPbkContactStoreUriArray@@SAPAV1@XZ @ 98 NONAME ; class CVPbkContactStoreUriArray * CVPbkContactStoreUriArray::NewLC(void)
	?NewLC@CVPbkEmptyBatchOperation@@SAPAV1@AAVMVPbkBatchOperationObserver@@@Z @ 99 NONAME ; class CVPbkEmptyBatchOperation * CVPbkEmptyBatchOperation::NewLC(class MVPbkBatchOperationObserver &)
	?PackLC@CVPbkContactStoreUriArray@@QBEPAVHBufC8@@XZ @ 100 NONAME ; class HBufC8 * CVPbkContactStoreUriArray::PackLC(void) const
	?PackedBufferSize@CVPbkContactLinkArray@@QBEHXZ @ 101 NONAME ; int CVPbkContactLinkArray::PackedBufferSize(void) const
	?Panic@VPbkError@@YAXW4TPanicCode@1@@Z @ 102 NONAME ; void VPbkError::Panic(enum VPbkError::TPanicCode)
	?ReadFromResource@TVPbkFieldTypeParameters@@QAEXAAVTResourceReader@@@Z @ 103 NONAME ; void TVPbkFieldTypeParameters::ReadFromResource(class TResourceReader &)
	?ReadFromResource@TVPbkFieldVersitProperty@@QAEXAAVTResourceReader@@@Z @ 104 NONAME ; void TVPbkFieldVersitProperty::ReadFromResource(class TResourceReader &)
	?Remove@CVPbkContactLinkArray@@QAEXH@Z @ 105 NONAME ; void CVPbkContactLinkArray::Remove(int)
	?Remove@CVPbkContactStoreUriArray@@QAEXABVTVPbkContactStoreUriPtr@@@Z @ 106 NONAME ; void CVPbkContactStoreUriArray::Remove(class TVPbkContactStoreUriPtr const &)
	?Remove@CVPbkFieldTypeRefsList@@QAEXABVMVPbkFieldType@@@Z @ 107 NONAME ; void CVPbkFieldTypeRefsList::Remove(class MVPbkFieldType const &)
	?Reset@CVPbkContactLinkArray@@QAEXXZ @ 108 NONAME ; void CVPbkContactLinkArray::Reset(void)
	?Reset@TVPbkFieldTypeParameters@@QAEXXZ @ 109 NONAME ; void TVPbkFieldTypeParameters::Reset(void)
	?ResetAndDestroy@CVPbkContactLinkArray@@QAEXXZ @ 110 NONAME ; void CVPbkContactLinkArray::ResetAndDestroy(void)
	?ResetL@CVPbkFieldFilter@@QAEXABVTConfig@1@@Z @ 111 NONAME ; void CVPbkFieldFilter::ResetL(class CVPbkFieldFilter::TConfig const &)
	?RetrieveContactL@CVPbkContactManager@@QBEPAVMVPbkContactOperationBase@@ABVMVPbkContactLink@@AAVMVPbkSingleContactOperationObserver@@@Z @ 112 NONAME ; class MVPbkContactOperationBase * CVPbkContactManager::RetrieveContactL(class MVPbkContactLink const &, class MVPbkSingleContactOperationObserver &) const
	?Set@CVPbkSortOrder@@QAEXABVMVPbkFieldTypeList@@@Z @ 113 NONAME ; void CVPbkSortOrder::Set(class MVPbkFieldTypeList const &)
	?Set@TVPbkContactStoreUriPtr@@QAEXABV1@@Z @ 114 NONAME ; void TVPbkContactStoreUriPtr::Set(class TVPbkContactStoreUriPtr const &)
	?SetBooleanProperty@CVPbkContactStoreProperties@@QAEXW4TPropertyFlag@1@H@Z @ 115 NONAME ; void CVPbkContactStoreProperties::SetBooleanProperty(enum CVPbkContactStoreProperties::TPropertyFlag, int)
	?SetDefaultType@CVPbkDefaultAttribute@@QAEXW4TVPbkDefaultType@@@Z @ 116 NONAME ; void CVPbkDefaultAttribute::SetDefaultType(enum TVPbkDefaultType)
	?SetFlag@CVPbkContactViewDefinition@@QAEXW4TVPbkContactViewFlag@@H@Z @ 117 NONAME ; void CVPbkContactViewDefinition::SetFlag(enum TVPbkContactViewFlag, int)
	?SetIndex@CVPbkSpeedDialAttribute@@QAEXH@Z @ 118 NONAME ; void CVPbkSpeedDialAttribute::SetIndex(int)
	?SetName@CVPbkContactStoreProperties@@QAEXABVTVPbkContactStoreUriPtr@@@Z @ 119 NONAME ; void CVPbkContactStoreProperties::SetName(class TVPbkContactStoreUriPtr const &)
	?SetNameL@CVPbkContactViewDefinition@@QAEXABVTDesC16@@@Z @ 120 NONAME ; void CVPbkContactViewDefinition::SetNameL(class TDesC16 const &)
	?SetNonVersitType@TVPbkFieldTypeMapping@@QAEXW4TVPbkNonVersitFieldType@@@Z @ 121 NONAME ; void TVPbkFieldTypeMapping::SetNonVersitType(enum TVPbkNonVersitFieldType)
	?SetReserveL@CVPbkSortOrder@@QAEXH@Z @ 122 NONAME ; void CVPbkSortOrder::SetReserveL(int)
	?SetSortPolicy@CVPbkContactViewDefinition@@QAEXW4TVPbkContactViewSortPolicy@@@Z @ 123 NONAME ; void CVPbkContactViewDefinition::SetSortPolicy(enum TVPbkContactViewSortPolicy)
	?SetSupportedFields@CVPbkContactStoreProperties@@QAEXABVMVPbkFieldTypeList@@@Z @ 124 NONAME ; void CVPbkContactStoreProperties::SetSupportedFields(class MVPbkFieldTypeList const &)
	?SetType@CVPbkContactViewDefinition@@QAEXW4TVPbkContactViewType@@@Z @ 125 NONAME ; void CVPbkContactViewDefinition::SetType(enum TVPbkContactViewType)
	?SetUriL@CVPbkContactViewDefinition@@QAEXABVTDesC16@@@Z @ 126 NONAME ; void CVPbkContactViewDefinition::SetUriL(class TDesC16 const &)
	?SetVersitProperty@TVPbkFieldTypeMapping@@QAEXVTVPbkFieldVersitProperty@@@Z @ 127 NONAME ; void TVPbkFieldTypeMapping::SetVersitProperty(class TVPbkFieldVersitProperty)
	?SimGlobalAdnUri@VPbkContactStoreUris@@YAABVTDesC16@@XZ @ 128 NONAME ; class TDesC16 const & VPbkContactStoreUris::SimGlobalAdnUri(void)
	?SimGlobalFdnUri@VPbkContactStoreUris@@YAABVTDesC16@@XZ @ 129 NONAME ; class TDesC16 const & VPbkContactStoreUris::SimGlobalFdnUri(void)
	?SimGlobalOwnNumberUri@VPbkContactStoreUris@@YAABVTDesC16@@XZ @ 130 NONAME ; class TDesC16 const & VPbkContactStoreUris::SimGlobalOwnNumberUri(void)
	?SimGlobalSdnUri@VPbkContactStoreUris@@YAABVTDesC16@@XZ @ 131 NONAME ; class TDesC16 const & VPbkContactStoreUris::SimGlobalSdnUri(void)
	?SortPolicy@CVPbkContactViewDefinition@@QBE?AW4TVPbkContactViewSortPolicy@@XZ @ 132 NONAME ; enum TVPbkContactViewSortPolicy CVPbkContactViewDefinition::SortPolicy(void) const
	?SubOperationCount@CVPbkMultiContactOperationBase@@QBEHXZ @ 133 NONAME ; int CVPbkMultiContactOperationBase::SubOperationCount(void) const
	?SubViewAt@CVPbkContactViewDefinition@@QAEAAV1@H@Z @ 134 NONAME ; class CVPbkContactViewDefinition & CVPbkContactViewDefinition::SubViewAt(int)
	?SubViewAt@CVPbkContactViewDefinition@@QBEABV1@H@Z @ 135 NONAME ; class CVPbkContactViewDefinition const & CVPbkContactViewDefinition::SubViewAt(int) const
	?SubViewCount@CVPbkContactViewDefinition@@QBEHXZ @ 136 NONAME ; int CVPbkContactViewDefinition::SubViewCount(void) const
	?Type@CVPbkContactViewDefinition@@QBE?AW4TVPbkContactViewType@@XZ @ 137 NONAME ; enum TVPbkContactViewType CVPbkContactViewDefinition::Type(void) const
	?Uri@CVPbkContactStoreUri@@QBE?AVTVPbkContactStoreUriPtr@@XZ @ 138 NONAME ; class TVPbkContactStoreUriPtr CVPbkContactStoreUri::Uri(void) const
	?Uri@CVPbkContactViewDefinition@@QBEABVTDesC16@@XZ @ 139 NONAME ; class TDesC16 const & CVPbkContactViewDefinition::Uri(void) const
	?UriDes@TVPbkContactStoreUriPtr@@QBEABVTDesC16@@XZ @ 140 NONAME ; class TDesC16 const & TVPbkContactStoreUriPtr::UriDes(void) const
	?VerifySyncronizationFieldL@VPbkUtils@@YAHAAVRFs@@ABVMVPbkFieldTypeList@@AAVMVPbkStoreContact@@@Z @ 141 NONAME ; int VPbkUtils::VerifySyncronizationFieldL(class RFs &, class MVPbkFieldTypeList const &, class MVPbkStoreContact &)
	?NewLC@CVPbkFieldTypeIterator@@SAPAV1@ABVCVPbkFieldTypeSelector@@ABVMVPbkFieldTypeList@@@Z @ 142 NONAME ; class CVPbkFieldTypeIterator * CVPbkFieldTypeIterator::NewLC(class CVPbkFieldTypeSelector const &, class MVPbkFieldTypeList const &)
	?FieldTypeFilter@CVPbkContactViewDefinition@@QBEPAVCVPbkFieldTypeSelector@@XZ @ 143 NONAME ; class CVPbkFieldTypeSelector * CVPbkContactViewDefinition::FieldTypeFilter(void) const
	?NewL@CVPbkFieldTypeSelector@@SAPAV1@ABVMVPbkFieldTypeList@@@Z @ 144 NONAME ; class CVPbkFieldTypeSelector * CVPbkFieldTypeSelector::NewL(class MVPbkFieldTypeList const &)
	?SetFieldTypeFilterL@CVPbkContactViewDefinition@@QAEXPAVCVPbkFieldTypeSelector@@@Z @ 145 NONAME ; void CVPbkContactViewDefinition::SetFieldTypeFilterL(class CVPbkFieldTypeSelector *)
	?NewLC@CVPbkBaseContactFieldTypeIterator@@SAPAV1@ABVMVPbkFieldType@@ABVMVPbkBaseContactFieldCollection@@@Z @ 146 NONAME ; class CVPbkBaseContactFieldTypeIterator * CVPbkBaseContactFieldTypeIterator::NewLC(class MVPbkFieldType const &, class MVPbkBaseContactFieldCollection const &)
	?ExternalizeLC@CVPbkFieldTypeSelector@@QBEPAVHBufC8@@XZ @ 147 NONAME ; class HBufC8 * CVPbkFieldTypeSelector::ExternalizeLC(void) const
	?InternalizeL@CVPbkFieldTypeSelector@@QAEXABVTDesC8@@@Z @ 148 NONAME ; void CVPbkFieldTypeSelector::InternalizeL(class TDesC8 const &)
	?BuildContactViewFilterL@VPbkContactViewFilterBuilder@@SAAAVCVPbkFieldTypeSelector@@AAV2@W4TVPbkContactViewFilter@@AAVCVPbkContactManager@@@Z @ 149 NONAME ; class CVPbkFieldTypeSelector & VPbkContactViewFilterBuilder::BuildContactViewFilterL(class CVPbkFieldTypeSelector &, enum TVPbkContactViewFilter, class CVPbkContactManager &)
	?MatchingNonVersitType@CVPbkFieldTypeSelector@@QBE?AW4TVPbkNonVersitFieldType@@ABVMVPbkFieldType@@@Z @ 150 NONAME ; enum TVPbkNonVersitFieldType CVPbkFieldTypeSelector::MatchingNonVersitType(class MVPbkFieldType const &) const
	?MatchingVersitProperty@CVPbkFieldTypeSelector@@QBEPBVTVPbkFieldVersitProperty@@ABVMVPbkFieldType@@@Z @ 151 NONAME ; class TVPbkFieldVersitProperty const * CVPbkFieldTypeSelector::MatchingVersitProperty(class MVPbkFieldType const &) const
	?NewL@CVPbkFieldTypeList@@SAPAV1@AAVRResourceFile@@AAVTResourceReader@@@Z @ 152 NONAME ; class CVPbkFieldTypeList * CVPbkFieldTypeList::NewL(class RResourceFile &, class TResourceReader &)
	?NewL@CVPbkFieldTypeSelector@@SAPAV1@ABV1@@Z @ 153 NONAME ; class CVPbkFieldTypeSelector * CVPbkFieldTypeSelector::NewL(class CVPbkFieldTypeSelector const &)
	?CopyContactsL@CVPbkContactCopier@@QAEPAVMVPbkContactOperationBase@@KABVMVPbkContactLinkArray@@PAVMVPbkContactStore@@AAVCVPbkContactLinkArray@@AAVMVPbkBatchOperationObserver@@@Z @ 154 NONAME ; class MVPbkContactOperationBase * CVPbkContactCopier::CopyContactsL(unsigned long, class MVPbkContactLinkArray const &, class MVPbkContactStore *, class CVPbkContactLinkArray &, class MVPbkBatchOperationObserver &)
	?NewL@CVPbkContactCopier@@SAPAV1@AAVCVPbkContactManager@@@Z @ 155 NONAME ; class CVPbkContactCopier * CVPbkContactCopier::NewL(class CVPbkContactManager &)
	?FindL@CVPbkContactManager@@QAEPAVMVPbkContactOperationBase@@ABVMDesC16Array@@ABVMVPbkFieldTypeList@@AAVMVPbkContactFindFromStoresObserver@@ABVTCallBack@@@Z @ 156 NONAME ; class MVPbkContactOperationBase * CVPbkContactManager::FindL(class MDesC16Array const &, class MVPbkFieldTypeList const &, class MVPbkContactFindFromStoresObserver &, class TCallBack const &)
	?NewLC@CVPbkContactFindFromStoresOperation@@SAPAV1@AAVMVPbkContactFindFromStoresObserver@@@Z @ 157 NONAME ; class CVPbkContactFindFromStoresOperation * CVPbkContactFindFromStoresOperation::NewLC(class MVPbkContactFindFromStoresObserver &)
	?Reset@CVPbkFieldTypeRefsList@@QAEXXZ @ 158 NONAME ; void CVPbkFieldTypeRefsList::Reset(void)
	?AppendL@CVPbkContactStoreList@@QAEXPAVMVPbkContactStore@@@Z @ 159 NONAME ; void CVPbkContactStoreList::AppendL(class MVPbkContactStore *)
	?NewL@CVPbkContactOperationFactory@@SAPAV1@AAVMVPbkContactStoreList@@@Z @ 160 NONAME ; class CVPbkContactOperationFactory * CVPbkContactOperationFactory::NewL(class MVPbkContactStoreList &)
	?NewL@CVPbkContactStoreList@@SAPAV1@XZ @ 161 NONAME ; class CVPbkContactStoreList * CVPbkContactStoreList::NewL(void)
	?NewLC@CVPbkBaseContactFieldTypeListIterator@@SAPAV1@ABVMVPbkFieldTypeList@@ABVMVPbkBaseContactFieldCollection@@@Z @ 162 NONAME ; class CVPbkBaseContactFieldTypeListIterator * CVPbkBaseContactFieldTypeListIterator::NewLC(class MVPbkFieldTypeList const &, class MVPbkBaseContactFieldCollection const &)
	?SetServicePropertyL@CVPbkContactStoreProperties@@QAEXVTUid@@H@Z @ 163 NONAME ; void CVPbkContactStoreProperties::SetServicePropertyL(class TUid, int)
	?NewL@CVPbkFilteredContactView@@SAPAV1@AAVMVPbkContactViewBase@@AAVMVPbkContactViewObserver@@AAVMVPbkContactSelector@@ABVMVPbkFieldTypeList@@@Z @ 164 NONAME ; class CVPbkFilteredContactView * CVPbkFilteredContactView::NewL(class MVPbkContactViewBase &, class MVPbkContactViewObserver &, class MVPbkContactSelector &, class MVPbkFieldTypeList const &)
	?NewL@CVPbkContactManager@@SAPAV1@VTSecurityInfo@@ABVCVPbkContactStoreUriArray@@PAVRFs@@@Z @ 165 NONAME ; class CVPbkContactManager * CVPbkContactManager::NewL(class TSecurityInfo, class CVPbkContactStoreUriArray const &, class RFs *)
	?NewLC@CVPbkContactViewDefinition@@SAPAV1@AAVTResourceReader@@@Z @ 166 NONAME ; class CVPbkContactViewDefinition * CVPbkContactViewDefinition::NewLC(class TResourceReader &)
	?NewLC@CVPbkContactViewDefinition@@SAPAV1@ABV1@@Z @ 167 NONAME ; class CVPbkContactViewDefinition * CVPbkContactViewDefinition::NewLC(class CVPbkContactViewDefinition const &)
	?NewLC@CVPbkContactViewDefinition@@SAPAV1@XZ @ 168 NONAME ; class CVPbkContactViewDefinition * CVPbkContactViewDefinition::NewLC(void)
	?SetSharing@CVPbkContactViewDefinition@@QAEXW4TVPbkContactViewSharing@@@Z @ 169 NONAME ; void CVPbkContactViewDefinition::SetSharing(enum TVPbkContactViewSharing)
	?Sharing@CVPbkContactViewDefinition@@QBE?AW4TVPbkContactViewSharing@@XZ @ 170 NONAME ; enum TVPbkContactViewSharing CVPbkContactViewDefinition::Sharing(void) const
	?IsSame@VPbkFieldTypeList@@YAHABVMVPbkFieldTypeList@@0@Z @ 171 NONAME ; int VPbkFieldTypeList::IsSame(class MVPbkFieldTypeList const &, class MVPbkFieldTypeList const &)	
	??1CVPbkTopContactManager@@UAE@XZ @ 172 NONAME ; CVPbkTopContactManager::~CVPbkTopContactManager(void)
	?AddToTopL@CVPbkTopContactManager@@QAEPAVMVPbkContactOperationBase@@ABVMVPbkContactLink@@AAVMVPbkOperationObserver@@AAVMVPbkOperationErrorObserver@@@Z @ 173 NONAME ; class MVPbkContactOperationBase * CVPbkTopContactManager::AddToTopL(class MVPbkContactLink const &, class MVPbkOperationObserver &, class MVPbkOperationErrorObserver &)
	?AddToTopL@CVPbkTopContactManager@@QAEPAVMVPbkContactOperationBase@@ABVMVPbkContactLinkArray@@AAVMVPbkOperationObserver@@AAVMVPbkOperationErrorObserver@@@Z @ 174 NONAME ; class MVPbkContactOperationBase * CVPbkTopContactManager::AddToTopL(class MVPbkContactLinkArray const &, class MVPbkOperationObserver &, class MVPbkOperationErrorObserver &)
	?AddToTopL@CVPbkTopContactManager@@QAEPAVMVPbkContactOperationBase@@ABVTDesC8@@AAVMVPbkOperationObserver@@AAVMVPbkOperationErrorObserver@@@Z @ 175 NONAME ; class MVPbkContactOperationBase * CVPbkTopContactManager::AddToTopL(class TDesC8 const &, class MVPbkOperationObserver &, class MVPbkOperationErrorObserver &)
	?Cast@MVPbkContactFieldUriData@@SAAAV1@AAVMVPbkContactFieldData@@@Z @ 176 NONAME ; class MVPbkContactFieldUriData & MVPbkContactFieldUriData::Cast(class MVPbkContactFieldData &)
	?Cast@MVPbkContactFieldUriData@@SAABV1@ABVMVPbkContactFieldData@@@Z @ 177 NONAME ; class MVPbkContactFieldUriData const & MVPbkContactFieldUriData::Cast(class MVPbkContactFieldData const &)
	?ContactSelector@CVPbkContactViewDefinition@@QBEPAVMVPbkContactSelector@@XZ @ 178 NONAME ; class MVPbkContactSelector * CVPbkContactViewDefinition::ContactSelector(void) const
	?GetNonTopContactLinksL@CVPbkTopContactManager@@QAEPAVMVPbkContactOperationBase@@AAV?$MVPbkOperationResultObserver@PAVMVPbkContactLinkArray@@@@AAVMVPbkOperationErrorObserver@@@Z @ 179 NONAME ; class MVPbkContactOperationBase * CVPbkTopContactManager::GetNonTopContactLinksL(class MVPbkOperationResultObserver<class MVPbkContactLinkArray *> &, class MVPbkOperationErrorObserver &)
	?GetNonTopContactsViewL@CVPbkTopContactManager@@QAEPAVMVPbkContactOperationBase@@AAV?$MVPbkOperationResultObserver@PAVMVPbkContactViewBase@@@@AAVMVPbkOperationErrorObserver@@@Z @ 180 NONAME ; class MVPbkContactOperationBase * CVPbkTopContactManager::GetNonTopContactsViewL(class MVPbkOperationResultObserver<class MVPbkContactViewBase *> &, class MVPbkOperationErrorObserver &)
	?GetTopContactLinksL@CVPbkTopContactManager@@QAEPAVMVPbkContactOperationBase@@AAV?$MVPbkOperationResultObserver@PAVMVPbkContactLinkArray@@@@AAVMVPbkOperationErrorObserver@@@Z @ 181 NONAME ; class MVPbkContactOperationBase * CVPbkTopContactManager::GetTopContactLinksL(class MVPbkOperationResultObserver<class MVPbkContactLinkArray *> &, class MVPbkOperationErrorObserver &)
	?GetTopContactsViewL@CVPbkTopContactManager@@QAEPAVMVPbkContactOperationBase@@AAV?$MVPbkOperationResultObserver@PAVMVPbkContactViewBase@@@@AAVMVPbkOperationErrorObserver@@@Z @ 182 NONAME ; class MVPbkContactOperationBase * CVPbkTopContactManager::GetTopContactsViewL(class MVPbkOperationResultObserver<class MVPbkContactViewBase *> &, class MVPbkOperationErrorObserver &)
	?IsTopContact@CVPbkTopContactManager@@SAHABVMVPbkBaseContact@@@Z @ 183 NONAME ; int CVPbkTopContactManager::IsTopContact(class MVPbkBaseContact const &)
	?NewL@CVPbkTopContactManager@@SAPAV1@AAVCVPbkContactManager@@@Z @ 184 NONAME ; class CVPbkTopContactManager * CVPbkTopContactManager::NewL(class CVPbkContactManager &)
	?NewL@CVPbkTopContactManager@@SAPAV1@XZ @ 185 NONAME ; class CVPbkTopContactManager * CVPbkTopContactManager::NewL(void)
	?RemoveFromTopL@CVPbkTopContactManager@@QAEPAVMVPbkContactOperationBase@@ABVMVPbkContactLink@@AAVMVPbkOperationObserver@@AAVMVPbkOperationErrorObserver@@@Z @ 186 NONAME ; class MVPbkContactOperationBase * CVPbkTopContactManager::RemoveFromTopL(class MVPbkContactLink const &, class MVPbkOperationObserver &, class MVPbkOperationErrorObserver &)
	?RemoveFromTopL@CVPbkTopContactManager@@QAEPAVMVPbkContactOperationBase@@ABVMVPbkContactLinkArray@@AAVMVPbkOperationObserver@@AAVMVPbkOperationErrorObserver@@@Z @ 187 NONAME ; class MVPbkContactOperationBase * CVPbkTopContactManager::RemoveFromTopL(class MVPbkContactLinkArray const &, class MVPbkOperationObserver &, class MVPbkOperationErrorObserver &)
	?RemoveFromTopL@CVPbkTopContactManager@@QAEPAVMVPbkContactOperationBase@@ABVTDesC8@@AAVMVPbkOperationObserver@@AAVMVPbkOperationErrorObserver@@@Z @ 188 NONAME ; class MVPbkContactOperationBase * CVPbkTopContactManager::RemoveFromTopL(class TDesC8 const &, class MVPbkOperationObserver &, class MVPbkOperationErrorObserver &)
	?SetContactSelector@CVPbkContactViewDefinition@@QAEXPAVMVPbkContactSelector@@@Z @ 189 NONAME ; void CVPbkContactViewDefinition::SetContactSelector(class MVPbkContactSelector *)
	?SetTopOrderL@CVPbkTopContactManager@@QAEPAVMVPbkContactOperationBase@@ABVMVPbkContactLinkArray@@AAVMVPbkOperationObserver@@AAVMVPbkOperationErrorObserver@@@Z @ 190 NONAME ; class MVPbkContactOperationBase * CVPbkTopContactManager::SetTopOrderL(class MVPbkContactLinkArray const &, class MVPbkOperationObserver &, class MVPbkOperationErrorObserver &)
	?Id@CVPbkContactViewDefinition@@QBEHXZ @ 191 NONAME ; int CVPbkContactViewDefinition::Id(void) const
	?SetId@CVPbkContactViewDefinition@@QAEXH@Z @ 192 NONAME ; void CVPbkContactViewDefinition::SetId(int)
	??1CVPbkxSPContacts@@UAE@XZ @ 193 NONAME ; CVPbkxSPContacts::~CVPbkxSPContacts(void)
	?GetxSPContactLinksL@CVPbkxSPContacts@@QAEPAVMVPbkContactOperationBase@@ABVMVPbkStoreContact@@AAV?$MVPbkOperationResultObserver@PAVMVPbkContactLinkArray@@@@AAVMVPbkOperationErrorObserver@@@Z @ 194 NONAME ; class MVPbkContactOperationBase * CVPbkxSPContacts::GetxSPContactLinksL(class MVPbkStoreContact const &, class MVPbkOperationResultObserver<class MVPbkContactLinkArray *> &, class MVPbkOperationErrorObserver &)
	?NewL@CVPbkxSPContacts@@SAPAV1@AAVCVPbkContactManager@@@Z @ 195 NONAME ; class CVPbkxSPContacts * CVPbkxSPContacts::NewL(class CVPbkContactManager &)
	?BuildContactActionTypeSelectorL@VPbkFieldTypeSelectorFactory@@SAPAVCVPbkFieldTypeSelector@@W4TVPbkContactActionTypeSelector@1@ABVMVPbkFieldTypeList@@@Z @ 196 NONAME ; class CVPbkFieldTypeSelector * VPbkFieldTypeSelectorFactory::BuildContactActionTypeSelectorL(enum VPbkFieldTypeSelectorFactory::TVPbkContactActionTypeSelector, class MVPbkFieldTypeList const &)    	
	?BuildFieldTypeSelectorL@VPbkFieldTypeSelectorFactory@@SAPAVCVPbkFieldTypeSelector@@W4TVPbkFieldTypeSelector@1@ABVMVPbkFieldTypeList@@@Z @ 197 NONAME ; class CVPbkFieldTypeSelector * VPbkFieldTypeSelectorFactory::BuildFieldTypeSelectorL(enum VPbkFieldTypeSelectorFactory::TVPbkFieldTypeSelector, class MVPbkFieldTypeList const &)
	??0TVPbkStoreContactAnalyzer@@QAE@ABVCVPbkContactManager@@PBVMVPbkStoreContact@@@Z @ 198 NONAME ; TVPbkStoreContactAnalyzer::TVPbkStoreContactAnalyzer(class CVPbkContactManager const &, class MVPbkStoreContact const *)
	?HasFieldL@TVPbkStoreContactAnalyzer@@QBEHW4TVPbkContactActionTypeSelector@VPbkFieldTypeSelectorFactory@@HPBVMVPbkStoreContact@@@Z @ 199 NONAME ; int TVPbkStoreContactAnalyzer::HasFieldL(enum VPbkFieldTypeSelectorFactory::TVPbkContactActionTypeSelector, int, class MVPbkStoreContact const *) const
	?HasFieldL@TVPbkStoreContactAnalyzer@@QBEHW4TVPbkFieldTypeSelector@VPbkFieldTypeSelectorFactory@@HPBVMVPbkStoreContact@@@Z @ 200 NONAME ; int TVPbkStoreContactAnalyzer::HasFieldL(enum VPbkFieldTypeSelectorFactory::TVPbkFieldTypeSelector, int, class MVPbkStoreContact const *) const
	?IsFieldTypeIncludedL@TVPbkStoreContactAnalyzer@@QBEHABVMVPbkBaseContactField@@W4TVPbkContactActionTypeSelector@VPbkFieldTypeSelectorFactory@@@Z @ 201 NONAME ; int TVPbkStoreContactAnalyzer::IsFieldTypeIncludedL(class MVPbkBaseContactField const &, enum VPbkFieldTypeSelectorFactory::TVPbkContactActionTypeSelector) const
	?IsFieldTypeIncludedL@TVPbkStoreContactAnalyzer@@QBEHABVMVPbkBaseContactField@@W4TVPbkFieldTypeSelector@VPbkFieldTypeSelectorFactory@@@Z @ 202 NONAME ; int TVPbkStoreContactAnalyzer::IsFieldTypeIncludedL(class MVPbkBaseContactField const &, enum VPbkFieldTypeSelectorFactory::TVPbkFieldTypeSelector) const
	?IsFieldTypeIncludedL@TVPbkStoreContactAnalyzer@@QBEHABVMVPbkFieldType@@W4TVPbkContactActionTypeSelector@VPbkFieldTypeSelectorFactory@@@Z @ 203 NONAME ; int TVPbkStoreContactAnalyzer::IsFieldTypeIncludedL(class MVPbkFieldType const &, enum VPbkFieldTypeSelectorFactory::TVPbkContactActionTypeSelector) const
	?IsFieldTypeIncludedL@TVPbkStoreContactAnalyzer@@QBEHABVMVPbkFieldType@@W4TVPbkFieldTypeSelector@VPbkFieldTypeSelectorFactory@@@Z @ 204 NONAME ; int TVPbkStoreContactAnalyzer::IsFieldTypeIncludedL(class MVPbkFieldType const &, enum VPbkFieldTypeSelectorFactory::TVPbkFieldTypeSelector) const
	?IsFieldTypeSupportedL@TVPbkStoreContactAnalyzer@@QBEHW4TVPbkContactActionTypeSelector@VPbkFieldTypeSelectorFactory@@PBVMVPbkStoreContact@@@Z @ 205 NONAME ; int TVPbkStoreContactAnalyzer::IsFieldTypeSupportedL(enum VPbkFieldTypeSelectorFactory::TVPbkContactActionTypeSelector, class MVPbkStoreContact const *) const
	?IsFieldTypeSupportedL@TVPbkStoreContactAnalyzer@@QBEHW4TVPbkFieldTypeSelector@VPbkFieldTypeSelectorFactory@@PBVMVPbkStoreContact@@@Z @ 206 NONAME ; int TVPbkStoreContactAnalyzer::IsFieldTypeSupportedL(enum VPbkFieldTypeSelectorFactory::TVPbkFieldTypeSelector, class MVPbkStoreContact const *) const
	?CreateActionTypeSelectorIdL@VPbkFieldTypeSelectorFactory@@SA?AW4TVPbkContactActionTypeSelector@1@H@Z @ 207 NONAME ; enum VPbkFieldTypeSelectorFactory::TVPbkContactActionTypeSelector VPbkFieldTypeSelectorFactory::CreateActionTypeSelectorIdL(int)
	?AddressFieldsIncluded@CVPbkFieldTypeSelector@@QBEHABVMVPbkStoreContactFieldCollection@@@Z @ 208 NONAME ; int CVPbkFieldTypeSelector::AddressFieldsIncluded(class MVPbkStoreContactFieldCollection const &) const
	?FindL@CVPbkContactManager@@QAEPAVMVPbkContactOperationBase@@ABVMDesC16Array@@ABVMVPbkFieldTypeList@@AAVMVPbkContactFindFromStoresObserver@@ABVTCallBack@@ABVCDesC16ArrayFlat@@@Z @ 209 NONAME ; class MVPbkContactOperationBase * CVPbkContactManager::FindL(class MDesC16Array const &, class MVPbkFieldTypeList const &, class MVPbkContactFindFromStoresObserver &, class TCallBack const &, class CDesC16ArrayFlat const &)
	?NewL@CVPbkTopContactManager@@SAPAV1@AAVCVPbkContactManager@@AAVMVPbkContactViewBase@@@Z @ 210 NONAME ; class CVPbkTopContactManager * CVPbkTopContactManager::NewL(class CVPbkContactManager &, class MVPbkContactViewBase &)

