EXPORTS
	??0CPbkAppUiBase@@IAE@XZ @ 1 NONAME ; protected: __thiscall CPbkAppUiBase::CPbkAppUiBase(void)
	??0CPbkAppViewBase@@QAE@XZ @ 2 NONAME ; public: __thiscall CPbkAppViewBase::CPbkAppViewBase(void)
	??0CPbkDocumentBase@@IAE@AAVCEikApplication@@@Z @ 3 NONAME ; protected: __thiscall CPbkDocumentBase::CPbkDocumentBase(class CEikApplication &)
	??1CPbkAppUiBase@@MAE@XZ @ 4 NONAME ; protected: virtual __thiscall CPbkAppUiBase::~CPbkAppUiBase(void)
	??1CPbkAppViewBase@@UAE@XZ @ 5 NONAME ; public: virtual __thiscall CPbkAppViewBase::~CPbkAppViewBase(void)
	??1CPbkDocumentBase@@MAE@XZ @ 6 NONAME ; protected: virtual __thiscall CPbkDocumentBase::~CPbkDocumentBase(void)
	?ActiveView@CPbkAppUiBase@@QBEPAVCPbkAppViewBase@@XZ @ 7 NONAME ; public: class CPbkAppViewBase * __thiscall CPbkAppUiBase::ActiveView(void)const 
	?ApplicationUid@CPbkAppViewBase@@QBE?AVTUid@@XZ @ 8 NONAME ; public: class TUid  __thiscall CPbkAppViewBase::ApplicationUid(void)const 
	?ContextPane@CPbkAppViewBase@@QBEPAVCAknContextPane@@XZ @ 9 NONAME ; public: class CAknContextPane * __thiscall CPbkAppViewBase::ContextPane(void)const 
	?DynInitMenuPaneL@CPbkAppViewBase@@MAEXHPAVCEikMenuPane@@@Z @ 10 NONAME ; protected: virtual void __thiscall CPbkAppViewBase::DynInitMenuPaneL(int,class CEikMenuPane *)
	?Engine@CPbkAppViewBase@@QBEPAVCPbkContactEngine@@XZ @ 11 NONAME ; public: class CPbkContactEngine * __thiscall CPbkAppViewBase::Engine(void)const 
	?GetViewStateLC@CPbkAppViewBase@@UBEPAVCPbkViewState@@XZ @ 12 NONAME ; public: virtual class CPbkViewState * __thiscall CPbkAppViewBase::GetViewStateLC(void)const 
	?HandleCommandKeyL@CPbkAppViewBase@@EAEHABUTKeyEvent@@W4TEventCode@@@Z @ 13 NONAME ; private: virtual int __thiscall CPbkAppViewBase::HandleCommandKeyL(struct TKeyEvent const &,enum TEventCode)
	?HandleCommandL@CPbkAppViewBase@@MAEXH@Z @ 14 NONAME ; protected: virtual void __thiscall CPbkAppViewBase::HandleCommandL(int)
	?LaunchPopupMenuL@CPbkAppViewBase@@QAEXH@Z @ 15 NONAME ; public: void __thiscall CPbkAppViewBase::LaunchPopupMenuL(int)
	?PbkAppUi@CPbkAppViewBase@@QBEPAVCPbkAppUiBase@@XZ @ 16 NONAME ; public: class CPbkAppUiBase * __thiscall CPbkAppViewBase::PbkAppUi(void)const 
	?PbkDocument@CPbkAppUiBase@@QBEPAVCPbkDocumentBase@@XZ @ 17 NONAME ; public: class CPbkDocumentBase * __thiscall CPbkAppUiBase::PbkDocument(void)const 
	?PbkProcessKeyEventL@CPbkAppViewBase@@EAEHABUTKeyEvent@@W4TEventCode@@@Z @ 18 NONAME ; private: virtual int __thiscall CPbkAppViewBase::PbkProcessKeyEventL(struct TKeyEvent const &,enum TEventCode)
	?ProcessCommandL@CPbkAppViewBase@@EAEXH@Z @ 19 NONAME ; private: virtual void __thiscall CPbkAppViewBase::ProcessCommandL(int)
	?TitlePane@CPbkAppViewBase@@QBEPAVCAknTitlePane@@XZ @ 20 NONAME ; public: class CAknTitlePane * __thiscall CPbkAppViewBase::TitlePane(void)const 
	??0CPbkControlContainerImpl@@IAE@PAVMPbkKeyEventHandler@@@Z @ 21 NONAME ; protected: __thiscall CPbkControlContainerImpl::CPbkControlContainerImpl(class MPbkKeyEventHandler *)
	?CoeControl@CPbkControlContainerImpl@@QBEPAVCCoeControl@@XZ @ 22 NONAME ; public: class CCoeControl * __thiscall CPbkControlContainerImpl::CoeControl(void)const 
	?SetCoeControl@CPbkControlContainerImpl@@IAEXPAVCCoeControl@@ABVTRect@@H@Z @ 23 NONAME ; protected: void __thiscall CPbkControlContainerImpl::SetCoeControl(class CCoeControl *,class TRect const &,int)
	?ConstructL@CPbkControlContainerImpl@@IAEXAAVMObjectProvider@@@Z @ 24 NONAME ; protected: void __thiscall CPbkControlContainerImpl::ConstructL(class MObjectProvider &)
	?ComponentControl@CPbkControlContainerImpl@@MBEPAVCCoeControl@@H@Z @ 25 NONAME ; protected: virtual class CCoeControl * __thiscall CPbkControlContainerImpl::ComponentControl(int)const 
	?CountComponentControls@CPbkControlContainerImpl@@MBEHXZ @ 26 NONAME ; protected: virtual int __thiscall CPbkControlContainerImpl::CountComponentControls(void)const 
	??1CPbkControlContainerImpl@@MAE@XZ @ 27 NONAME ; protected: virtual __thiscall CPbkControlContainerImpl::~CPbkControlContainerImpl(void)
	?DestroyControl@CPbkControlContainerImpl@@QAEXXZ @ 28 NONAME ; public: void __thiscall CPbkControlContainerImpl::DestroyControl(void)
	?OfferKeyEventL@CPbkControlContainerImpl@@MAE?AW4TKeyResponse@@ABUTKeyEvent@@W4TEventCode@@@Z @ 29 NONAME ; protected: virtual enum TKeyResponse  __thiscall CPbkControlContainerImpl::OfferKeyEventL(struct TKeyEvent const &,enum TEventCode)
	?SizeChanged@CPbkControlContainerImpl@@MAEXXZ @ 30 NONAME ; protected: virtual void __thiscall CPbkControlContainerImpl::SizeChanged(void)
	?KeyEventHandler@CPbkControlContainerImpl@@QBEPAVMPbkKeyEventHandler@@XZ @ 31 NONAME ; public: class MPbkKeyEventHandler * __thiscall CPbkControlContainerImpl::KeyEventHandler(void)const 
	?SetKeyEventHandler@CPbkControlContainerImpl@@QAEXPAVMPbkKeyEventHandler@@@Z @ 32 NONAME ; public: void __thiscall CPbkControlContainerImpl::SetKeyEventHandler(class MPbkKeyEventHandler *)
	?GetHelpContext@CPbkControlContainerImpl@@UBEXAAVTCoeHelpContext@@@Z @ 33 NONAME ; public: virtual void __thiscall CPbkControlContainerImpl::GetHelpContext(class TCoeHelpContext &)const 
	?SetHelpContext@CPbkControlContainerImpl@@QAEXABVTCoeHelpContext@@@Z @ 34 NONAME ; public: void __thiscall CPbkControlContainerImpl::SetHelpContext(class TCoeHelpContext const &)
	?InstanceL@CPbkAppGlobalsBase@@SAPAV1@XZ @ 35 NONAME ; public: static class CPbkAppGlobalsBase * __cdecl CPbkAppGlobalsBase::InstanceL(void)
	?FocusChanged@CPbkControlContainerImpl@@MAEXW4TDrawNow@@@Z @ 36 NONAME ; protected: virtual void __thiscall CPbkControlContainerImpl::FocusChanged(enum TDrawNow)
	?AddAndExecuteCommandL@CPbkAppUiBase@@UAEXPAVMPbkCommand@@@Z @ 37 NONAME ; public: virtual void __thiscall CPbkAppUiBase::AddAndExecuteCommandL(class MPbkCommand *)
	?CreateInterestItemAndAttachL@CPbkAppViewBase@@QAEXHHHH@Z @ 38 NONAME ; public: void __thiscall CPbkAppViewBase::CreateInterestItemAndAttachL(int,int,int,int)
	??0RPbkResourceFile@@QAE@AAVCCoeEnv@@@Z @ 39 NONAME ; public: __thiscall RPbkResourceFile::RPbkResourceFile(class CCoeEnv &)
	??1RPbkResourceFile@@QAE@XZ @ 40 NONAME ; public: __thiscall RPbkResourceFile::~RPbkResourceFile(void)
	?Close@RPbkResourceFile@@QAEXXZ @ 41 NONAME ; public: void __thiscall RPbkResourceFile::Close(void)
	?OpenL@RPbkResourceFile@@QAEXABVTDesC16@@@Z @ 42 NONAME ; public: void __thiscall RPbkResourceFile::OpenL(class TDesC16 const &)
	?AddAndExecuteCommandL@CPbkCommandStore@@UAEXPAVMPbkCommand@@@Z @ 43 NONAME ; public: virtual void __thiscall CPbkCommandStore::AddAndExecuteCommandL(class MPbkCommand *)
	?NewL@CPbkCommandStore@@SAPAV1@XZ @ 44 NONAME ; public: static class CPbkCommandStore * __cdecl CPbkCommandStore::NewL(void)
	?NewL@CPbkAiwInterestArray@@SAPAV1@AAVCPbkContactEngine@@@Z @ 45 NONAME ; public: static class CPbkAiwInterestArray * __cdecl CPbkAiwInterestArray::NewL(class CPbkContactEngine &)

