EXPORTS
	??0CPbkAddressSelect@@IAE@XZ @ 1 NONAME ; protected: __thiscall CPbkAddressSelect::CPbkAddressSelect(void)
	?SetHelpContext@CPbkContactEditorDlg@@QAEXVTCoeHelpContext@@@Z @ 2 NONAME ; public: void __thiscall CPbkContactEditorDlg::SetHelpContext(class TCoeHelpContext)
	??0CPbkContactViewListControl@@QAE@XZ @ 3 NONAME ; public: __thiscall CPbkContactViewListControl::CPbkContactViewListControl(void)
	??0CPbkEmailAddressSelect@@QAE@XZ @ 4 NONAME ; public: __thiscall CPbkEmailAddressSelect::CPbkEmailAddressSelect(void)
	??0CPbkIconArray@@QAE@H@Z @ 5 NONAME ; public: __thiscall CPbkIconArray::CPbkIconArray(int)
	??0CPbkItemTypeSelectAddToExisting@@QAE@XZ @ 6 NONAME ; public: __thiscall CPbkItemTypeSelectAddToExisting::CPbkItemTypeSelectAddToExisting(void)
	??0CPbkItemTypeSelectCreateNew@@QAE@XZ @ 7 NONAME ; public: __thiscall CPbkItemTypeSelectCreateNew::CPbkItemTypeSelectCreateNew(void)
	??0CPbkMemoryEntryAddItemDlg@@QAE@XZ @ 8 NONAME ; public: __thiscall CPbkMemoryEntryAddItemDlg::CPbkMemoryEntryAddItemDlg(void)
	??0CPbkMmsAddressSelect@@QAE@XZ @ 9 NONAME ; public: __thiscall CPbkMmsAddressSelect::CPbkMmsAddressSelect(void)
	??0CPbkPhoneNumberSelect@@QAE@XZ @ 10 NONAME ; public: __thiscall CPbkPhoneNumberSelect::CPbkPhoneNumberSelect(void)
	??0CPbkSelectFieldDlg@@QAE@XZ @ 11 NONAME ; public: __thiscall CPbkSelectFieldDlg::CPbkSelectFieldDlg(void)
	??0CPbkSmsAddressSelect@@QAE@XZ @ 12 NONAME ; public: __thiscall CPbkSmsAddressSelect::CPbkSmsAddressSelect(void)
	??0RPbkViewResourceFile@@QAE@AAVCCoeEnv@@@Z @ 13 NONAME ; public: __thiscall RPbkViewResourceFile::RPbkViewResourceFile(class CCoeEnv &)
	??0TBaseParams@CPbkAddressSelect@@IAE@ABVCPbkContactItem@@PBVTPbkContactItemField@@@Z @ 14 NONAME ; protected: __thiscall CPbkAddressSelect::TBaseParams::TBaseParams(class CPbkContactItem const &,class TPbkContactItemField const *)
	??0TNoteParams@CPbkWaitNoteWrapperBase@@QAE@XZ @ 15 NONAME ; public: __thiscall CPbkWaitNoteWrapperBase::TNoteParams::TNoteParams(void)
	??0TParams@CPbkEmailAddressSelect@@QAE@ABVCPbkContactItem@@@Z @ 16 NONAME ; public: __thiscall CPbkEmailAddressSelect::TParams::TParams(class CPbkContactItem const &)
	??0TParams@CPbkGroupMembersFetchDlg@@QAE@XZ @ 17 NONAME ; public: __thiscall CPbkGroupMembersFetchDlg::TParams::TParams(void)
	??0TParams@CPbkImageDataWithInfo@@QAE@XZ @ 18 NONAME ; public: __thiscall CPbkImageDataWithInfo::TParams::TParams(void)
	??0TParams@CPbkMmsAddressSelect@@QAE@ABVCPbkContactItem@@@Z @ 19 NONAME ; public: __thiscall CPbkMmsAddressSelect::TParams::TParams(class CPbkContactItem const &)
	??0TParams@CPbkMultipleEntryFetchDlg@@QAE@XZ @ 20 NONAME ; public: __thiscall CPbkMultipleEntryFetchDlg::TParams::TParams(void)
	??0TParams@CPbkPhoneNumberSelect@@QAE@ABVCPbkContactItem@@@Z @ 21 NONAME ; public: __thiscall CPbkPhoneNumberSelect::TParams::TParams(class CPbkContactItem const &)
	??0TParams@CPbkSingleEntryFetchDlg@@QAE@XZ @ 22 NONAME ; public: __thiscall CPbkSingleEntryFetchDlg::TParams::TParams(void)
	??0TParams@CPbkSingleItemFetchDlg@@QAE@XZ @ 23 NONAME ; public: __thiscall CPbkSingleItemFetchDlg::TParams::TParams(void)
	??0TParams@CPbkSmsAddressSelect@@QAE@ABVCPbkContactItem@@@Z @ 24 NONAME ; public: __thiscall CPbkSmsAddressSelect::TParams::TParams(class CPbkContactItem const &)
	??0TPbkImageLoadParameters@@QAE@XZ @ 25 NONAME ; public: __thiscall TPbkImageLoadParameters::TPbkImageLoadParameters(void)
	??1CPbkAddressSelect@@UAE@XZ @ 26 NONAME ; public: virtual __thiscall CPbkAddressSelect::~CPbkAddressSelect(void)
	??1CPbkCompressUiImpl@@UAE@XZ @ 27 NONAME ; public: virtual __thiscall CPbkCompressUiImpl::~CPbkCompressUiImpl(void)
	?NewL@CPbkContactDetailsBaseControl@@SAPAV1@HABVCCoeControl@@PAVCPbkContactItem@@PAVCPbkContactEngine@@@Z @ 28 NONAME ; public: static class CPbkContactDetailsBaseControl * __cdecl CPbkContactDetailsBaseControl::NewL(int,class CCoeControl const &,class CPbkContactItem *,class CPbkContactEngine *)
	??1CPbkEmailAddressSelect@@UAE@XZ @ 29 NONAME ; public: virtual __thiscall CPbkEmailAddressSelect::~CPbkEmailAddressSelect(void)
	??1CPbkIconArray@@UAE@XZ @ 30 NONAME ; public: virtual __thiscall CPbkIconArray::~CPbkIconArray(void)
	??1CPbkItemTypeSelectAddToExisting@@UAE@XZ @ 31 NONAME ; public: virtual __thiscall CPbkItemTypeSelectAddToExisting::~CPbkItemTypeSelectAddToExisting(void)
	??1CPbkItemTypeSelectCreateNew@@UAE@XZ @ 32 NONAME ; public: virtual __thiscall CPbkItemTypeSelectCreateNew::~CPbkItemTypeSelectCreateNew(void)
	??1CPbkMemoryEntryAddItemDlg@@UAE@XZ @ 33 NONAME ; public: virtual __thiscall CPbkMemoryEntryAddItemDlg::~CPbkMemoryEntryAddItemDlg(void)
	??1CPbkMmsAddressSelect@@UAE@XZ @ 34 NONAME ; public: virtual __thiscall CPbkMmsAddressSelect::~CPbkMmsAddressSelect(void)
	??1CPbkPhoneNumberSelect@@UAE@XZ @ 35 NONAME ; public: virtual __thiscall CPbkPhoneNumberSelect::~CPbkPhoneNumberSelect(void)
	??1CPbkSelectFieldDlg@@UAE@XZ @ 36 NONAME ; public: virtual __thiscall CPbkSelectFieldDlg::~CPbkSelectFieldDlg(void)
	??1CPbkSmsAddressSelect@@UAE@XZ @ 37 NONAME ; public: virtual __thiscall CPbkSmsAddressSelect::~CPbkSmsAddressSelect(void)
	??8CPbkViewState@@QBEHABV0@@Z @ 38 NONAME ; public: int __thiscall CPbkViewState::operator==(class CPbkViewState const &)const 
	??BTParams@CPbkGroupMembersFetchDlg@@QAE?AVTCleanupItem@@XZ @ 39 NONAME ; public: __thiscall CPbkGroupMembersFetchDlg::TParams::operator class TCleanupItem(void)
	??BTParams@CPbkMultipleEntryFetchDlg@@QAE?AVTCleanupItem@@XZ @ 40 NONAME ; public: __thiscall CPbkMultipleEntryFetchDlg::TParams::operator class TCleanupItem(void)
	??BTParams@CPbkSingleItemFetchDlg@@QAE?AVTCleanupItem@@XZ @ 41 NONAME ; public: __thiscall CPbkSingleItemFetchDlg::TParams::operator class TCleanupItem(void)
	?AddMenuItemsL@CPbkDataSaveAppUi@@QAEXPAVCEikMenuPane@@H@Z @ 42 NONAME ; public: void __thiscall CPbkDataSaveAppUi::AddMenuItemsL(class CEikMenuPane *,int)
	?AddObserverL@CPbkContactViewListControl@@QAEXAAVMPbkContactViewListControlObserver@@@Z @ 43 NONAME ; public: void __thiscall CPbkContactViewListControl::AddObserverL(class MPbkContactViewListControlObserver &)
	?SetThumbnailAsyncL@CPbkThumbnailManager@@QAEPAVMPbkThumbnailOperation@@AAVMPbkThumbnailSetObserver@@AAVCPbkContactItem@@ABVTDesC16@@@Z @ 44 NONAME ; public: class MPbkThumbnailOperation * __thiscall CPbkThumbnailManager::SetThumbnailAsyncL(class MPbkThumbnailSetObserver &,class CPbkContactItem &,class TDesC16 const &)
	?AddressField@CPbkEmailAddressSelect@@EBEHABVTPbkContactItemField@@@Z @ 45 NONAME ; private: virtual int __thiscall CPbkEmailAddressSelect::AddressField(class TPbkContactItemField const &)const 
	?AddressField@CPbkMmsAddressSelect@@EBEHABVTPbkContactItemField@@@Z @ 46 NONAME ; private: virtual int __thiscall CPbkMmsAddressSelect::AddressField(class TPbkContactItemField const &)const 
	?AddressField@CPbkPhoneNumberSelectBase@@MBEHABVTPbkContactItemField@@@Z @ 47 NONAME ; protected: virtual int __thiscall CPbkPhoneNumberSelectBase::AddressField(class TPbkContactItemField const &)const
	?AttemptExitL@CPbkAddressSelect@@IAEXH@Z @ 48 NONAME ; protected: void __thiscall CPbkAddressSelect::AttemptExitL(int)
	?AttemptExitL@CPbkSelectFieldDlg@@QAEXH@Z @ 49 NONAME ; public: void __thiscall CPbkSelectFieldDlg::AttemptExitL(int)
	?CancelLoading@CPbkThumbnailPopup@@QAEXXZ @ 50 NONAME ; public: void __thiscall CPbkThumbnailPopup::CancelLoading(void)
	?MMCClCheckL@CPbkFFSCheck@@QAEHH@Z @ 51 NONAME ; public: int __thiscall CPbkFFSCheck::MMCClCheckL(int)
	?ClearMarks@CPbkContactViewListControl@@QAEXXZ @ 52 NONAME ; public: void __thiscall CPbkContactViewListControl::ClearMarks(void)
	?Close@RPbkViewResourceFile@@QAEXXZ @ 53 NONAME ; public: void __thiscall RPbkViewResourceFile::Close(void)
	?Flags@CPbkViewState@@QBEIXZ @ 54 NONAME ; public: unsigned int __thiscall CPbkViewState::Flags(void)const 
	?ConstructFromResourceL@CPbkIconArray@@QAEXAAVTResourceReader@@@Z @ 55 NONAME ; public: void __thiscall CPbkIconArray::ConstructFromResourceL(class TResourceReader &)
	?ConstructFromResourceL@CPbkIconArray@@QAEXH@Z @ 56 NONAME ; public: void __thiscall CPbkIconArray::ConstructFromResourceL(int)
	?ConstructL@CPbkContactViewListControl@@QAEXAAVCPbkContactEngine@@AAVCContactViewBase@@@Z @ 57 NONAME ; public: void __thiscall CPbkContactViewListControl::ConstructL(class CPbkContactEngine &,class CContactViewBase &)
	?ContactId@CPbkPhotoCardControl@@QBEJXZ @ 58 NONAME ; public: long __thiscall CPbkPhotoCardControl::ContactId(void)const 
	?ContactIdAtL@CPbkContactViewListControl@@QBEJH@Z @ 59 NONAME ; public: long __thiscall CPbkContactViewListControl::ContactIdAtL(int)const 
	?ContactItem@CPbkAddressSelect@@IBEABVCPbkContactItem@@XZ @ 60 NONAME ; protected: class CPbkContactItem const & __thiscall CPbkAddressSelect::ContactItem(void)const 
	?SetExitCallback@CPbkContactEditorDlg@@QAEXPAVMPbkEditorOkToExitCallback@@@Z @ 61 NONAME ; public: void __thiscall CPbkContactEditorDlg::SetExitCallback(class MPbkEditorOkToExitCallback *)
	?ContactItem@TBaseParams@CPbkAddressSelect@@QAEABVCPbkContactItem@@XZ @ 62 NONAME ; public: class CPbkContactItem const & __thiscall CPbkAddressSelect::TBaseParams::ContactItem(void)
	?FocusedField@TBaseParams@CPbkAddressSelect@@QBEPBVTPbkContactItemField@@XZ @ 63 NONAME ; public: class TPbkContactItemField const * __thiscall CPbkAddressSelect::TBaseParams::FocusedField(void)const 
	?CurrentFieldIndex@CPbkContactInfoControl@@QBEHXZ @ 64 NONAME ; public: int __thiscall CPbkContactInfoControl::CurrentFieldIndex(void)const 
	?CurrentItemIndex@CPbkContactViewListControl@@QBEHXZ @ 65 NONAME ; public: int __thiscall CPbkContactViewListControl::CurrentItemIndex(void)const 
	?DisplayL@CPbkWaitNoteWrapperBase@@QAEXHABUTNoteParams@1@@Z @ 66 NONAME ; public: void __thiscall CPbkWaitNoteWrapperBase::DisplayL(int,struct CPbkWaitNoteWrapperBase::TNoteParams const &)
	?DynInitMenuPaneL@CPbkDataSaveAppUi@@QAEXHPAVCEikMenuPane@@@Z @ 67 NONAME ; public: void __thiscall CPbkDataSaveAppUi::DynInitMenuPaneL(int,class CEikMenuPane *)
	?EnableCompression@CPbkCompressUiImpl@@QAEXH@Z @ 68 NONAME ; public: void __thiscall CPbkCompressUiImpl::EnableCompression(int)
	??0CPbkEmailOverSmsAddressSelect@@QAE@XZ @ 69 NONAME ; public: __thiscall CPbkEmailOverSmsAddressSelect::CPbkEmailOverSmsAddressSelect(void)
	??0TParams@CPbkEmailOverSmsAddressSelect@@QAE@ABVCPbkContactItem@@@Z @ 70 NONAME ; public: __thiscall CPbkEmailOverSmsAddressSelect::TParams::TParams(class CPbkContactItem const &)
	?Execute@CPbkWaitNoteWrapperBase@@QAEXAAVMPbkBackgroundProcess@@@Z @ 71 NONAME ; public: void __thiscall CPbkWaitNoteWrapperBase::Execute(class MPbkBackgroundProcess &)
	?ExecuteL@CPbkWaitNoteWrapperBase@@QAEXAAVMPbkBackgroundProcess@@HABUTNoteParams@1@@Z @ 72 NONAME ; public: void __thiscall CPbkWaitNoteWrapperBase::ExecuteL(class MPbkBackgroundProcess &,int,struct CPbkWaitNoteWrapperBase::TNoteParams const &)
	?ExecuteLD@CPbkAddToGroup@@QAEJAAVCPbkContactEngine@@@Z @ 73 NONAME ; public: long __thiscall CPbkAddToGroup::ExecuteLD(class CPbkContactEngine &)
	?ExecuteLD@CPbkAddressSelect@@IAEHAAVTBaseParams@1@@Z @ 74 NONAME ; protected: int __thiscall CPbkAddressSelect::ExecuteLD(class CPbkAddressSelect::TBaseParams &)
	?__PbkEngine_DummyExport1@@YAXXZ @ 75 NONAME ; void __cdecl __PbkEngine_DummyExport1(void) 
	?ExecuteLD@CPbkContactEditorDlg@@QAEJXZ @ 76 NONAME ; public: long __thiscall CPbkContactEditorDlg::ExecuteLD(void)
	?__PbkEngine_DummyExport2@@YAXXZ @ 77 NONAME ; void __cdecl __PbkEngine_DummyExport2(void)
	?ExecuteLD@CPbkEmailAddressSelect@@QAEHAAVTParams@1@@Z @ 78 NONAME ; public: int __thiscall CPbkEmailAddressSelect::ExecuteLD(class CPbkEmailAddressSelect::TParams &)
	?ExecuteLD@CPbkGroupBelongings@@QAEXAAVCPbkContactEngine@@J@Z @ 79 NONAME ; public: void __thiscall CPbkGroupBelongings::ExecuteLD(class CPbkContactEngine &,long)
	?ExecuteLD@CPbkGroupMembersFetchDlg@@QAEHXZ @ 80 NONAME ; public: int __thiscall CPbkGroupMembersFetchDlg::ExecuteLD(void)
	?ExecuteLD@CPbkItemTypeSelectAddToExisting@@UAEPAVCPbkFieldInfo@@AAV?$CArrayPtr@VCPbkFieldInfo@@@@@Z @ 81 NONAME ; public: virtual class CPbkFieldInfo * __thiscall CPbkItemTypeSelectAddToExisting::ExecuteLD(class CArrayPtr<class CPbkFieldInfo> &)
	?ExecuteLD@CPbkItemTypeSelectCreateNew@@UAEPAVCPbkFieldInfo@@AAV?$CArrayPtr@VCPbkFieldInfo@@@@@Z @ 82 NONAME ; public: virtual class CPbkFieldInfo * __thiscall CPbkItemTypeSelectCreateNew::ExecuteLD(class CArrayPtr<class CPbkFieldInfo> &)
	?ExecuteLD@CPbkMemoryEntryAddItemDlg@@QAEPAVCPbkFieldInfo@@AAV?$CArrayPtr@VCPbkFieldInfo@@@@HABVTDesC16@@@Z @ 83 NONAME ; public: class CPbkFieldInfo * __thiscall CPbkMemoryEntryAddItemDlg::ExecuteLD(class CArrayPtr<class CPbkFieldInfo> &,int,class TDesC16 const &)
	?ExecuteLD@CPbkMemoryEntryAddItemDlg@@QAEPAVCPbkFieldInfo@@AAV?$CArrayPtrFlat@VCPbkFieldInfo@@@@H@Z @ 84 NONAME ; public: class CPbkFieldInfo * __thiscall CPbkMemoryEntryAddItemDlg::ExecuteLD(class CArrayPtrFlat<class CPbkFieldInfo> &,int)
	?ExecuteLD@CPbkMemoryEntryAddItemDlg@@UAEPAVCPbkFieldInfo@@AAV?$CArrayPtr@VCPbkFieldInfo@@@@@Z @ 85 NONAME ; public: virtual class CPbkFieldInfo * __thiscall CPbkMemoryEntryAddItemDlg::ExecuteLD(class CArrayPtr<class CPbkFieldInfo> &)
	?ExecuteLD@CPbkMemoryEntryDefaultsDlg@@QAEXXZ @ 86 NONAME ; public: void __thiscall CPbkMemoryEntryDefaultsDlg::ExecuteLD(void)
	?__PbkEngine_DummyExport3@@YAXXZ @ 87 NONAME ; void __cdecl __PbkEngine_DummyExport3(void)
	?ExecuteLD@CPbkMmsAddressSelect@@QAEHAAVTParams@1@@Z @ 88 NONAME ; public: int __thiscall CPbkMmsAddressSelect::ExecuteLD(class CPbkMmsAddressSelect::TParams &)
	?ExecuteLD@CPbkMultipleEntryFetchDlg@@QAEHXZ @ 89 NONAME ; public: int __thiscall CPbkMultipleEntryFetchDlg::ExecuteLD(void)
	?__PbkEngine_DummyExport4@@YAXXZ @ 90 NONAME ; void __cdecl __PbkEngine_DummyExport4(void)
	?ExecuteLD@CPbkPhoneNumberSelect@@QAEHAAVTParams@1@@Z @ 91 NONAME ; public: int __thiscall CPbkPhoneNumberSelect::ExecuteLD(class CPbkPhoneNumberSelect::TParams &)
	?ExecuteLD@CPbkPhonebookInfoDlg@@QAEXXZ @ 92 NONAME ; public: void __thiscall CPbkPhonebookInfoDlg::ExecuteLD(void)
	?ExecuteLD@CPbkSelectFieldDlg@@QAEPAVTPbkContactItemField@@AAVCPbkFieldArray@@HABVTDesC16@@H@Z @ 93 NONAME ; public: class TPbkContactItemField * __thiscall CPbkSelectFieldDlg::ExecuteLD(class CPbkFieldArray &,int,class TDesC16 const &,int)
	?ExecuteLD@CPbkSingleEntryFetchDlg@@QAEHXZ @ 94 NONAME ; public: int __thiscall CPbkSingleEntryFetchDlg::ExecuteLD(void)
	?ExecuteLD@CPbkSingleItemFetchDlg@@QAEHXZ @ 95 NONAME ; public: int __thiscall CPbkSingleItemFetchDlg::ExecuteLD(void)
	?__PbkEngine_DummyExport5@@YAXXZ @ 96 NONAME ; void __cdecl __PbkEngine_DummyExport5(void)
	?ParentContactId@CPbkViewState@@QBEJXZ @ 97 NONAME ; public: long __thiscall CPbkViewState::ParentContactId(void)const 
	?ExternalizeL@CPbkViewState@@QBEXAAVRWriteStream@@@Z @ 98 NONAME ; public: void __thiscall CPbkViewState::ExternalizeL(class RWriteStream &)const 
	?FFSClCheckL@CPbkFFSCheck@@QAEHH@Z @ 99 NONAME ; public: int __thiscall CPbkFFSCheck::FFSClCheckL(int)
	?FFSClCheckL@CPbkFFSCheck@@QAEXABVMPbkCommandHandler@@H@Z @ 100 NONAME ; public: void __thiscall CPbkFFSCheck::FFSClCheckL(class MPbkCommandHandler const &,int)
	?FetchRingingToneL@CPbkRingingToneFetch@@QAEHAAV?$TBuf@$0BAA@@@@Z @ 101 NONAME ; public: int __thiscall CPbkRingingToneFetch::FetchRingingToneL(class TBuf<256> &)
	?FieldCount@CPbkContactInfoControl@@QBEHXZ @ 102 NONAME ; public: int __thiscall CPbkContactInfoControl::FieldCount(void)const 
	?FieldDataArray@CPbkViewState@@QBEPAVCPbkFieldDataArray@@XZ @ 103 NONAME ; public: class CPbkFieldDataArray * __thiscall CPbkViewState::FieldDataArray(void)const 
	?FieldPos@CPbkContactInfoControl@@QAEHABVTPbkContactItemField@@@Z @ 104 NONAME ; public: int __thiscall CPbkContactInfoControl::FieldPos(class TPbkContactItemField const &)
	?Find@CPbkIconInfoContainer@@QBEPBVTPbkIconInfo@@W4TPbkIconId@@@Z @ 105 NONAME ; public: class TPbkIconInfo const * __thiscall CPbkIconInfoContainer::Find(enum TPbkIconId)const 
	?FindContactIdL@CPbkContactViewListControl@@QBEHJ@Z @ 106 NONAME ; public: int __thiscall CPbkContactViewListControl::FindContactIdL(long)const 
	?FindIcon@CPbkIconArray@@QBEHW4TPbkIconId@@@Z @ 107 NONAME ; public: int __thiscall CPbkIconArray::FindIcon(enum TPbkIconId)const 
	?FindTextL@CPbkContactViewListControl@@QBEABVTDesC16@@XZ @ 108 NONAME ; public: class TDesC16 const & __thiscall CPbkContactViewListControl::FindTextL(void)const 
	?FocusedContactId@CPbkViewState@@QBEJXZ @ 109 NONAME ; public: long __thiscall CPbkViewState::FocusedContactId(void)const 
	?SetExitCommandId@CPbkContactEditorDlg@@QAEXH@Z @ 110 NONAME ; public: void __thiscall CPbkContactEditorDlg::SetExitCommandId(int)
	?FocusedFieldIndex@CPbkViewState@@QBEHXZ @ 111 NONAME ; public: int __thiscall CPbkViewState::FocusedFieldIndex(void)const 
	??1CPbkEmailOverSmsAddressSelect@@UAE@XZ @ 112 NONAME ; public: virtual __thiscall CPbkEmailOverSmsAddressSelect::~CPbkEmailOverSmsAddressSelect(void)
	?GetStateL@CPbkContactInfoControl@@QBEPAVCPbkViewState@@XZ @ 113 NONAME ; public: class CPbkViewState * __thiscall CPbkContactInfoControl::GetStateL(void)const 
	?GetStateL@CPbkContactViewListControl@@QBEPAVCPbkViewState@@H@Z @ 114 NONAME ; public: class CPbkViewState * __thiscall CPbkContactViewListControl::GetStateL(int)const 
	?GetStateLC@CPbkContactInfoControl@@QBEPAVCPbkViewState@@XZ @ 115 NONAME ; public: class CPbkViewState * __thiscall CPbkContactInfoControl::GetStateLC(void)const 
	?GetStateLC@CPbkContactViewListControl@@QBEPAVCPbkViewState@@H@Z @ 116 NONAME ; public: class CPbkViewState * __thiscall CPbkContactViewListControl::GetStateLC(int)const 
	?GetStateLC@CPbkPhotoCardControl@@QBEPAVCPbkViewState@@XZ @ 117 NONAME ; public: class CPbkViewState * __thiscall CPbkPhotoCardControl::GetStateLC(void)const 
	?GetThumbnailAsyncL@CPbkThumbnailManager@@QAEPAVMPbkThumbnailOperation@@AAVMPbkThumbnailGetObserver@@ABVCPbkContactItem@@@Z @ 118 NONAME ; public: class MPbkThumbnailOperation * __thiscall CPbkThumbnailManager::GetThumbnailAsyncL(class MPbkThumbnailGetObserver &,class CPbkContactItem const &)
	?GetThumbnailAsyncL@CPbkThumbnailManager@@QAEPAVMPbkThumbnailOperation@@AAVMPbkThumbnailGetObserver@@ABVCPbkContactItem@@AAVTPbkImageLoadParameters@@@Z @ 119 NONAME ; public: class MPbkThumbnailOperation * __thiscall CPbkThumbnailManager::GetThumbnailAsyncL(class MPbkThumbnailGetObserver &,class CPbkContactItem const &,class TPbkImageLoadParameters &)
	?GetThumbnailImageAsyncL@CPbkThumbnailManager@@QAEPAVMPbkThumbnailOperation@@AAVMPbkThumbnailGetImageObserver@@ABVCPbkContactItem@@@Z @ 120 NONAME ; public: class MPbkThumbnailOperation * __thiscall CPbkThumbnailManager::GetThumbnailImageAsyncL(class MPbkThumbnailGetImageObserver &,class CPbkContactItem const &)
	?HandleCommandL@CPbkDataSaveAppUi@@QAEHHAAV?$CArrayPtr@VCPbkFieldInfo@@@@ABVTDesC16@@PAVMPbkDataSaveCallback@@@Z @ 121 NONAME ; public: int __thiscall CPbkDataSaveAppUi::HandleCommandL(int,class CArrayPtr<class CPbkFieldInfo> &,class TDesC16 const &,class MPbkDataSaveCallback *)
	?HandleCommandL@CPbkDataSaveAppUi@@QAEHHAAV?$CArrayPtr@VCPbkFieldInfo@@@@ABVTTime@@PAVMPbkDataSaveCallback@@@Z @ 122 NONAME ; public: int __thiscall CPbkDataSaveAppUi::HandleCommandL(int,class CArrayPtr<class CPbkFieldInfo> &,class TTime const &,class MPbkDataSaveCallback *)
	?HandleMarkableListDynInitMenuPane@CPbkContactViewListControl@@QAEXHPAVCEikMenuPane@@@Z @ 123 NONAME ; public: void __thiscall CPbkContactViewListControl::HandleMarkableListDynInitMenuPane(int,class CEikMenuPane *)
	?HandleMarkableListProcessCommandL@CPbkContactViewListControl@@QAEXH@Z @ 124 NONAME ; public: void __thiscall CPbkContactViewListControl::HandleMarkableListProcessCommandL(int)
	?HandleMarkableListUpdateAfterCommandExecution@CPbkContactViewListControl@@QAEXXZ @ 125 NONAME ; public: void __thiscall CPbkContactViewListControl::HandleMarkableListUpdateAfterCommandExecution(void)
	?HasThumbnail@CPbkThumbnailManager@@QBEHABVCPbkContactItem@@@Z @ 126 NONAME ; public: int __thiscall CPbkThumbnailManager::HasThumbnail(class CPbkContactItem const &)const 
	?HideEditorExitCommand@CPbkDataSaveAppUi@@QAEXXZ @ 127 NONAME ; public: void __thiscall CPbkDataSaveAppUi::HideEditorExitCommand(void)
	?HideExitCommand@CPbkContactEditorDlg@@QAEXXZ @ 128 NONAME ; public: void __thiscall CPbkContactEditorDlg::HideExitCommand(void)
	?AddressField@CPbkEmailOverSmsAddressSelect@@EBEHABVTPbkContactItemField@@@Z @ 129 NONAME ; private: virtual int __thiscall CPbkEmailOverSmsAddressSelect::AddressField(class TPbkContactItemField const &)const 
	?HideThumbnail@CPbkContactViewListControl@@QAEXXZ @ 130 NONAME ; public: void __thiscall CPbkContactViewListControl::HideThumbnail(void)
	?IconId@TPbkIconInfo@@QBEHXZ @ 131 NONAME ; public: int __thiscall TPbkIconInfo::IconId(void)const 
	?ImageData@CPbkImageDataWithInfo@@QBEABVMPbkImageData@@XZ @ 132 NONAME ; public: class MPbkImageData const & __thiscall CPbkImageDataWithInfo::ImageData(void)const 
	?ImageSizeInPixels@CPbkImageDataWithInfo@@QBE?AVTSize@@XZ @ 133 NONAME ; public: class TSize  __thiscall CPbkImageDataWithInfo::ImageSizeInPixels(void)const 
	?InternalizeL@CPbkViewState@@QAEXAAVRReadStream@@@Z @ 134 NONAME ; public: void __thiscall CPbkViewState::InternalizeL(class RReadStream &)
	?IsNoteClosed@CPbkWaitNoteWrapperBase@@QBEHXZ @ 135 NONAME ; public: int __thiscall CPbkWaitNoteWrapperBase::IsNoteClosed(void)const 
	?IsOpen@RPbkViewResourceFile@@QBEHXZ @ 136 NONAME ; public: int __thiscall RPbkViewResourceFile::IsOpen(void)const 
	?IsPicture@CPbkPhotoCardControl@@QBEHXZ @ 137 NONAME ; public: int __thiscall CPbkPhotoCardControl::IsPicture(void)const 
	?IsReady@CPbkContactViewListControl@@QBEHXZ @ 138 NONAME ; public: int __thiscall CPbkContactViewListControl::IsReady(void)const 
	?ItemMarked@CPbkContactViewListControl@@QBEHH@Z @ 139 NONAME ; public: int __thiscall CPbkContactViewListControl::ItemMarked(int)const 
	?NewL@CPbkDrmManager@@SAPAV1@XZ @ 140 NONAME ; class CPbkDrmManager * CPbkDrmManager::NewL(void)
	?ListBox@CPbkContactInfoControl@@QAEAAVCEikListBox@@XZ @ 141 NONAME ; public: class CEikListBox & __thiscall CPbkContactInfoControl::ListBox(void)
	?Load@CPbkThumbnailPopup@@QAEXABVCPbkContactItem@@H@Z @ 142 NONAME ; public: void __thiscall CPbkThumbnailPopup::Load(class CPbkContactItem const &,int)
	?Load@CPbkThumbnailPopup@@QAEXJH@Z @ 143 NONAME ; public: void __thiscall CPbkThumbnailPopup::Load(long,int)
	?LoadBitmapL@CPbkIconInfoContainer@@QBEPAVCGulIcon@@W4TPbkIconId@@@Z @ 144 NONAME ; public: class CGulIcon * __thiscall CPbkIconInfoContainer::LoadBitmapL(enum TPbkIconId)const 
	?MarkItemL@CPbkContactViewListControl@@QAEXJH@Z @ 145 NONAME ; public: void __thiscall CPbkContactViewListControl::MarkItemL(long,int)
	?MarkedContactIds@CPbkViewState@@QAEPAVCContactIdArray@@XZ @ 146 NONAME ; public: class CContactIdArray * __thiscall CPbkViewState::MarkedContactIds(void)
	?MarkedContactIds@CPbkViewState@@QBEPBVCContactIdArray@@XZ @ 147 NONAME ; public: class CContactIdArray const * __thiscall CPbkViewState::MarkedContactIds(void)const 
	?NewL@CPbkPrependDlg@@SAPAV1@AAVTDes16@@@Z @ 148 NONAME ; public: static class CPbkPrependDlg * __cdecl CPbkPrependDlg::NewL(class TDes16 &)
	?MaskId@TPbkIconInfo@@QBEHXZ @ 149 NONAME ; public: int __thiscall TPbkIconInfo::MaskId(void)const 
	?MbmFileName@TPbkIconInfo@@QBEABVTDesC16@@XZ @ 150 NONAME ; public: class TDesC16 const & __thiscall TPbkIconInfo::MbmFileName(void)const 
	?MimeType@CPbkImageDataWithInfo@@QBEABVTDesC8@@XZ @ 151 NONAME ; public: class TDesC8 const & __thiscall CPbkImageDataWithInfo::MimeType(void)const 
	?NewL@CPbkAddToGroup@@SAPAV1@XZ @ 152 NONAME ; public: static class CPbkAddToGroup * __cdecl CPbkAddToGroup::NewL(void)
	?NewL@CPbkCompressUiImpl@@SAPAV1@AAVCPbkContactEngine@@@Z @ 153 NONAME ; public: static class CPbkCompressUiImpl * __cdecl CPbkCompressUiImpl::NewL(class CPbkContactEngine &)
	?NewL@CPbkContactEditorDlg@@SAPAV1@AAVCPbkContactEngine@@AAVCPbkContactItem@@HHH@Z @ 154 NONAME ; public: static class CPbkContactEditorDlg * __cdecl CPbkContactEditorDlg::NewL(class CPbkContactEngine &,class CPbkContactItem &,int,int,int)
	?NewL@CPbkContactInfoControl@@SAPAV1@HABVCCoeControl@@PAVCPbkContactItem@@PAVCPbkContactEngine@@@Z @ 155 NONAME ; public: static class CPbkContactInfoControl * __cdecl CPbkContactInfoControl::NewL(int,class CCoeControl const &,class CPbkContactItem *,class CPbkContactEngine *)
	?NewL@CPbkContactViewListControl@@SAPAV1@AAVCPbkContactEngine@@AAVCContactViewBase@@HPBVCCoeControl@@@Z @ 156 NONAME ; public: static class CPbkContactViewListControl * __cdecl CPbkContactViewListControl::NewL(class CPbkContactEngine &,class CContactViewBase &,int,class CCoeControl const *)
	?NewL@CPbkDataSaveAppUi@@SAPAV1@AAVCPbkContactEngine@@@Z @ 157 NONAME ; public: static class CPbkDataSaveAppUi * __cdecl CPbkDataSaveAppUi::NewL(class CPbkContactEngine &)
	?NewL@CPbkFFSCheck@@SAPAV1@PAVCCoeEnv@@@Z @ 158 NONAME ; public: static class CPbkFFSCheck * __cdecl CPbkFFSCheck::NewL(class CCoeEnv *)
	?NewL@CPbkGroupBelongings@@SAPAV1@XZ @ 159 NONAME ; public: static class CPbkGroupBelongings * __cdecl CPbkGroupBelongings::NewL(void)
	?NewL@CPbkGroupMembersFetchDlg@@SAPAV1@AAVTParams@1@AAVCPbkContactEngine@@@Z @ 160 NONAME ; public: static class CPbkGroupMembersFetchDlg * __cdecl CPbkGroupMembersFetchDlg::NewL(class CPbkGroupMembersFetchDlg::TParams &,class CPbkContactEngine &)
	?NewL@CPbkGroupNameQueryDlg@@SAPAV1@AAVTDes16@@AAVCPbkContactEngine@@H@Z @ 161 NONAME ; public: static class CPbkGroupNameQueryDlg * __cdecl CPbkGroupNameQueryDlg::NewL(class TDes16 &,class CPbkContactEngine &,int)
	?NewL@CPbkIconInfoContainer@@SAPAV1@AAVTResourceReader@@@Z @ 162 NONAME ; public: static class CPbkIconInfoContainer * __cdecl CPbkIconInfoContainer::NewL(class TResourceReader &)
	?NewL@CPbkIconInfoContainer@@SAPAV1@HPAVCCoeEnv@@@Z @ 163 NONAME ; public: static class CPbkIconInfoContainer * __cdecl CPbkIconInfoContainer::NewL(int,class CCoeEnv *)
	?NewL@CPbkIconInfoContainer@@SAPAV1@PAVCCoeEnv@@@Z @ 164 NONAME ; public: static class CPbkIconInfoContainer * __cdecl CPbkIconInfoContainer::NewL(class CCoeEnv *)
	?NewL@CPbkImageDataWithInfo@@SAPAV1@ABUTParams@1@@Z @ 165 NONAME ; public: static class CPbkImageDataWithInfo * __cdecl CPbkImageDataWithInfo::NewL(struct CPbkImageDataWithInfo::TParams const &)
	?NewL@CPbkMemoryEntryDefaultsDlg@@SAPAV1@JAAVCPbkContactEngine@@@Z @ 166 NONAME ; public: static class CPbkMemoryEntryDefaultsDlg * __cdecl CPbkMemoryEntryDefaultsDlg::NewL(long,class CPbkContactEngine &)
	?NewL@CPbkMultipleEntryFetchDlg@@SAPAV1@AAVTParams@1@AAVCPbkContactEngine@@@Z @ 167 NONAME ; public: static class CPbkMultipleEntryFetchDlg * __cdecl CPbkMultipleEntryFetchDlg::NewL(class CPbkMultipleEntryFetchDlg::TParams &,class CPbkContactEngine &)
	?NewL@CPbkPhonebookInfoDlg@@SAPAV1@AAVCPbkContactEngine@@@Z @ 168 NONAME ; public: static class CPbkPhonebookInfoDlg * __cdecl CPbkPhonebookInfoDlg::NewL(class CPbkContactEngine &)
	?NewL@CPbkPhotoCardControl@@SAPAV1@PBVCCoeControl@@PAVCPbkContactEngine@@J@Z @ 169 NONAME ; public: static class CPbkPhotoCardControl * __cdecl CPbkPhotoCardControl::NewL(class CCoeControl const *,class CPbkContactEngine *,long)
	?NewL@CPbkProgressNoteWrapper@@SAPAV1@XZ @ 170 NONAME ; public: static class CPbkProgressNoteWrapper * __cdecl CPbkProgressNoteWrapper::NewL(void)
	?NewL@CPbkRingingToneFetch@@SAPAV1@AAVCPbkContactEngine@@@Z @ 171 NONAME ; public: static class CPbkRingingToneFetch * __cdecl CPbkRingingToneFetch::NewL(class CPbkContactEngine &)
	?NewL@CPbkSingleEntryFetchDlg@@SAPAV1@AAVTParams@1@@Z @ 172 NONAME ; public: static class CPbkSingleEntryFetchDlg * __cdecl CPbkSingleEntryFetchDlg::NewL(class CPbkSingleEntryFetchDlg::TParams &)
	?NewL@CPbkSingleItemFetchDlg@@SAPAV1@AAVTParams@1@AAVCPbkContactEngine@@@Z @ 173 NONAME ; public: static class CPbkSingleItemFetchDlg * __cdecl CPbkSingleItemFetchDlg::NewL(class CPbkSingleItemFetchDlg::TParams &,class CPbkContactEngine &)
	?NewL@CPbkThumbnailManager@@SAPAV1@AAVCPbkContactEngine@@@Z @ 174 NONAME ; public: static class CPbkThumbnailManager * __cdecl CPbkThumbnailManager::NewL(class CPbkContactEngine &)
	?NewL@CPbkThumbnailPopup@@SAPAV1@AAVCPbkContactEngine@@@Z @ 175 NONAME ; public: static class CPbkThumbnailPopup * __cdecl CPbkThumbnailPopup::NewL(class CPbkContactEngine &)
	?NewL@CPbkViewState@@SAPAV1@AAVRReadStream@@@Z @ 176 NONAME ; public: static class CPbkViewState * __cdecl CPbkViewState::NewL(class RReadStream &)
	?NewL@CPbkViewState@@SAPAV1@ABVTDesC8@@@Z @ 177 NONAME ; public: static class CPbkViewState * __cdecl CPbkViewState::NewL(class TDesC8 const &)
	?NewL@CPbkViewState@@SAPAV1@XZ @ 178 NONAME ; public: static class CPbkViewState * __cdecl CPbkViewState::NewL(void)
	?__PbkEngine_DummyExport6@@YAXXZ @ 179 NONAME ; void __cdecl __PbkEngine_DummyExport6(void)
	?ExecuteLD@CPbkEmailOverSmsAddressSelect@@QAEHAAVTParams@1@@Z @ 180 NONAME ; public: int __thiscall CPbkEmailOverSmsAddressSelect::ExecuteLD(class CPbkEmailOverSmsAddressSelect::TParams &)
	?NewL@CPbkWaitNoteWrapper@@SAPAV1@XZ @ 181 NONAME ; public: static class CPbkWaitNoteWrapper * __cdecl CPbkWaitNoteWrapper::NewL(void)
	?NewLC@CPbkDeleteContactQuery@@SAPAV1@XZ @ 182 NONAME ; public: static class CPbkDeleteContactQuery * __cdecl CPbkDeleteContactQuery::NewLC(void)
	?NewLC@CPbkSetToneToGroup@@SAPAV1@AAVCPbkContactEngine@@ABVCContactIdArray@@ABVTDesC16@@@Z @ 183 NONAME ; public: static class CPbkSetToneToGroup * __cdecl CPbkSetToneToGroup::NewLC(class CPbkContactEngine &,class CContactIdArray const &,class TDesC16 const &)
	?NewLC@CPbkViewState@@SAPAV1@AAVRReadStream@@@Z @ 184 NONAME ; public: static class CPbkViewState * __cdecl CPbkViewState::NewLC(class RReadStream &)
	?NewLC@CPbkViewState@@SAPAV1@ABVTDesC8@@@Z @ 185 NONAME ; public: static class CPbkViewState * __cdecl CPbkViewState::NewLC(class TDesC8 const &)
	?NewLC@CPbkViewState@@SAPAV1@XZ @ 186 NONAME ; public: static class CPbkViewState * __cdecl CPbkViewState::NewLC(void)
	?NextUnmarkedIndexFromFocus@CPbkContactViewListControl@@QBEHXZ @ 187 NONAME ; public: int __thiscall CPbkContactViewListControl::NextUnmarkedIndexFromFocus(void)const 
	?NoAddressesL@CPbkEmailAddressSelect@@EAEXXZ @ 188 NONAME ; private: virtual void __thiscall CPbkEmailAddressSelect::NoAddressesL(void)
	?NoAddressesL@CPbkMmsAddressSelect@@EAEXXZ @ 189 NONAME ; private: virtual void __thiscall CPbkMmsAddressSelect::NoAddressesL(void)
	?NoAddressesL@CPbkPhoneNumberSelectBase@@MAEXXZ @ 190 NONAME ; protected: virtual void __thiscall CPbkPhoneNumberSelectBase::NoAddressesL(void)
	??1CPbkDrmManager@@UAE@XZ @ 191 NONAME ; CPbkDrmManager::~CPbkDrmManager(void)
	?OkToExitL@CPbkGroupNameQueryDlg@@UAEHH@Z @ 192 NONAME ; public: virtual int __thiscall CPbkGroupNameQueryDlg::OkToExitL(int)
	?OpenL@RPbkViewResourceFile@@QAEXXZ @ 193 NONAME ; public: void __thiscall RPbkViewResourceFile::OpenL(void)
	?PackL@CPbkViewState@@QBEPAVHBufC8@@XZ @ 194 NONAME ; public: class HBufC8 * __thiscall CPbkViewState::PackL(void)const 
	?PackLC@CPbkViewState@@QBEPAVHBufC8@@XZ @ 195 NONAME ; public: class HBufC8 * __thiscall CPbkViewState::PackLC(void)const 
	?PbkControlKeyEventL@CPbkAddressSelect@@EAE?AW4TKeyResponse@@ABUTKeyEvent@@W4TEventCode@@@Z @ 196 NONAME ; private: virtual enum TKeyResponse  __thiscall CPbkAddressSelect::PbkControlKeyEventL(struct TKeyEvent const &,enum TEventCode)
	?PbkControlKeyEventL@CPbkPhoneNumberSelect@@EAE?AW4TKeyResponse@@ABUTKeyEvent@@W4TEventCode@@@Z @ 197 NONAME ; private: virtual enum TKeyResponse  __thiscall CPbkPhoneNumberSelect::PbkControlKeyEventL(struct TKeyEvent const &,enum TEventCode)
	?PbkDataSaveClipTextL@MPbkDataSaveCallback@@UAE?AVTPtrC16@@ABVTDesC16@@AAVCPbkFieldInfo@@@Z @ 198 NONAME ; public: virtual class TPtrC16  __thiscall MPbkDataSaveCallback::PbkDataSaveClipTextL(class TDesC16 const &,class CPbkFieldInfo &)
	?PbkDataSaveNoFieldL@MPbkDataSaveCallback@@UAEXAAVCPbkContactItem@@@Z @ 199 NONAME ; public: virtual void __thiscall MPbkDataSaveCallback::PbkDataSaveNoFieldL(class CPbkContactItem &)
	?PbkIconInfoId@TPbkIconInfo@@QBE?AW4TPbkIconId@@XZ @ 200 NONAME ; public: enum TPbkIconId  __thiscall TPbkIconInfo::PbkIconInfoId(void)const 
	?NoAddressesL@CPbkEmailOverSmsAddressSelect@@EAEXXZ @ 201 NONAME ; private: virtual void __thiscall CPbkEmailOverSmsAddressSelect::NoAddressesL(void)
	?QuerySoftkeysResource@CPbkEmailAddressSelect@@EBEHXZ @ 202 NONAME ; private: virtual int __thiscall CPbkEmailAddressSelect::QuerySoftkeysResource(void)const 
	?QuerySoftkeysResource@CPbkMmsAddressSelect@@EBEHXZ @ 203 NONAME ; private: virtual int __thiscall CPbkMmsAddressSelect::QuerySoftkeysResource(void)const 
	?QuerySoftkeysResource@CPbkPhoneNumberSelect@@EBEHXZ @ 204 NONAME ; private: virtual int __thiscall CPbkPhoneNumberSelect::QuerySoftkeysResource(void)const 
	?QuerySoftkeysResource@CPbkSmsAddressSelect@@EBEHXZ @ 205 NONAME ; private: virtual int __thiscall CPbkSmsAddressSelect::QuerySoftkeysResource(void)const 
	?QueryTitleL@CPbkEmailAddressSelect@@EAEABVTDesC16@@XZ @ 206 NONAME ; private: virtual class TDesC16 const & __thiscall CPbkEmailAddressSelect::QueryTitleL(void)
	?QueryTitleL@CPbkMmsAddressSelect@@EAEABVTDesC16@@XZ @ 207 NONAME ; private: virtual class TDesC16 const & __thiscall CPbkMmsAddressSelect::QueryTitleL(void)
	?QueryTitleL@CPbkPhoneNumberSelect@@EAEABVTDesC16@@XZ @ 208 NONAME ; private: virtual class TDesC16 const & __thiscall CPbkPhoneNumberSelect::QueryTitleL(void)
	?QueryTitleL@CPbkSmsAddressSelect@@EAEABVTDesC16@@XZ @ 209 NONAME ; private: virtual class TDesC16 const & __thiscall CPbkSmsAddressSelect::QueryTitleL(void)
	?RemoveObserver@CPbkContactViewListControl@@QAEXAAVMPbkContactViewListControlObserver@@@Z @ 210 NONAME ; public: void __thiscall CPbkContactViewListControl::RemoveObserver(class MPbkContactViewListControlObserver &)
	?RemoveThumbnail@CPbkThumbnailManager@@QAEXAAVCPbkContactItem@@@Z @ 211 NONAME ; public: void __thiscall CPbkThumbnailManager::RemoveThumbnail(class CPbkContactItem &)
	?Reserved_1@CPbkAddressSelect@@EAEXXZ @ 212 NONAME ; private: virtual void __thiscall CPbkAddressSelect::Reserved_1(void)
	?Reserved_1@CPbkMemoryEntryAddItemDlg@@EAEXXZ @ 213 NONAME ; private: virtual void __thiscall CPbkMemoryEntryAddItemDlg::Reserved_1(void)
	?Reserved_2@CPbkAddressSelect@@EAEXXZ @ 214 NONAME ; private: virtual void __thiscall CPbkAddressSelect::Reserved_2(void)
	?Reserved_2@CPbkMemoryEntryAddItemDlg@@EAEXXZ @ 215 NONAME ; private: virtual void __thiscall CPbkMemoryEntryAddItemDlg::Reserved_2(void)
	?Reset@CPbkViewState@@QAEXXZ @ 216 NONAME ; public: void __thiscall CPbkViewState::Reset(void)
	?ResetFindL@CPbkContactViewListControl@@QAEXXZ @ 217 NONAME ; public: void __thiscall CPbkContactViewListControl::ResetFindL(void)
	?ResetWhenDestroyed@CPbkContactEditorDlg@@QAEXPAPAV1@@Z @ 218 NONAME ; public: void __thiscall CPbkContactEditorDlg::ResetWhenDestroyed(class CPbkContactEditorDlg * *)
	?ResetWhenDestroyed@CPbkMemoryEntryAddItemDlg@@QAEXPAPAV1@@Z @ 219 NONAME ; public: void __thiscall CPbkMemoryEntryAddItemDlg::ResetWhenDestroyed(class CPbkMemoryEntryAddItemDlg * *)
	?ResetWhenDestroyed@CPbkSelectFieldDlg@@QAEXPAPAV1@@Z @ 220 NONAME ; public: void __thiscall CPbkSelectFieldDlg::ResetWhenDestroyed(class CPbkSelectFieldDlg * *)
	?ResetWhenDestroyed@CPbkSingleEntryFetchDlg@@QAEXPAPAV1@@Z @ 221 NONAME ; public: void __thiscall CPbkSingleEntryFetchDlg::ResetWhenDestroyed(class CPbkSingleEntryFetchDlg * *)
	?RestoreStateL@CPbkContactInfoControl@@QAEXPBVCPbkViewState@@@Z @ 222 NONAME ; public: void __thiscall CPbkContactInfoControl::RestoreStateL(class CPbkViewState const *)
	?RestoreStateL@CPbkContactViewListControl@@QAEXPBVCPbkViewState@@@Z @ 223 NONAME ; public: void __thiscall CPbkContactViewListControl::RestoreStateL(class CPbkViewState const *)
	?RingingToneFile@CPbkSetToneToGroup@@QBEABVTDesC16@@XZ @ 224 NONAME ; public: class TDesC16 const & __thiscall CPbkSetToneToGroup::RingingToneFile(void)const 
	?RunLD@CPbkDeleteContactQuery@@QAEHAAVCPbkContactEngine@@ABVCContactIdArray@@@Z @ 225 NONAME ; public: int __thiscall CPbkDeleteContactQuery::RunLD(class CPbkContactEngine &,class CContactIdArray const &)
	?RunLD@CPbkDeleteContactQuery@@QAEHAAVCPbkContactEngine@@J@Z @ 226 NONAME ; public: int __thiscall CPbkDeleteContactQuery::RunLD(class CPbkContactEngine &,long)
	?RunLD@CPbkDeleteContactQuery@@QAEHABVCPbkContactItem@@@Z @ 227 NONAME ; public: int __thiscall CPbkDeleteContactQuery::RunLD(class CPbkContactItem const &)
	?SelectedField@TBaseParams@CPbkAddressSelect@@QBEPBVTPbkContactItemField@@XZ @ 228 NONAME ; public: class TPbkContactItemField const * __thiscall CPbkAddressSelect::TBaseParams::SelectedField(void)const 
	?SetBlank@CPbkContactViewListControl@@QAEXH@Z @ 229 NONAME ; public: void __thiscall CPbkContactViewListControl::SetBlank(int)
	?SetCurrentItemIndex@CPbkContactViewListControl@@QAEXH@Z @ 230 NONAME ; public: void __thiscall CPbkContactViewListControl::SetCurrentItemIndex(int)
	?SetCurrentItemIndexAndDraw@CPbkContactViewListControl@@QAEXH@Z @ 231 NONAME ; public: void __thiscall CPbkContactViewListControl::SetCurrentItemIndexAndDraw(int)
	?SetEntryLoader@CPbkContactViewListControl@@QAEXAAVMPbkContactEntryLoader@@@Z @ 232 NONAME ; public: void __thiscall CPbkContactViewListControl::SetEntryLoader(class MPbkContactEntryLoader &)
	?SetFieldDataArray@CPbkViewState@@QAEXPAVCPbkFieldDataArray@@@Z @ 233 NONAME ; public: void __thiscall CPbkViewState::SetFieldDataArray(class CPbkFieldDataArray *)
	?SetFocusedContactId@CPbkViewState@@QAEXJ@Z @ 234 NONAME ; public: void __thiscall CPbkViewState::SetFocusedContactId(long)
	?SetFocusedField@TBaseParams@CPbkAddressSelect@@QAEXPBVTPbkContactItemField@@@Z @ 235 NONAME ; public: void __thiscall CPbkAddressSelect::TBaseParams::SetFocusedField(class TPbkContactItemField const *)
	?SetFocusedFieldIndex@CPbkViewState@@QAEXH@Z @ 236 NONAME ; public: void __thiscall CPbkViewState::SetFocusedFieldIndex(int)
	?SetMarkedContactIds@CPbkViewState@@QAEXPAVCContactIdArray@@@Z @ 237 NONAME ; public: void __thiscall CPbkViewState::SetMarkedContactIds(class CContactIdArray *)
	?SetMopParent@CPbkMultipleEntryFetchDlg@@QAEXPAVMObjectProvider@@@Z @ 238 NONAME ; public: void __thiscall CPbkMultipleEntryFetchDlg::SetMopParent(class MObjectProvider *)
	?SetMopParent@CPbkSingleEntryFetchDlg@@QAEXPAVMObjectProvider@@@Z @ 239 NONAME ; public: void __thiscall CPbkSingleEntryFetchDlg::SetMopParent(class MObjectProvider *)
	?SetMopParent@CPbkSingleItemFetchDlg@@QAEXPAVMObjectProvider@@@Z @ 240 NONAME ; public: void __thiscall CPbkSingleItemFetchDlg::SetMopParent(class MObjectProvider *)
	?SetObserver@CPbkSelectFieldDlg@@QAEXPAVMPbkControlKeyObserver@@@Z @ 241 NONAME ; public: void __thiscall CPbkSelectFieldDlg::SetObserver(class MPbkControlKeyObserver *)
	?SetProgressDialogCallback@CPbkWaitNoteWrapperBase@@QAEXAAVMProgressDialogCallback@@@Z @ 242 NONAME ; public: void __thiscall CPbkWaitNoteWrapperBase::SetProgressDialogCallback(class MProgressDialogCallback &)
	?SetRingingToneL@CPbkRingingToneFetch@@QAEXAAVCPbkContactItem@@AAV?$TBuf@$0BAA@@@@Z @ 243 NONAME ; public: void __thiscall CPbkRingingToneFetch::SetRingingToneL(class CPbkContactItem &,class TBuf<256> &)
	?SetThumbnailAsyncL@CPbkThumbnailManager@@QAEPAVMPbkThumbnailOperation@@AAVMPbkThumbnailSetObserver@@AAVCPbkContactItem@@ABVCFbsBitmap@@@Z @ 244 NONAME ; public: class MPbkThumbnailOperation * __thiscall CPbkThumbnailManager::SetThumbnailAsyncL(class MPbkThumbnailSetObserver &,class CPbkContactItem &,class CFbsBitmap const &)
	?__PbkEngine_DummyExport7@@YAXXZ @ 245 NONAME ; void __cdecl __PbkEngine_DummyExport7(void)
	?SetThumbnailAsyncL@CPbkThumbnailManager@@QAEPAVMPbkThumbnailOperation@@AAVMPbkThumbnailSetObserver@@AAVCPbkContactItem@@ABVTDesC8@@@Z @ 246 NONAME ; public: class MPbkThumbnailOperation * __thiscall CPbkThumbnailManager::SetThumbnailAsyncL(class MPbkThumbnailSetObserver &,class CPbkContactItem &,class TDesC8 const &)
	?SetTopContactId@CPbkViewState@@QAEXJ@Z @ 247 NONAME ; public: void __thiscall CPbkViewState::SetTopContactId(long)
	?SetTopFieldIndex@CPbkViewState@@QAEXH@Z @ 248 NONAME ; public: void __thiscall CPbkViewState::SetTopFieldIndex(int)
	?SetUseDefaultDirectly@TBaseParams@CPbkAddressSelect@@QAEXH@Z @ 249 NONAME ; public: void __thiscall CPbkAddressSelect::TBaseParams::SetUseDefaultDirectly(int)
	?SetParentContactId@CPbkViewState@@QAEXJ@Z @ 250 NONAME ; public: void __thiscall CPbkViewState::SetParentContactId(long)
	?ShowThumbnailL@CPbkContactViewListControl@@QAEXXZ @ 251 NONAME ; public: void __thiscall CPbkContactViewListControl::ShowThumbnailL(void)
	?TopContactId@CPbkViewState@@QBEJXZ @ 252 NONAME ; public: long __thiscall CPbkViewState::TopContactId(void)const 
	?TopFieldIndex@CPbkViewState@@QBEHXZ @ 253 NONAME ; public: int __thiscall CPbkViewState::TopFieldIndex(void)const 
	?Uid@CPbkViewState@@SA?AVTUid@@XZ @ 254 NONAME ; public: static class TUid  __cdecl CPbkViewState::Uid(void)
	?UnpackL@CPbkViewState@@QAEXABVTDesC8@@@Z @ 255 NONAME ; public: void __thiscall CPbkViewState::UnpackL(class TDesC8 const &)
	?SetFlags@CPbkViewState@@QAEXI@Z @ 256 NONAME ; public: void __thiscall CPbkViewState::SetFlags(unsigned int)
	?UpdateL@CPbkPhotoCardControl@@QAEXJ@Z @ 257 NONAME ; public: void __thiscall CPbkPhotoCardControl::UpdateL(long)
	?QuerySoftkeysResource@CPbkEmailOverSmsAddressSelect@@EBEHXZ @ 258 NONAME ; private: virtual int __thiscall CPbkEmailOverSmsAddressSelect::QuerySoftkeysResource(void)const 
	?__DbgTestInvariant@CPbkThumbnailPopup@@QBEXXZ @ 259 NONAME ; public: void __thiscall CPbkThumbnailPopup::__DbgTestInvariant(void)const 
	?RefreshL@CPbkIconArray@@QAEXH@Z @ 260 NONAME ; public: void __thiscall CPbkIconArray::RefreshL(int)
	?IsProtectedFile@CPbkDrmManager@@QAEHABVTDesC16@@@Z @ 261 NONAME ; int CPbkDrmManager::IsProtectedFile(class TDesC16 const &)
	?QueryTitleL@CPbkEmailOverSmsAddressSelect@@EAEABVTDesC16@@XZ @ 262 NONAME ; private: virtual class TDesC16 const & __thiscall CPbkEmailOverSmsAddressSelect::QueryTitleL(void)
	?AppendIconsFromResourceL@CPbkIconArray@@QAEXHH@Z @ 263 NONAME ; public: void __thiscall CPbkIconArray::AppendIconsFromResourceL(int,int)
	?SkinId@TPbkIconInfo@@QBE?AVTAknsItemID@@XZ @ 264 NONAME ; public: class TAknsItemID  __thiscall TPbkIconInfo::SkinId(void)const 
	?MMCClCheckL@CPbkFFSCheck@@QAEXABVMPbkCommandHandler@@H@Z @ 265 NONAME ; public: void __thiscall CPbkFFSCheck::MMCClCheckL(class MPbkCommandHandler const &,int)
	?AppendIconsFromResourceL@CPbkIconInfoContainer@@QAEXH@Z @ 266 NONAME ; public: void __thiscall CPbkIconInfoContainer::AppendIconsFromResourceL(int)
	?NewL@CPbkContactListControlBase@@SAPAV1@AAVCPbkContactEngine@@AAVCContactViewBase@@HPBVCCoeControl@@@Z @ 267 NONAME ; public: static class CPbkContactListControlBase * __cdecl CPbkContactListControlBase::NewL(class CPbkContactEngine &,class CContactViewBase &,int,class CCoeControl const *)
	?ExecuteLD@CPbkSettingsDlg@@QAEXXZ @ 268 NONAME ; public: void __thiscall CPbkSettingsDlg::ExecuteLD(void)
	?NewL@CPbkSettingsDlg@@SAPAV1@AAVCPbkContactEngine@@@Z @ 269 NONAME ; public: static class CPbkSettingsDlg * __cdecl CPbkSettingsDlg::NewL(class CPbkContactEngine &)
	??0CPbkURLAddressSelect@@QAE@XZ @ 270 NONAME ; public: __thiscall CPbkURLAddressSelect::CPbkURLAddressSelect(void)
	??0TParams@CPbkURLAddressSelect@@QAE@ABVCPbkContactItem@@@Z @ 271 NONAME ; public: __thiscall CPbkURLAddressSelect::TParams::TParams(class CPbkContactItem const &)
	??1CPbkURLAddressSelect@@UAE@XZ @ 272 NONAME ; public: virtual __thiscall CPbkURLAddressSelect::~CPbkURLAddressSelect(void)
	?AddressField@CPbkURLAddressSelect@@EBEHABVTPbkContactItemField@@@Z @ 273 NONAME ; private: virtual int __thiscall CPbkURLAddressSelect::AddressField(class TPbkContactItemField const &)const 
	?ExecuteLD@CPbkURLAddressSelect@@QAE?AVTPtrC16@@AAVTParams@1@@Z @ 274 NONAME ; public: class TPtrC16  __thiscall CPbkURLAddressSelect::ExecuteLD(class CPbkURLAddressSelect::TParams &)
	?NoAddressesL@CPbkURLAddressSelect@@EAEXXZ @ 275 NONAME ; private: virtual void __thiscall CPbkURLAddressSelect::NoAddressesL(void)
	?QuerySoftkeysResource@CPbkURLAddressSelect@@EBEHXZ @ 276 NONAME ; private: virtual int __thiscall CPbkURLAddressSelect::QuerySoftkeysResource(void)const 
	?QueryTitleL@CPbkURLAddressSelect@@EAEABVTDesC16@@XZ @ 277 NONAME ; private: virtual class TDesC16 const & __thiscall CPbkURLAddressSelect::QueryTitleL(void)
	??0CPbkPocAddressSelect@@QAE@XZ @ 278 NONAME ; public: __thiscall CPbkPocAddressSelect::CPbkPocAddressSelect(void)
	??0TParams@CPbkPocAddressSelect@@QAE@ABVCPbkContactItem@@@Z @ 279 NONAME ; public: __thiscall CPbkPocAddressSelect::TParams::TParams(class CPbkContactItem const &)
	??1CPbkPocAddressSelect@@UAE@XZ @ 280 NONAME ; public: virtual __thiscall CPbkPocAddressSelect::~CPbkPocAddressSelect(void)
	?AddressField@CPbkPocAddressSelect@@EBEHABVTPbkContactItemField@@@Z @ 281 NONAME ; private: virtual int __thiscall CPbkPocAddressSelect::AddressField(class TPbkContactItemField const &)const 	
	?ExecuteLD@CPbkPocAddressSelect@@QAEHAAVTParams@1@@Z @ 282 NONAME ; public: int __thiscall CPbkPocAddressSelect::ExecuteLD(class CPbkPocAddressSelect::TParams &)
	?NoAddressesL@CPbkPocAddressSelect@@EAEXXZ @ 283 NONAME ; private: virtual void __thiscall CPbkPocAddressSelect::NoAddressesL(void)
	?QuerySoftkeysResource@CPbkPocAddressSelect@@EBEHXZ @ 284 NONAME ; private: virtual int __thiscall CPbkPocAddressSelect::QuerySoftkeysResource(void)const 
	?QueryTitleL@CPbkPocAddressSelect@@EAEABVTDesC16@@XZ @ 285 NONAME ; private: virtual class TDesC16 const & __thiscall CPbkPocAddressSelect::QueryTitleL(void)
	?GetImageAsyncL@CPbkImageManager@@QAEPAVMPbkImageOperation@@HAAVMPbkImageGetImageObserver@@ABVCPbkContactItem@@@Z @ 286 NONAME ; public: class MPbkImageOperation * __thiscall CPbkImageManager::GetImageAsyncL(int,class MPbkImageGetImageObserver &,class CPbkContactItem const &)
	?GetImageAsyncL@CPbkImageManager@@QAEPAVMPbkImageOperation@@HAAVMPbkImageGetObserver@@ABVCPbkContactItem@@@Z @ 287 NONAME ; public: class MPbkImageOperation * __thiscall CPbkImageManager::GetImageAsyncL(int,class MPbkImageGetObserver &,class CPbkContactItem const &)
	?GetImageAsyncL@CPbkImageManager@@QAEPAVMPbkImageOperation@@HAAVMPbkImageGetObserver@@ABVCPbkContactItem@@AAVTPbkImageLoadParameters@@@Z @ 288 NONAME ; public: class MPbkImageOperation * __thiscall CPbkImageManager::GetImageAsyncL(int,class MPbkImageGetObserver &,class CPbkContactItem const &,class TPbkImageLoadParameters &)
	?HasImage@CPbkImageManager@@QBEHHABVCPbkContactItem@@@Z @ 289 NONAME ; public: int __thiscall CPbkImageManager::HasImage(int,class CPbkContactItem const &)const 
	?NewL@CPbkImageManager@@SAPAV1@AAVCPbkContactEngine@@@Z @ 290 NONAME ; public: static class CPbkImageManager * __cdecl CPbkImageManager::NewL(class CPbkContactEngine &)
	?RemoveImage@CPbkImageManager@@QAEXHAAVCPbkContactItem@@@Z @ 291 NONAME ; public: void __thiscall CPbkImageManager::RemoveImage(int,class CPbkContactItem &)
	?SetImageAsyncL@CPbkImageManager@@QAEPAVMPbkImageOperation@@HAAVMPbkImageSetObserver@@AAVCPbkContactItem@@ABVCFbsBitmap@@@Z @ 292 NONAME ; public: class MPbkImageOperation * __thiscall CPbkImageManager::SetImageAsyncL(int,class MPbkImageSetObserver &,class CPbkContactItem &,class CFbsBitmap const &)
	?SetImageAsyncL@CPbkImageManager@@QAEPAVMPbkImageOperation@@HAAVMPbkImageSetObserver@@AAVCPbkContactItem@@ABVTDesC16@@@Z @ 293 NONAME ; public: class MPbkImageOperation * __thiscall CPbkImageManager::SetImageAsyncL(int,class MPbkImageSetObserver &,class CPbkContactItem &,class TDesC16 const &)
	?SetImageAsyncL@CPbkImageManager@@QAEPAVMPbkImageOperation@@HAAVMPbkImageSetObserver@@AAVCPbkContactItem@@ABVTDesC8@@@Z @ 294 NONAME ; public: class MPbkImageOperation * __thiscall CPbkImageManager::SetImageAsyncL(int,class MPbkImageSetObserver &,class CPbkContactItem &,class TDesC8 const &)
	??0CPbkVoipAddressSelect@@QAE@XZ @ 295 NONAME ; CPbkVoipAddressSelect::CPbkVoipAddressSelect(void)
	??0TParams@CPbkVoipAddressSelect@@QAE@ABVCPbkContactItem@@@Z @ 296 NONAME ; CPbkVoipAddressSelect::TParams::TParams(class CPbkContactItem const &)
	??1CPbkVoipAddressSelect@@UAE@XZ @ 297 NONAME ; CPbkVoipAddressSelect::~CPbkVoipAddressSelect(void)
	?AddressField@CPbkVoipAddressSelect@@EBEHABVTPbkContactItemField@@@Z @ 298 NONAME ; int CPbkVoipAddressSelect::AddressField(class TPbkContactItemField const &) const
	?ExecuteLD@CPbkVoipAddressSelect@@QAEHAAVTParams@1@@Z @ 299 NONAME ; int CPbkVoipAddressSelect::ExecuteLD(class CPbkVoipAddressSelect::TParams &)
	?NoAddressesL@CPbkVoipAddressSelect@@EAEXXZ @ 300 NONAME ; void CPbkVoipAddressSelect::NoAddressesL(void)
	?QuerySoftkeysResource@CPbkVoipAddressSelect@@EBEHXZ @ 301 NONAME ; int CPbkVoipAddressSelect::QuerySoftkeysResource(void) const
	?QueryTitleL@CPbkVoipAddressSelect@@EAEABVTDesC16@@XZ @ 302 NONAME ; class TDesC16 const & CPbkVoipAddressSelect::QueryTitleL(void)
	??0CPbkSendKeyAddressSelect@@QAE@AAVCPbkContactEngine@@@Z @ 303 NONAME ; CPbkSendKeyAddressSelect::CPbkSendKeyAddressSelect(class CPbkContactEngine &)
	??0TParams@CPbkSendKeyAddressSelect@@QAE@ABVCPbkContactItem@@PBVTPbkContactItemField@@@Z @ 304 NONAME ; CPbkSendKeyAddressSelect::TParams::TParams(class CPbkContactItem const &, class TPbkContactItemField const *)
	??1CPbkSendKeyAddressSelect@@UAE@XZ @ 305 NONAME ; CPbkSendKeyAddressSelect::~CPbkSendKeyAddressSelect(void)
	?AddressField@CPbkSendKeyAddressSelect@@EBEHABVTPbkContactItemField@@@Z @ 306 NONAME ; int CPbkSendKeyAddressSelect::AddressField(class TPbkContactItemField const &) const
	?ExecuteLD@CPbkSendKeyAddressSelect@@QAEHAAVTParams@1@@Z @ 307 NONAME ; int CPbkSendKeyAddressSelect::ExecuteLD(class CPbkSendKeyAddressSelect::TParams &)
	?NoAddressesL@CPbkSendKeyAddressSelect@@EAEXXZ @ 308 NONAME ; void CPbkSendKeyAddressSelect::NoAddressesL(void)
	?PbkControlKeyEventL@CPbkSendKeyAddressSelect@@EAE?AW4TKeyResponse@@ABUTKeyEvent@@W4TEventCode@@@Z @ 309 NONAME ; enum TKeyResponse CPbkSendKeyAddressSelect::PbkControlKeyEventL(struct TKeyEvent const &, enum TEventCode)
	?QuerySoftkeysResource@CPbkSendKeyAddressSelect@@EBEHXZ @ 310 NONAME ; int CPbkSendKeyAddressSelect::QuerySoftkeysResource(void) const
	?QueryTitleL@CPbkSendKeyAddressSelect@@EAEABVTDesC16@@XZ @ 311 NONAME ; class TDesC16 const & CPbkSendKeyAddressSelect::QueryTitleL(void)
	?CreateIconL@PbkIconUtils@@SAXPAVMAknsSkinInstance@@AAPAVCFbsBitmap@@1ABVTPbkIconInfo@@@Z @ 312 NONAME ; void PbkIconUtils::CreateIconL(class MAknsSkinInstance *, class CFbsBitmap * &, class CFbsBitmap * &, class TPbkIconInfo const &)
	?CreateIconLC@PbkIconUtils@@SAXPAVMAknsSkinInstance@@AAPAVCFbsBitmap@@1ABVTPbkIconInfo@@@Z @ 313 NONAME ; void PbkIconUtils::CreateIconLC(class MAknsSkinInstance *, class CFbsBitmap * &, class CFbsBitmap * &, class TPbkIconInfo const &)
	?IsRingingToneProtectedL@CPbkDrmManager@@QAEHABVTDesC16@@@Z @ 314 NONAME ; int CPbkDrmManager::IsRingingToneProtectedL(class TDesC16 const &)
	?HasFileRestrictedRights@CPbkDrmManager@@QAEHABVTDesC16@@@Z @ 315 NONAME ; int CPbkDrmManager::HasFileRestrictedRights(class TDesC16 const &)
	?IsThumbnailProtectedL@CPbkDrmManager@@QAEHABVTDesC16@@@Z @ 316 NONAME ; int CPbkDrmManager::IsThumbnailProtectedL(class TDesC16 const &)
	?DeleteThumbnail@CPbkContactViewListControl@@QAEXXZ @ 317 NONAME ; void CPbkContactViewListControl::DeleteThumbnail(void)
	??0CPbkVideoNumberSelect@@QAE@XZ @ 318 NONAME ; CPbkVideoNumberSelect::CPbkVideoNumberSelect(void)
	??0TParams@CPbkVideoNumberSelect@@QAE@ABVCPbkContactItem@@@Z @ 319 NONAME ; CPbkVideoNumberSelect::TParams::TParams(class CPbkContactItem const &)
	??1CPbkVideoNumberSelect@@UAE@XZ @ 320 NONAME ; CPbkVideoNumberSelect::~CPbkVideoNumberSelect(void)
	?ExecuteLD@CPbkVideoNumberSelect@@QAEHAAVTParams@1@@Z @ 321 NONAME ; int CPbkVideoNumberSelect::ExecuteLD(class CPbkVideoNumberSelect::TParams &)
	?PbkControlKeyEventL@CPbkVideoNumberSelect@@EAE?AW4TKeyResponse@@ABUTKeyEvent@@W4TEventCode@@@Z @ 322 NONAME ; enum TKeyResponse CPbkVideoNumberSelect::PbkControlKeyEventL(struct TKeyEvent const &, enum TEventCode)
	?QuerySoftkeysResource@CPbkVideoNumberSelect@@EBEHXZ @ 323 NONAME ; int CPbkVideoNumberSelect::QuerySoftkeysResource(void) const
	?QueryTitleL@CPbkVideoNumberSelect@@EAEABVTDesC16@@XZ @ 324 NONAME ; class TDesC16 const & CPbkVideoNumberSelect::QueryTitleL(void)

