EXPORTS
	?AddObserverL@CPSRequestHandler@@QAEXPAVMPsResultsObserver@@@Z @ 1 NONAME ; void CPSRequestHandler::AddObserverL(class MPsResultsObserver *)
	?ChangeSortOrderL@CPSRequestHandler@@QAEXABVTDesC16@@AAV?$RArray@H@@@Z @ 2 NONAME ; void CPSRequestHandler::ChangeSortOrderL(class TDesC16 const &, class RArray<int> &)
	?ConvertToVpbkLinkLC@CPSRequestHandler@@QAEPAVMVPbkContactLink@@ABVCPsClientData@@AAVCVPbkContactManager@@@Z @ 3 NONAME ; class MVPbkContactLink * CPSRequestHandler::ConvertToVpbkLinkLC(class CPsClientData const &, class CVPbkContactManager &)
	?GetAllContentsL@CPSRequestHandler@@QAEXXZ @ 4 NONAME ; void CPSRequestHandler::GetAllContentsL(void)
	?GetCachingStatusL@CPSRequestHandler@@QAEHAAW4TCachingStatus@@@Z @ 5 NONAME ; int CPSRequestHandler::GetCachingStatusL(enum TCachingStatus &)
	?GetDataOrderL@CPSRequestHandler@@QAEXABVTDesC16@@AAV?$RArray@H@@@Z @ 6 NONAME ; void CPSRequestHandler::GetDataOrderL(class TDesC16 const &, class RArray<int> &)
	?GetSortOrderL@CPSRequestHandler@@QAEXABVTDesC16@@AAV?$RArray@H@@@Z @ 7 NONAME ; void CPSRequestHandler::GetSortOrderL(class TDesC16 const &, class RArray<int> &)
	?IsLanguageSupportedL@CPSRequestHandler@@QAEHW4TLanguage@@@Z @ 8 NONAME ; int CPSRequestHandler::IsLanguageSupportedL(enum TLanguage)
	?LookupL@CPSRequestHandler@@QAEXABVCPsQuery@@ABVTDesC16@@AAVCDesC16Array@@AAV?$RArray@UTPsMatchLocation@@@@@Z @ 9 NONAME ; void CPSRequestHandler::LookupL(class CPsQuery const &, class TDesC16 const &, class CDesC16Array &, class RArray<struct TPsMatchLocation> &)
	?NewL@CPSRequestHandler@@SAPAV1@XZ @ 10 NONAME ; class CPSRequestHandler * CPSRequestHandler::NewL(void)
	?NewLC@CPSRequestHandler@@SAPAV1@XZ @ 11 NONAME ; class CPSRequestHandler * CPSRequestHandler::NewLC(void)
	?RemoveObserver@CPSRequestHandler@@QAEHPAVMPsResultsObserver@@@Z @ 12 NONAME ; int CPSRequestHandler::RemoveObserver(class MPsResultsObserver *)
	?SearchL@CPSRequestHandler@@QAEXABVCPsQuery@@@Z @ 13 NONAME ; void CPSRequestHandler::SearchL(class CPsQuery const &)
	?SearchL@CPSRequestHandler@@QAEXABVCPsQuery@@AAV?$RPointerArray@VCPsClientData@@@@PAVCVPbkContactManager@@@Z @ 14 NONAME ; void CPSRequestHandler::SearchL(class CPsQuery const &, class RPointerArray<class CPsClientData> &, class CVPbkContactManager *)
	?SetSearchSettingsL@CPSRequestHandler@@QAEXABVCPsSettings@@@Z @ 15 NONAME ; void CPSRequestHandler::SetSearchSettingsL(class CPsSettings const &)
	?ShutdownServerL@CPSRequestHandler@@QAEXXZ @ 16 NONAME ; void CPSRequestHandler::ShutdownServerL(void)
	?Version@CPSRequestHandler@@QBE?AVTVersion@@XZ @ 17 NONAME ; class TVersion CPSRequestHandler::Version(void) const
	?CancelSearch@CPSRequestHandler@@QAEXXZ @ 18 NONAME ; void CPSRequestHandler::CancelSearch(void)
	?LookupMatchL@CPSRequestHandler@@QAEXABVCPsQuery@@ABVTDesC16@@AAVTDes16@@@Z @ 19 NONAME ; void CPSRequestHandler::LookupMatchL(class CPsQuery const &, class TDesC16 const &, class TDes16 &)
	?GetAdaptiveGridCharactersL@CPSRequestHandler@@QAEXABVMDesC16Array@@ABVTDesC16@@HAAVTDes16@@@Z @ 20 NONAME ; void CPSRequestHandler::GetAdaptiveGridCharactersL(class MDesC16Array const &, class TDesC16 const &, int, class TDes16 &)

